
NAV_BOX.elf:     file format elf32-littlearm

Sections:
Idx Name          Size      VMA       LMA       File off  Algn
  0 .isr_vector   00000188  08000000  08000000  00001000  2**0
                  CONTENTS, ALLOC, LOAD, READONLY, DATA
  1 .text         0000c75c  08000190  08000190  00001190  2**4
                  CONTENTS, ALLOC, LOAD, READONLY, CODE
  2 .rodata       000006f8  0800c8f0  0800c8f0  0000d8f0  2**3
                  CONTENTS, ALLOC, LOAD, READONLY, DATA
  3 .ARM.extab    00000000  0800cfe8  0800cfe8  0000e27c  2**0
                  CONTENTS, READONLY
  4 .ARM          00000008  0800cfe8  0800cfe8  0000dfe8  2**2
                  CONTENTS, ALLOC, LOAD, READONLY, DATA
  5 .preinit_array 00000000  0800cff0  0800cff0  0000e27c  2**0
                  CONTENTS, ALLOC, LOAD, DATA
  6 .init_array   00000004  0800cff0  0800cff0  0000dff0  2**2
                  CONTENTS, ALLOC, LOAD, READONLY, DATA
  7 .fini_array   00000004  0800cff4  0800cff4  0000dff4  2**2
                  CONTENTS, ALLOC, LOAD, READONLY, DATA
  8 .data         0000027c  20000000  0800cff8  0000e000  2**3
                  CONTENTS, ALLOC, LOAD, DATA
  9 .ccmram       00000000  10000000  10000000  0000e27c  2**0
                  CONTENTS
 10 .bss          00001514  20000280  20000280  0000e280  2**3
                  ALLOC
 11 ._user_heap_stack 00000604  20001794  20001794  0000e280  2**0
                  ALLOC
 12 .ARM.attributes 00000030  00000000  00000000  0000e27c  2**0
                  CONTENTS, READONLY
 13 .debug_info   00019a23  00000000  00000000  0000e2ac  2**0
                  CONTENTS, READONLY, DEBUGGING, OCTETS
 14 .debug_abbrev 00003cd4  00000000  00000000  00027ccf  2**0
                  CONTENTS, READONLY, DEBUGGING, OCTETS
 15 .debug_loclists 0000bff9  00000000  00000000  0002b9a3  2**0
                  CONTENTS, READONLY, DEBUGGING, OCTETS
 16 .debug_aranges 00000d88  00000000  00000000  000379a0  2**3
                  CONTENTS, READONLY, DEBUGGING, OCTETS
 17 .debug_rnglists 00000e98  00000000  00000000  00038728  2**0
                  CONTENTS, READONLY, DEBUGGING, OCTETS
 18 .debug_macro  0001b56f  00000000  00000000  000395c0  2**0
                  CONTENTS, READONLY, DEBUGGING, OCTETS
 19 .debug_line   00019643  00000000  00000000  00054b2f  2**0
                  CONTENTS, READONLY, DEBUGGING, OCTETS
 20 .debug_str    000a0fb3  00000000  00000000  0006e172  2**0
                  CONTENTS, READONLY, DEBUGGING, OCTETS
 21 .comment      00000043  00000000  00000000  0010f125  2**0
                  CONTENTS, READONLY
 22 .debug_frame  00003fa4  00000000  00000000  0010f168  2**2
                  CONTENTS, READONLY, DEBUGGING, OCTETS
 23 .debug_line_str 0000006c  00000000  00000000  0011310c  2**0
                  CONTENTS, READONLY, DEBUGGING, OCTETS

Disassembly of section .text:

08000190 <__do_global_dtors_aux>:
 8000190:	b510      	push	{r4, lr}
 8000192:	4c05      	ldr	r4, [pc, #20]	@ (80001a8 <__do_global_dtors_aux+0x18>)
 8000194:	7823      	ldrb	r3, [r4, #0]
 8000196:	b933      	cbnz	r3, 80001a6 <__do_global_dtors_aux+0x16>
 8000198:	4b04      	ldr	r3, [pc, #16]	@ (80001ac <__do_global_dtors_aux+0x1c>)
 800019a:	b113      	cbz	r3, 80001a2 <__do_global_dtors_aux+0x12>
 800019c:	4804      	ldr	r0, [pc, #16]	@ (80001b0 <__do_global_dtors_aux+0x20>)
 800019e:	f3af 8000 	nop.w
 80001a2:	2301      	movs	r3, #1
 80001a4:	7023      	strb	r3, [r4, #0]
 80001a6:	bd10      	pop	{r4, pc}
 80001a8:	20000280 	.word	0x20000280
 80001ac:	00000000 	.word	0x00000000
 80001b0:	0800c8d4 	.word	0x0800c8d4

080001b4 <frame_dummy>:
 80001b4:	b508      	push	{r3, lr}
 80001b6:	4b03      	ldr	r3, [pc, #12]	@ (80001c4 <frame_dummy+0x10>)
 80001b8:	b11b      	cbz	r3, 80001c2 <frame_dummy+0xe>
 80001ba:	4903      	ldr	r1, [pc, #12]	@ (80001c8 <frame_dummy+0x14>)
 80001bc:	4803      	ldr	r0, [pc, #12]	@ (80001cc <frame_dummy+0x18>)
 80001be:	f3af 8000 	nop.w
 80001c2:	bd08      	pop	{r3, pc}
 80001c4:	00000000 	.word	0x00000000
 80001c8:	20000284 	.word	0x20000284
 80001cc:	0800c8d4 	.word	0x0800c8d4

080001d0 <memchr>:
 80001d0:	f001 01ff 	and.w	r1, r1, #255	@ 0xff
 80001d4:	2a10      	cmp	r2, #16
 80001d6:	db2b      	blt.n	8000230 <memchr+0x60>
 80001d8:	f010 0f07 	tst.w	r0, #7
 80001dc:	d008      	beq.n	80001f0 <memchr+0x20>
 80001de:	f810 3b01 	ldrb.w	r3, [r0], #1
 80001e2:	3a01      	subs	r2, #1
 80001e4:	428b      	cmp	r3, r1
 80001e6:	d02d      	beq.n	8000244 <memchr+0x74>
 80001e8:	f010 0f07 	tst.w	r0, #7
 80001ec:	b342      	cbz	r2, 8000240 <memchr+0x70>
 80001ee:	d1f6      	bne.n	80001de <memchr+0xe>
 80001f0:	b4f0      	push	{r4, r5, r6, r7}
 80001f2:	ea41 2101 	orr.w	r1, r1, r1, lsl #8
 80001f6:	ea41 4101 	orr.w	r1, r1, r1, lsl #16
 80001fa:	f022 0407 	bic.w	r4, r2, #7
 80001fe:	f07f 0700 	mvns.w	r7, #0
 8000202:	2300      	movs	r3, #0
 8000204:	e8f0 5602 	ldrd	r5, r6, [r0], #8
 8000208:	3c08      	subs	r4, #8
 800020a:	ea85 0501 	eor.w	r5, r5, r1
 800020e:	ea86 0601 	eor.w	r6, r6, r1
 8000212:	fa85 f547 	uadd8	r5, r5, r7
 8000216:	faa3 f587 	sel	r5, r3, r7
 800021a:	fa86 f647 	uadd8	r6, r6, r7
 800021e:	faa5 f687 	sel	r6, r5, r7
 8000222:	b98e      	cbnz	r6, 8000248 <memchr+0x78>
 8000224:	d1ee      	bne.n	8000204 <memchr+0x34>
 8000226:	bcf0      	pop	{r4, r5, r6, r7}
 8000228:	f001 01ff 	and.w	r1, r1, #255	@ 0xff
 800022c:	f002 0207 	and.w	r2, r2, #7
 8000230:	b132      	cbz	r2, 8000240 <memchr+0x70>
 8000232:	f810 3b01 	ldrb.w	r3, [r0], #1
 8000236:	3a01      	subs	r2, #1
 8000238:	ea83 0301 	eor.w	r3, r3, r1
 800023c:	b113      	cbz	r3, 8000244 <memchr+0x74>
 800023e:	d1f8      	bne.n	8000232 <memchr+0x62>
 8000240:	2000      	movs	r0, #0
 8000242:	4770      	bx	lr
 8000244:	3801      	subs	r0, #1
 8000246:	4770      	bx	lr
 8000248:	2d00      	cmp	r5, #0
 800024a:	bf06      	itte	eq
 800024c:	4635      	moveq	r5, r6
 800024e:	3803      	subeq	r0, #3
 8000250:	3807      	subne	r0, #7
 8000252:	f015 0f01 	tst.w	r5, #1
 8000256:	d107      	bne.n	8000268 <memchr+0x98>
 8000258:	3001      	adds	r0, #1
 800025a:	f415 7f80 	tst.w	r5, #256	@ 0x100
 800025e:	bf02      	ittt	eq
 8000260:	3001      	addeq	r0, #1
 8000262:	f415 3fc0 	tsteq.w	r5, #98304	@ 0x18000
 8000266:	3001      	addeq	r0, #1
 8000268:	bcf0      	pop	{r4, r5, r6, r7}
 800026a:	3801      	subs	r0, #1
 800026c:	4770      	bx	lr
 800026e:	bf00      	nop

08000270 <strlen>:
 8000270:	4603      	mov	r3, r0
 8000272:	f813 2b01 	ldrb.w	r2, [r3], #1
 8000276:	2a00      	cmp	r2, #0
 8000278:	d1fb      	bne.n	8000272 <strlen+0x2>
 800027a:	1a18      	subs	r0, r3, r0
 800027c:	3801      	subs	r0, #1
 800027e:	4770      	bx	lr

08000280 <__aeabi_drsub>:
 8000280:	f081 4100 	eor.w	r1, r1, #2147483648	@ 0x80000000
 8000284:	e002      	b.n	800028c <__adddf3>
 8000286:	bf00      	nop

08000288 <__aeabi_dsub>:
 8000288:	f083 4300 	eor.w	r3, r3, #2147483648	@ 0x80000000

0800028c <__adddf3>:
 800028c:	b530      	push	{r4, r5, lr}
 800028e:	ea4f 0441 	mov.w	r4, r1, lsl #1
 8000292:	ea4f 0543 	mov.w	r5, r3, lsl #1
 8000296:	ea94 0f05 	teq	r4, r5
 800029a:	bf08      	it	eq
 800029c:	ea90 0f02 	teqeq	r0, r2
 80002a0:	bf1f      	itttt	ne
 80002a2:	ea54 0c00 	orrsne.w	ip, r4, r0
 80002a6:	ea55 0c02 	orrsne.w	ip, r5, r2
 80002aa:	ea7f 5c64 	mvnsne.w	ip, r4, asr #21
 80002ae:	ea7f 5c65 	mvnsne.w	ip, r5, asr #21
 80002b2:	f000 80e2 	beq.w	800047a <__adddf3+0x1ee>
 80002b6:	ea4f 5454 	mov.w	r4, r4, lsr #21
 80002ba:	ebd4 5555 	rsbs	r5, r4, r5, lsr #21
 80002be:	bfb8      	it	lt
 80002c0:	426d      	neglt	r5, r5
 80002c2:	dd0c      	ble.n	80002de <__adddf3+0x52>
 80002c4:	442c      	add	r4, r5
 80002c6:	ea80 0202 	eor.w	r2, r0, r2
 80002ca:	ea81 0303 	eor.w	r3, r1, r3
 80002ce:	ea82 0000 	eor.w	r0, r2, r0
 80002d2:	ea83 0101 	eor.w	r1, r3, r1
 80002d6:	ea80 0202 	eor.w	r2, r0, r2
 80002da:	ea81 0303 	eor.w	r3, r1, r3
 80002de:	2d36      	cmp	r5, #54	@ 0x36
 80002e0:	bf88      	it	hi
 80002e2:	bd30      	pophi	{r4, r5, pc}
 80002e4:	f011 4f00 	tst.w	r1, #2147483648	@ 0x80000000
 80002e8:	ea4f 3101 	mov.w	r1, r1, lsl #12
 80002ec:	f44f 1c80 	mov.w	ip, #1048576	@ 0x100000
 80002f0:	ea4c 3111 	orr.w	r1, ip, r1, lsr #12
 80002f4:	d002      	beq.n	80002fc <__adddf3+0x70>
 80002f6:	4240      	negs	r0, r0
 80002f8:	eb61 0141 	sbc.w	r1, r1, r1, lsl #1
 80002fc:	f013 4f00 	tst.w	r3, #2147483648	@ 0x80000000
 8000300:	ea4f 3303 	mov.w	r3, r3, lsl #12
 8000304:	ea4c 3313 	orr.w	r3, ip, r3, lsr #12
 8000308:	d002      	beq.n	8000310 <__adddf3+0x84>
 800030a:	4252      	negs	r2, r2
 800030c:	eb63 0343 	sbc.w	r3, r3, r3, lsl #1
 8000310:	ea94 0f05 	teq	r4, r5
 8000314:	f000 80a7 	beq.w	8000466 <__adddf3+0x1da>
 8000318:	f1a4 0401 	sub.w	r4, r4, #1
 800031c:	f1d5 0e20 	rsbs	lr, r5, #32
 8000320:	db0d      	blt.n	800033e <__adddf3+0xb2>
 8000322:	fa02 fc0e 	lsl.w	ip, r2, lr
 8000326:	fa22 f205 	lsr.w	r2, r2, r5
 800032a:	1880      	adds	r0, r0, r2
 800032c:	f141 0100 	adc.w	r1, r1, #0
 8000330:	fa03 f20e 	lsl.w	r2, r3, lr
 8000334:	1880      	adds	r0, r0, r2
 8000336:	fa43 f305 	asr.w	r3, r3, r5
 800033a:	4159      	adcs	r1, r3
 800033c:	e00e      	b.n	800035c <__adddf3+0xd0>
 800033e:	f1a5 0520 	sub.w	r5, r5, #32
 8000342:	f10e 0e20 	add.w	lr, lr, #32
 8000346:	2a01      	cmp	r2, #1
 8000348:	fa03 fc0e 	lsl.w	ip, r3, lr
 800034c:	bf28      	it	cs
 800034e:	f04c 0c02 	orrcs.w	ip, ip, #2
 8000352:	fa43 f305 	asr.w	r3, r3, r5
 8000356:	18c0      	adds	r0, r0, r3
 8000358:	eb51 71e3 	adcs.w	r1, r1, r3, asr #31
 800035c:	f001 4500 	and.w	r5, r1, #2147483648	@ 0x80000000
 8000360:	d507      	bpl.n	8000372 <__adddf3+0xe6>
 8000362:	f04f 0e00 	mov.w	lr, #0
 8000366:	f1dc 0c00 	rsbs	ip, ip, #0
 800036a:	eb7e 0000 	sbcs.w	r0, lr, r0
 800036e:	eb6e 0101 	sbc.w	r1, lr, r1
 8000372:	f5b1 1f80 	cmp.w	r1, #1048576	@ 0x100000
 8000376:	d31b      	bcc.n	80003b0 <__adddf3+0x124>
 8000378:	f5b1 1f00 	cmp.w	r1, #2097152	@ 0x200000
 800037c:	d30c      	bcc.n	8000398 <__adddf3+0x10c>
 800037e:	0849      	lsrs	r1, r1, #1
 8000380:	ea5f 0030 	movs.w	r0, r0, rrx
 8000384:	ea4f 0c3c 	mov.w	ip, ip, rrx
 8000388:	f104 0401 	add.w	r4, r4, #1
 800038c:	ea4f 5244 	mov.w	r2, r4, lsl #21
 8000390:	f512 0f80 	cmn.w	r2, #4194304	@ 0x400000
 8000394:	f080 809a 	bcs.w	80004cc <__adddf3+0x240>
 8000398:	f1bc 4f00 	cmp.w	ip, #2147483648	@ 0x80000000
 800039c:	bf08      	it	eq
 800039e:	ea5f 0c50 	movseq.w	ip, r0, lsr #1
 80003a2:	f150 0000 	adcs.w	r0, r0, #0
 80003a6:	eb41 5104 	adc.w	r1, r1, r4, lsl #20
 80003aa:	ea41 0105 	orr.w	r1, r1, r5
 80003ae:	bd30      	pop	{r4, r5, pc}
 80003b0:	ea5f 0c4c 	movs.w	ip, ip, lsl #1
 80003b4:	4140      	adcs	r0, r0
 80003b6:	eb41 0101 	adc.w	r1, r1, r1
 80003ba:	3c01      	subs	r4, #1
 80003bc:	bf28      	it	cs
 80003be:	f5b1 1f80 	cmpcs.w	r1, #1048576	@ 0x100000
 80003c2:	d2e9      	bcs.n	8000398 <__adddf3+0x10c>
 80003c4:	f091 0f00 	teq	r1, #0
 80003c8:	bf04      	itt	eq
 80003ca:	4601      	moveq	r1, r0
 80003cc:	2000      	moveq	r0, #0
 80003ce:	fab1 f381 	clz	r3, r1
 80003d2:	bf08      	it	eq
 80003d4:	3320      	addeq	r3, #32
 80003d6:	f1a3 030b 	sub.w	r3, r3, #11
 80003da:	f1b3 0220 	subs.w	r2, r3, #32
 80003de:	da0c      	bge.n	80003fa <__adddf3+0x16e>
 80003e0:	320c      	adds	r2, #12
 80003e2:	dd08      	ble.n	80003f6 <__adddf3+0x16a>
 80003e4:	f102 0c14 	add.w	ip, r2, #20
 80003e8:	f1c2 020c 	rsb	r2, r2, #12
 80003ec:	fa01 f00c 	lsl.w	r0, r1, ip
 80003f0:	fa21 f102 	lsr.w	r1, r1, r2
 80003f4:	e00c      	b.n	8000410 <__adddf3+0x184>
 80003f6:	f102 0214 	add.w	r2, r2, #20
 80003fa:	bfd8      	it	le
 80003fc:	f1c2 0c20 	rsble	ip, r2, #32
 8000400:	fa01 f102 	lsl.w	r1, r1, r2
 8000404:	fa20 fc0c 	lsr.w	ip, r0, ip
 8000408:	bfdc      	itt	le
 800040a:	ea41 010c 	orrle.w	r1, r1, ip
 800040e:	4090      	lslle	r0, r2
 8000410:	1ae4      	subs	r4, r4, r3
 8000412:	bfa2      	ittt	ge
 8000414:	eb01 5104 	addge.w	r1, r1, r4, lsl #20
 8000418:	4329      	orrge	r1, r5
 800041a:	bd30      	popge	{r4, r5, pc}
 800041c:	ea6f 0404 	mvn.w	r4, r4
 8000420:	3c1f      	subs	r4, #31
 8000422:	da1c      	bge.n	800045e <__adddf3+0x1d2>
 8000424:	340c      	adds	r4, #12
 8000426:	dc0e      	bgt.n	8000446 <__adddf3+0x1ba>
 8000428:	f104 0414 	add.w	r4, r4, #20
 800042c:	f1c4 0220 	rsb	r2, r4, #32
 8000430:	fa20 f004 	lsr.w	r0, r0, r4
 8000434:	fa01 f302 	lsl.w	r3, r1, r2
 8000438:	ea40 0003 	orr.w	r0, r0, r3
 800043c:	fa21 f304 	lsr.w	r3, r1, r4
 8000440:	ea45 0103 	orr.w	r1, r5, r3
 8000444:	bd30      	pop	{r4, r5, pc}
 8000446:	f1c4 040c 	rsb	r4, r4, #12
 800044a:	f1c4 0220 	rsb	r2, r4, #32
 800044e:	fa20 f002 	lsr.w	r0, r0, r2
 8000452:	fa01 f304 	lsl.w	r3, r1, r4
 8000456:	ea40 0003 	orr.w	r0, r0, r3
 800045a:	4629      	mov	r1, r5
 800045c:	bd30      	pop	{r4, r5, pc}
 800045e:	fa21 f004 	lsr.w	r0, r1, r4
 8000462:	4629      	mov	r1, r5
 8000464:	bd30      	pop	{r4, r5, pc}
 8000466:	f094 0f00 	teq	r4, #0
 800046a:	f483 1380 	eor.w	r3, r3, #1048576	@ 0x100000
 800046e:	bf06      	itte	eq
 8000470:	f481 1180 	eoreq.w	r1, r1, #1048576	@ 0x100000
 8000474:	3401      	addeq	r4, #1
 8000476:	3d01      	subne	r5, #1
 8000478:	e74e      	b.n	8000318 <__adddf3+0x8c>
 800047a:	ea7f 5c64 	mvns.w	ip, r4, asr #21
 800047e:	bf18      	it	ne
 8000480:	ea7f 5c65 	mvnsne.w	ip, r5, asr #21
 8000484:	d029      	beq.n	80004da <__adddf3+0x24e>
 8000486:	ea94 0f05 	teq	r4, r5
 800048a:	bf08      	it	eq
 800048c:	ea90 0f02 	teqeq	r0, r2
 8000490:	d005      	beq.n	800049e <__adddf3+0x212>
 8000492:	ea54 0c00 	orrs.w	ip, r4, r0
 8000496:	bf04      	itt	eq
 8000498:	4619      	moveq	r1, r3
 800049a:	4610      	moveq	r0, r2
 800049c:	bd30      	pop	{r4, r5, pc}
 800049e:	ea91 0f03 	teq	r1, r3
 80004a2:	bf1e      	ittt	ne
 80004a4:	2100      	movne	r1, #0
 80004a6:	2000      	movne	r0, #0
 80004a8:	bd30      	popne	{r4, r5, pc}
 80004aa:	ea5f 5c54 	movs.w	ip, r4, lsr #21
 80004ae:	d105      	bne.n	80004bc <__adddf3+0x230>
 80004b0:	0040      	lsls	r0, r0, #1
 80004b2:	4149      	adcs	r1, r1
 80004b4:	bf28      	it	cs
 80004b6:	f041 4100 	orrcs.w	r1, r1, #2147483648	@ 0x80000000
 80004ba:	bd30      	pop	{r4, r5, pc}
 80004bc:	f514 0480 	adds.w	r4, r4, #4194304	@ 0x400000
 80004c0:	bf3c      	itt	cc
 80004c2:	f501 1180 	addcc.w	r1, r1, #1048576	@ 0x100000
 80004c6:	bd30      	popcc	{r4, r5, pc}
 80004c8:	f001 4500 	and.w	r5, r1, #2147483648	@ 0x80000000
 80004cc:	f045 41fe 	orr.w	r1, r5, #2130706432	@ 0x7f000000
 80004d0:	f441 0170 	orr.w	r1, r1, #15728640	@ 0xf00000
 80004d4:	f04f 0000 	mov.w	r0, #0
 80004d8:	bd30      	pop	{r4, r5, pc}
 80004da:	ea7f 5c64 	mvns.w	ip, r4, asr #21
 80004de:	bf1a      	itte	ne
 80004e0:	4619      	movne	r1, r3
 80004e2:	4610      	movne	r0, r2
 80004e4:	ea7f 5c65 	mvnseq.w	ip, r5, asr #21
 80004e8:	bf1c      	itt	ne
 80004ea:	460b      	movne	r3, r1
 80004ec:	4602      	movne	r2, r0
 80004ee:	ea50 3401 	orrs.w	r4, r0, r1, lsl #12
 80004f2:	bf06      	itte	eq
 80004f4:	ea52 3503 	orrseq.w	r5, r2, r3, lsl #12
 80004f8:	ea91 0f03 	teqeq	r1, r3
 80004fc:	f441 2100 	orrne.w	r1, r1, #524288	@ 0x80000
 8000500:	bd30      	pop	{r4, r5, pc}
 8000502:	bf00      	nop

08000504 <__aeabi_ui2d>:
 8000504:	f090 0f00 	teq	r0, #0
 8000508:	bf04      	itt	eq
 800050a:	2100      	moveq	r1, #0
 800050c:	4770      	bxeq	lr
 800050e:	b530      	push	{r4, r5, lr}
 8000510:	f44f 6480 	mov.w	r4, #1024	@ 0x400
 8000514:	f104 0432 	add.w	r4, r4, #50	@ 0x32
 8000518:	f04f 0500 	mov.w	r5, #0
 800051c:	f04f 0100 	mov.w	r1, #0
 8000520:	e750      	b.n	80003c4 <__adddf3+0x138>
 8000522:	bf00      	nop

08000524 <__aeabi_i2d>:
 8000524:	f090 0f00 	teq	r0, #0
 8000528:	bf04      	itt	eq
 800052a:	2100      	moveq	r1, #0
 800052c:	4770      	bxeq	lr
 800052e:	b530      	push	{r4, r5, lr}
 8000530:	f44f 6480 	mov.w	r4, #1024	@ 0x400
 8000534:	f104 0432 	add.w	r4, r4, #50	@ 0x32
 8000538:	f010 4500 	ands.w	r5, r0, #2147483648	@ 0x80000000
 800053c:	bf48      	it	mi
 800053e:	4240      	negmi	r0, r0
 8000540:	f04f 0100 	mov.w	r1, #0
 8000544:	e73e      	b.n	80003c4 <__adddf3+0x138>
 8000546:	bf00      	nop

08000548 <__aeabi_f2d>:
 8000548:	0042      	lsls	r2, r0, #1
 800054a:	ea4f 01e2 	mov.w	r1, r2, asr #3
 800054e:	ea4f 0131 	mov.w	r1, r1, rrx
 8000552:	ea4f 7002 	mov.w	r0, r2, lsl #28
 8000556:	bf1f      	itttt	ne
 8000558:	f012 437f 	andsne.w	r3, r2, #4278190080	@ 0xff000000
 800055c:	f093 4f7f 	teqne	r3, #4278190080	@ 0xff000000
 8000560:	f081 5160 	eorne.w	r1, r1, #939524096	@ 0x38000000
 8000564:	4770      	bxne	lr
 8000566:	f032 427f 	bics.w	r2, r2, #4278190080	@ 0xff000000
 800056a:	bf08      	it	eq
 800056c:	4770      	bxeq	lr
 800056e:	f093 4f7f 	teq	r3, #4278190080	@ 0xff000000
 8000572:	bf04      	itt	eq
 8000574:	f441 2100 	orreq.w	r1, r1, #524288	@ 0x80000
 8000578:	4770      	bxeq	lr
 800057a:	b530      	push	{r4, r5, lr}
 800057c:	f44f 7460 	mov.w	r4, #896	@ 0x380
 8000580:	f001 4500 	and.w	r5, r1, #2147483648	@ 0x80000000
 8000584:	f021 4100 	bic.w	r1, r1, #2147483648	@ 0x80000000
 8000588:	e71c      	b.n	80003c4 <__adddf3+0x138>
 800058a:	bf00      	nop

0800058c <__aeabi_ul2d>:
 800058c:	ea50 0201 	orrs.w	r2, r0, r1
 8000590:	bf08      	it	eq
 8000592:	4770      	bxeq	lr
 8000594:	b530      	push	{r4, r5, lr}
 8000596:	f04f 0500 	mov.w	r5, #0
 800059a:	e00a      	b.n	80005b2 <__aeabi_l2d+0x16>

0800059c <__aeabi_l2d>:
 800059c:	ea50 0201 	orrs.w	r2, r0, r1
 80005a0:	bf08      	it	eq
 80005a2:	4770      	bxeq	lr
 80005a4:	b530      	push	{r4, r5, lr}
 80005a6:	f011 4500 	ands.w	r5, r1, #2147483648	@ 0x80000000
 80005aa:	d502      	bpl.n	80005b2 <__aeabi_l2d+0x16>
 80005ac:	4240      	negs	r0, r0
 80005ae:	eb61 0141 	sbc.w	r1, r1, r1, lsl #1
 80005b2:	f44f 6480 	mov.w	r4, #1024	@ 0x400
 80005b6:	f104 0432 	add.w	r4, r4, #50	@ 0x32
 80005ba:	ea5f 5c91 	movs.w	ip, r1, lsr #22
 80005be:	f43f aed8 	beq.w	8000372 <__adddf3+0xe6>
 80005c2:	f04f 0203 	mov.w	r2, #3
 80005c6:	ea5f 0cdc 	movs.w	ip, ip, lsr #3
 80005ca:	bf18      	it	ne
 80005cc:	3203      	addne	r2, #3
 80005ce:	ea5f 0cdc 	movs.w	ip, ip, lsr #3
 80005d2:	bf18      	it	ne
 80005d4:	3203      	addne	r2, #3
 80005d6:	eb02 02dc 	add.w	r2, r2, ip, lsr #3
 80005da:	f1c2 0320 	rsb	r3, r2, #32
 80005de:	fa00 fc03 	lsl.w	ip, r0, r3
 80005e2:	fa20 f002 	lsr.w	r0, r0, r2
 80005e6:	fa01 fe03 	lsl.w	lr, r1, r3
 80005ea:	ea40 000e 	orr.w	r0, r0, lr
 80005ee:	fa21 f102 	lsr.w	r1, r1, r2
 80005f2:	4414      	add	r4, r2
 80005f4:	e6bd      	b.n	8000372 <__adddf3+0xe6>
 80005f6:	bf00      	nop

080005f8 <__aeabi_dmul>:
 80005f8:	b570      	push	{r4, r5, r6, lr}
 80005fa:	f04f 0cff 	mov.w	ip, #255	@ 0xff
 80005fe:	f44c 6ce0 	orr.w	ip, ip, #1792	@ 0x700
 8000602:	ea1c 5411 	ands.w	r4, ip, r1, lsr #20
 8000606:	bf1d      	ittte	ne
 8000608:	ea1c 5513 	andsne.w	r5, ip, r3, lsr #20
 800060c:	ea94 0f0c 	teqne	r4, ip
 8000610:	ea95 0f0c 	teqne	r5, ip
 8000614:	f000 f8de 	bleq	80007d4 <__aeabi_dmul+0x1dc>
 8000618:	442c      	add	r4, r5
 800061a:	ea81 0603 	eor.w	r6, r1, r3
 800061e:	ea21 514c 	bic.w	r1, r1, ip, lsl #21
 8000622:	ea23 534c 	bic.w	r3, r3, ip, lsl #21
 8000626:	ea50 3501 	orrs.w	r5, r0, r1, lsl #12
 800062a:	bf18      	it	ne
 800062c:	ea52 3503 	orrsne.w	r5, r2, r3, lsl #12
 8000630:	f441 1180 	orr.w	r1, r1, #1048576	@ 0x100000
 8000634:	f443 1380 	orr.w	r3, r3, #1048576	@ 0x100000
 8000638:	d038      	beq.n	80006ac <__aeabi_dmul+0xb4>
 800063a:	fba0 ce02 	umull	ip, lr, r0, r2
 800063e:	f04f 0500 	mov.w	r5, #0
 8000642:	fbe1 e502 	umlal	lr, r5, r1, r2
 8000646:	f006 4200 	and.w	r2, r6, #2147483648	@ 0x80000000
 800064a:	fbe0 e503 	umlal	lr, r5, r0, r3
 800064e:	f04f 0600 	mov.w	r6, #0
 8000652:	fbe1 5603 	umlal	r5, r6, r1, r3
 8000656:	f09c 0f00 	teq	ip, #0
 800065a:	bf18      	it	ne
 800065c:	f04e 0e01 	orrne.w	lr, lr, #1
 8000660:	f1a4 04ff 	sub.w	r4, r4, #255	@ 0xff
 8000664:	f5b6 7f00 	cmp.w	r6, #512	@ 0x200
 8000668:	f564 7440 	sbc.w	r4, r4, #768	@ 0x300
 800066c:	d204      	bcs.n	8000678 <__aeabi_dmul+0x80>
 800066e:	ea5f 0e4e 	movs.w	lr, lr, lsl #1
 8000672:	416d      	adcs	r5, r5
 8000674:	eb46 0606 	adc.w	r6, r6, r6
 8000678:	ea42 21c6 	orr.w	r1, r2, r6, lsl #11
 800067c:	ea41 5155 	orr.w	r1, r1, r5, lsr #21
 8000680:	ea4f 20c5 	mov.w	r0, r5, lsl #11
 8000684:	ea40 505e 	orr.w	r0, r0, lr, lsr #21
 8000688:	ea4f 2ece 	mov.w	lr, lr, lsl #11
 800068c:	f1b4 0cfd 	subs.w	ip, r4, #253	@ 0xfd
 8000690:	bf88      	it	hi
 8000692:	f5bc 6fe0 	cmphi.w	ip, #1792	@ 0x700
 8000696:	d81e      	bhi.n	80006d6 <__aeabi_dmul+0xde>
 8000698:	f1be 4f00 	cmp.w	lr, #2147483648	@ 0x80000000
 800069c:	bf08      	it	eq
 800069e:	ea5f 0e50 	movseq.w	lr, r0, lsr #1
 80006a2:	f150 0000 	adcs.w	r0, r0, #0
 80006a6:	eb41 5104 	adc.w	r1, r1, r4, lsl #20
 80006aa:	bd70      	pop	{r4, r5, r6, pc}
 80006ac:	f006 4600 	and.w	r6, r6, #2147483648	@ 0x80000000
 80006b0:	ea46 0101 	orr.w	r1, r6, r1
 80006b4:	ea40 0002 	orr.w	r0, r0, r2
 80006b8:	ea81 0103 	eor.w	r1, r1, r3
 80006bc:	ebb4 045c 	subs.w	r4, r4, ip, lsr #1
 80006c0:	bfc2      	ittt	gt
 80006c2:	ebd4 050c 	rsbsgt	r5, r4, ip
 80006c6:	ea41 5104 	orrgt.w	r1, r1, r4, lsl #20
 80006ca:	bd70      	popgt	{r4, r5, r6, pc}
 80006cc:	f441 1180 	orr.w	r1, r1, #1048576	@ 0x100000
 80006d0:	f04f 0e00 	mov.w	lr, #0
 80006d4:	3c01      	subs	r4, #1
 80006d6:	f300 80ab 	bgt.w	8000830 <__aeabi_dmul+0x238>
 80006da:	f114 0f36 	cmn.w	r4, #54	@ 0x36
 80006de:	bfde      	ittt	le
 80006e0:	2000      	movle	r0, #0
 80006e2:	f001 4100 	andle.w	r1, r1, #2147483648	@ 0x80000000
 80006e6:	bd70      	pople	{r4, r5, r6, pc}
 80006e8:	f1c4 0400 	rsb	r4, r4, #0
 80006ec:	3c20      	subs	r4, #32
 80006ee:	da35      	bge.n	800075c <__aeabi_dmul+0x164>
 80006f0:	340c      	adds	r4, #12
 80006f2:	dc1b      	bgt.n	800072c <__aeabi_dmul+0x134>
 80006f4:	f104 0414 	add.w	r4, r4, #20
 80006f8:	f1c4 0520 	rsb	r5, r4, #32
 80006fc:	fa00 f305 	lsl.w	r3, r0, r5
 8000700:	fa20 f004 	lsr.w	r0, r0, r4
 8000704:	fa01 f205 	lsl.w	r2, r1, r5
 8000708:	ea40 0002 	orr.w	r0, r0, r2
 800070c:	f001 4200 	and.w	r2, r1, #2147483648	@ 0x80000000
 8000710:	f021 4100 	bic.w	r1, r1, #2147483648	@ 0x80000000
 8000714:	eb10 70d3 	adds.w	r0, r0, r3, lsr #31
 8000718:	fa21 f604 	lsr.w	r6, r1, r4
 800071c:	eb42 0106 	adc.w	r1, r2, r6
 8000720:	ea5e 0e43 	orrs.w	lr, lr, r3, lsl #1
 8000724:	bf08      	it	eq
 8000726:	ea20 70d3 	biceq.w	r0, r0, r3, lsr #31
 800072a:	bd70      	pop	{r4, r5, r6, pc}
 800072c:	f1c4 040c 	rsb	r4, r4, #12
 8000730:	f1c4 0520 	rsb	r5, r4, #32
 8000734:	fa00 f304 	lsl.w	r3, r0, r4
 8000738:	fa20 f005 	lsr.w	r0, r0, r5
 800073c:	fa01 f204 	lsl.w	r2, r1, r4
 8000740:	ea40 0002 	orr.w	r0, r0, r2
 8000744:	f001 4100 	and.w	r1, r1, #2147483648	@ 0x80000000
 8000748:	eb10 70d3 	adds.w	r0, r0, r3, lsr #31
 800074c:	f141 0100 	adc.w	r1, r1, #0
 8000750:	ea5e 0e43 	orrs.w	lr, lr, r3, lsl #1
 8000754:	bf08      	it	eq
 8000756:	ea20 70d3 	biceq.w	r0, r0, r3, lsr #31
 800075a:	bd70      	pop	{r4, r5, r6, pc}
 800075c:	f1c4 0520 	rsb	r5, r4, #32
 8000760:	fa00 f205 	lsl.w	r2, r0, r5
 8000764:	ea4e 0e02 	orr.w	lr, lr, r2
 8000768:	fa20 f304 	lsr.w	r3, r0, r4
 800076c:	fa01 f205 	lsl.w	r2, r1, r5
 8000770:	ea43 0302 	orr.w	r3, r3, r2
 8000774:	fa21 f004 	lsr.w	r0, r1, r4
 8000778:	f001 4100 	and.w	r1, r1, #2147483648	@ 0x80000000
 800077c:	fa21 f204 	lsr.w	r2, r1, r4
 8000780:	ea20 0002 	bic.w	r0, r0, r2
 8000784:	eb00 70d3 	add.w	r0, r0, r3, lsr #31
 8000788:	ea5e 0e43 	orrs.w	lr, lr, r3, lsl #1
 800078c:	bf08      	it	eq
 800078e:	ea20 70d3 	biceq.w	r0, r0, r3, lsr #31
 8000792:	bd70      	pop	{r4, r5, r6, pc}
 8000794:	f094 0f00 	teq	r4, #0
 8000798:	d10f      	bne.n	80007ba <__aeabi_dmul+0x1c2>
 800079a:	f001 4600 	and.w	r6, r1, #2147483648	@ 0x80000000
 800079e:	0040      	lsls	r0, r0, #1
 80007a0:	eb41 0101 	adc.w	r1, r1, r1
 80007a4:	f411 1f80 	tst.w	r1, #1048576	@ 0x100000
 80007a8:	bf08      	it	eq
 80007aa:	3c01      	subeq	r4, #1
 80007ac:	d0f7      	beq.n	800079e <__aeabi_dmul+0x1a6>
 80007ae:	ea41 0106 	orr.w	r1, r1, r6
 80007b2:	f095 0f00 	teq	r5, #0
 80007b6:	bf18      	it	ne
 80007b8:	4770      	bxne	lr
 80007ba:	f003 4600 	and.w	r6, r3, #2147483648	@ 0x80000000
 80007be:	0052      	lsls	r2, r2, #1
 80007c0:	eb43 0303 	adc.w	r3, r3, r3
 80007c4:	f413 1f80 	tst.w	r3, #1048576	@ 0x100000
 80007c8:	bf08      	it	eq
 80007ca:	3d01      	subeq	r5, #1
 80007cc:	d0f7      	beq.n	80007be <__aeabi_dmul+0x1c6>
 80007ce:	ea43 0306 	orr.w	r3, r3, r6
 80007d2:	4770      	bx	lr
 80007d4:	ea94 0f0c 	teq	r4, ip
 80007d8:	ea0c 5513 	and.w	r5, ip, r3, lsr #20
 80007dc:	bf18      	it	ne
 80007de:	ea95 0f0c 	teqne	r5, ip
 80007e2:	d00c      	beq.n	80007fe <__aeabi_dmul+0x206>
 80007e4:	ea50 0641 	orrs.w	r6, r0, r1, lsl #1
 80007e8:	bf18      	it	ne
 80007ea:	ea52 0643 	orrsne.w	r6, r2, r3, lsl #1
 80007ee:	d1d1      	bne.n	8000794 <__aeabi_dmul+0x19c>
 80007f0:	ea81 0103 	eor.w	r1, r1, r3
 80007f4:	f001 4100 	and.w	r1, r1, #2147483648	@ 0x80000000
 80007f8:	f04f 0000 	mov.w	r0, #0
 80007fc:	bd70      	pop	{r4, r5, r6, pc}
 80007fe:	ea50 0641 	orrs.w	r6, r0, r1, lsl #1
 8000802:	bf06      	itte	eq
 8000804:	4610      	moveq	r0, r2
 8000806:	4619      	moveq	r1, r3
 8000808:	ea52 0643 	orrsne.w	r6, r2, r3, lsl #1
 800080c:	d019      	beq.n	8000842 <__aeabi_dmul+0x24a>
 800080e:	ea94 0f0c 	teq	r4, ip
 8000812:	d102      	bne.n	800081a <__aeabi_dmul+0x222>
 8000814:	ea50 3601 	orrs.w	r6, r0, r1, lsl #12
 8000818:	d113      	bne.n	8000842 <__aeabi_dmul+0x24a>
 800081a:	ea95 0f0c 	teq	r5, ip
 800081e:	d105      	bne.n	800082c <__aeabi_dmul+0x234>
 8000820:	ea52 3603 	orrs.w	r6, r2, r3, lsl #12
 8000824:	bf1c      	itt	ne
 8000826:	4610      	movne	r0, r2
 8000828:	4619      	movne	r1, r3
 800082a:	d10a      	bne.n	8000842 <__aeabi_dmul+0x24a>
 800082c:	ea81 0103 	eor.w	r1, r1, r3
 8000830:	f001 4100 	and.w	r1, r1, #2147483648	@ 0x80000000
 8000834:	f041 41fe 	orr.w	r1, r1, #2130706432	@ 0x7f000000
 8000838:	f441 0170 	orr.w	r1, r1, #15728640	@ 0xf00000
 800083c:	f04f 0000 	mov.w	r0, #0
 8000840:	bd70      	pop	{r4, r5, r6, pc}
 8000842:	f041 41fe 	orr.w	r1, r1, #2130706432	@ 0x7f000000
 8000846:	f441 0178 	orr.w	r1, r1, #16252928	@ 0xf80000
 800084a:	bd70      	pop	{r4, r5, r6, pc}

0800084c <__aeabi_ddiv>:
 800084c:	b570      	push	{r4, r5, r6, lr}
 800084e:	f04f 0cff 	mov.w	ip, #255	@ 0xff
 8000852:	f44c 6ce0 	orr.w	ip, ip, #1792	@ 0x700
 8000856:	ea1c 5411 	ands.w	r4, ip, r1, lsr #20
 800085a:	bf1d      	ittte	ne
 800085c:	ea1c 5513 	andsne.w	r5, ip, r3, lsr #20
 8000860:	ea94 0f0c 	teqne	r4, ip
 8000864:	ea95 0f0c 	teqne	r5, ip
 8000868:	f000 f8a7 	bleq	80009ba <__aeabi_ddiv+0x16e>
 800086c:	eba4 0405 	sub.w	r4, r4, r5
 8000870:	ea81 0e03 	eor.w	lr, r1, r3
 8000874:	ea52 3503 	orrs.w	r5, r2, r3, lsl #12
 8000878:	ea4f 3101 	mov.w	r1, r1, lsl #12
 800087c:	f000 8088 	beq.w	8000990 <__aeabi_ddiv+0x144>
 8000880:	ea4f 3303 	mov.w	r3, r3, lsl #12
 8000884:	f04f 5580 	mov.w	r5, #268435456	@ 0x10000000
 8000888:	ea45 1313 	orr.w	r3, r5, r3, lsr #4
 800088c:	ea43 6312 	orr.w	r3, r3, r2, lsr #24
 8000890:	ea4f 2202 	mov.w	r2, r2, lsl #8
 8000894:	ea45 1511 	orr.w	r5, r5, r1, lsr #4
 8000898:	ea45 6510 	orr.w	r5, r5, r0, lsr #24
 800089c:	ea4f 2600 	mov.w	r6, r0, lsl #8
 80008a0:	f00e 4100 	and.w	r1, lr, #2147483648	@ 0x80000000
 80008a4:	429d      	cmp	r5, r3
 80008a6:	bf08      	it	eq
 80008a8:	4296      	cmpeq	r6, r2
 80008aa:	f144 04fd 	adc.w	r4, r4, #253	@ 0xfd
 80008ae:	f504 7440 	add.w	r4, r4, #768	@ 0x300
 80008b2:	d202      	bcs.n	80008ba <__aeabi_ddiv+0x6e>
 80008b4:	085b      	lsrs	r3, r3, #1
 80008b6:	ea4f 0232 	mov.w	r2, r2, rrx
 80008ba:	1ab6      	subs	r6, r6, r2
 80008bc:	eb65 0503 	sbc.w	r5, r5, r3
 80008c0:	085b      	lsrs	r3, r3, #1
 80008c2:	ea4f 0232 	mov.w	r2, r2, rrx
 80008c6:	f44f 1080 	mov.w	r0, #1048576	@ 0x100000
 80008ca:	f44f 2c00 	mov.w	ip, #524288	@ 0x80000
 80008ce:	ebb6 0e02 	subs.w	lr, r6, r2
 80008d2:	eb75 0e03 	sbcs.w	lr, r5, r3
 80008d6:	bf22      	ittt	cs
 80008d8:	1ab6      	subcs	r6, r6, r2
 80008da:	4675      	movcs	r5, lr
 80008dc:	ea40 000c 	orrcs.w	r0, r0, ip
 80008e0:	085b      	lsrs	r3, r3, #1
 80008e2:	ea4f 0232 	mov.w	r2, r2, rrx
 80008e6:	ebb6 0e02 	subs.w	lr, r6, r2
 80008ea:	eb75 0e03 	sbcs.w	lr, r5, r3
 80008ee:	bf22      	ittt	cs
 80008f0:	1ab6      	subcs	r6, r6, r2
 80008f2:	4675      	movcs	r5, lr
 80008f4:	ea40 005c 	orrcs.w	r0, r0, ip, lsr #1
 80008f8:	085b      	lsrs	r3, r3, #1
 80008fa:	ea4f 0232 	mov.w	r2, r2, rrx
 80008fe:	ebb6 0e02 	subs.w	lr, r6, r2
 8000902:	eb75 0e03 	sbcs.w	lr, r5, r3
 8000906:	bf22      	ittt	cs
 8000908:	1ab6      	subcs	r6, r6, r2
 800090a:	4675      	movcs	r5, lr
 800090c:	ea40 009c 	orrcs.w	r0, r0, ip, lsr #2
 8000910:	085b      	lsrs	r3, r3, #1
 8000912:	ea4f 0232 	mov.w	r2, r2, rrx
 8000916:	ebb6 0e02 	subs.w	lr, r6, r2
 800091a:	eb75 0e03 	sbcs.w	lr, r5, r3
 800091e:	bf22      	ittt	cs
 8000920:	1ab6      	subcs	r6, r6, r2
 8000922:	4675      	movcs	r5, lr
 8000924:	ea40 00dc 	orrcs.w	r0, r0, ip, lsr #3
 8000928:	ea55 0e06 	orrs.w	lr, r5, r6
 800092c:	d018      	beq.n	8000960 <__aeabi_ddiv+0x114>
 800092e:	ea4f 1505 	mov.w	r5, r5, lsl #4
 8000932:	ea45 7516 	orr.w	r5, r5, r6, lsr #28
 8000936:	ea4f 1606 	mov.w	r6, r6, lsl #4
 800093a:	ea4f 03c3 	mov.w	r3, r3, lsl #3
 800093e:	ea43 7352 	orr.w	r3, r3, r2, lsr #29
 8000942:	ea4f 02c2 	mov.w	r2, r2, lsl #3
 8000946:	ea5f 1c1c 	movs.w	ip, ip, lsr #4
 800094a:	d1c0      	bne.n	80008ce <__aeabi_ddiv+0x82>
 800094c:	f411 1f80 	tst.w	r1, #1048576	@ 0x100000
 8000950:	d10b      	bne.n	800096a <__aeabi_ddiv+0x11e>
 8000952:	ea41 0100 	orr.w	r1, r1, r0
 8000956:	f04f 0000 	mov.w	r0, #0
 800095a:	f04f 4c00 	mov.w	ip, #2147483648	@ 0x80000000
 800095e:	e7b6      	b.n	80008ce <__aeabi_ddiv+0x82>
 8000960:	f411 1f80 	tst.w	r1, #1048576	@ 0x100000
 8000964:	bf04      	itt	eq
 8000966:	4301      	orreq	r1, r0
 8000968:	2000      	moveq	r0, #0
 800096a:	f1b4 0cfd 	subs.w	ip, r4, #253	@ 0xfd
 800096e:	bf88      	it	hi
 8000970:	f5bc 6fe0 	cmphi.w	ip, #1792	@ 0x700
 8000974:	f63f aeaf 	bhi.w	80006d6 <__aeabi_dmul+0xde>
 8000978:	ebb5 0c03 	subs.w	ip, r5, r3
 800097c:	bf04      	itt	eq
 800097e:	ebb6 0c02 	subseq.w	ip, r6, r2
 8000982:	ea5f 0c50 	movseq.w	ip, r0, lsr #1
 8000986:	f150 0000 	adcs.w	r0, r0, #0
 800098a:	eb41 5104 	adc.w	r1, r1, r4, lsl #20
 800098e:	bd70      	pop	{r4, r5, r6, pc}
 8000990:	f00e 4e00 	and.w	lr, lr, #2147483648	@ 0x80000000
 8000994:	ea4e 3111 	orr.w	r1, lr, r1, lsr #12
 8000998:	eb14 045c 	adds.w	r4, r4, ip, lsr #1
 800099c:	bfc2      	ittt	gt
 800099e:	ebd4 050c 	rsbsgt	r5, r4, ip
 80009a2:	ea41 5104 	orrgt.w	r1, r1, r4, lsl #20
 80009a6:	bd70      	popgt	{r4, r5, r6, pc}
 80009a8:	f441 1180 	orr.w	r1, r1, #1048576	@ 0x100000
 80009ac:	f04f 0e00 	mov.w	lr, #0
 80009b0:	3c01      	subs	r4, #1
 80009b2:	e690      	b.n	80006d6 <__aeabi_dmul+0xde>
 80009b4:	ea45 0e06 	orr.w	lr, r5, r6
 80009b8:	e68d      	b.n	80006d6 <__aeabi_dmul+0xde>
 80009ba:	ea0c 5513 	and.w	r5, ip, r3, lsr #20
 80009be:	ea94 0f0c 	teq	r4, ip
 80009c2:	bf08      	it	eq
 80009c4:	ea95 0f0c 	teqeq	r5, ip
 80009c8:	f43f af3b 	beq.w	8000842 <__aeabi_dmul+0x24a>
 80009cc:	ea94 0f0c 	teq	r4, ip
 80009d0:	d10a      	bne.n	80009e8 <__aeabi_ddiv+0x19c>
 80009d2:	ea50 3401 	orrs.w	r4, r0, r1, lsl #12
 80009d6:	f47f af34 	bne.w	8000842 <__aeabi_dmul+0x24a>
 80009da:	ea95 0f0c 	teq	r5, ip
 80009de:	f47f af25 	bne.w	800082c <__aeabi_dmul+0x234>
 80009e2:	4610      	mov	r0, r2
 80009e4:	4619      	mov	r1, r3
 80009e6:	e72c      	b.n	8000842 <__aeabi_dmul+0x24a>
 80009e8:	ea95 0f0c 	teq	r5, ip
 80009ec:	d106      	bne.n	80009fc <__aeabi_ddiv+0x1b0>
 80009ee:	ea52 3503 	orrs.w	r5, r2, r3, lsl #12
 80009f2:	f43f aefd 	beq.w	80007f0 <__aeabi_dmul+0x1f8>
 80009f6:	4610      	mov	r0, r2
 80009f8:	4619      	mov	r1, r3
 80009fa:	e722      	b.n	8000842 <__aeabi_dmul+0x24a>
 80009fc:	ea50 0641 	orrs.w	r6, r0, r1, lsl #1
 8000a00:	bf18      	it	ne
 8000a02:	ea52 0643 	orrsne.w	r6, r2, r3, lsl #1
 8000a06:	f47f aec5 	bne.w	8000794 <__aeabi_dmul+0x19c>
 8000a0a:	ea50 0441 	orrs.w	r4, r0, r1, lsl #1
 8000a0e:	f47f af0d 	bne.w	800082c <__aeabi_dmul+0x234>
 8000a12:	ea52 0543 	orrs.w	r5, r2, r3, lsl #1
 8000a16:	f47f aeeb 	bne.w	80007f0 <__aeabi_dmul+0x1f8>
 8000a1a:	e712      	b.n	8000842 <__aeabi_dmul+0x24a>

08000a1c <__gedf2>:
 8000a1c:	f04f 3cff 	mov.w	ip, #4294967295
 8000a20:	e006      	b.n	8000a30 <__cmpdf2+0x4>
 8000a22:	bf00      	nop

08000a24 <__ledf2>:
 8000a24:	f04f 0c01 	mov.w	ip, #1
 8000a28:	e002      	b.n	8000a30 <__cmpdf2+0x4>
 8000a2a:	bf00      	nop

08000a2c <__cmpdf2>:
 8000a2c:	f04f 0c01 	mov.w	ip, #1
 8000a30:	f84d cd04 	str.w	ip, [sp, #-4]!
 8000a34:	ea4f 0c41 	mov.w	ip, r1, lsl #1
 8000a38:	ea7f 5c6c 	mvns.w	ip, ip, asr #21
 8000a3c:	ea4f 0c43 	mov.w	ip, r3, lsl #1
 8000a40:	bf18      	it	ne
 8000a42:	ea7f 5c6c 	mvnsne.w	ip, ip, asr #21
 8000a46:	d01b      	beq.n	8000a80 <__cmpdf2+0x54>
 8000a48:	b001      	add	sp, #4
 8000a4a:	ea50 0c41 	orrs.w	ip, r0, r1, lsl #1
 8000a4e:	bf0c      	ite	eq
 8000a50:	ea52 0c43 	orrseq.w	ip, r2, r3, lsl #1
 8000a54:	ea91 0f03 	teqne	r1, r3
 8000a58:	bf02      	ittt	eq
 8000a5a:	ea90 0f02 	teqeq	r0, r2
 8000a5e:	2000      	moveq	r0, #0
 8000a60:	4770      	bxeq	lr
 8000a62:	f110 0f00 	cmn.w	r0, #0
 8000a66:	ea91 0f03 	teq	r1, r3
 8000a6a:	bf58      	it	pl
 8000a6c:	4299      	cmppl	r1, r3
 8000a6e:	bf08      	it	eq
 8000a70:	4290      	cmpeq	r0, r2
 8000a72:	bf2c      	ite	cs
 8000a74:	17d8      	asrcs	r0, r3, #31
 8000a76:	ea6f 70e3 	mvncc.w	r0, r3, asr #31
 8000a7a:	f040 0001 	orr.w	r0, r0, #1
 8000a7e:	4770      	bx	lr
 8000a80:	ea4f 0c41 	mov.w	ip, r1, lsl #1
 8000a84:	ea7f 5c6c 	mvns.w	ip, ip, asr #21
 8000a88:	d102      	bne.n	8000a90 <__cmpdf2+0x64>
 8000a8a:	ea50 3c01 	orrs.w	ip, r0, r1, lsl #12
 8000a8e:	d107      	bne.n	8000aa0 <__cmpdf2+0x74>
 8000a90:	ea4f 0c43 	mov.w	ip, r3, lsl #1
 8000a94:	ea7f 5c6c 	mvns.w	ip, ip, asr #21
 8000a98:	d1d6      	bne.n	8000a48 <__cmpdf2+0x1c>
 8000a9a:	ea52 3c03 	orrs.w	ip, r2, r3, lsl #12
 8000a9e:	d0d3      	beq.n	8000a48 <__cmpdf2+0x1c>
 8000aa0:	f85d 0b04 	ldr.w	r0, [sp], #4
 8000aa4:	4770      	bx	lr
 8000aa6:	bf00      	nop

08000aa8 <__aeabi_cdrcmple>:
 8000aa8:	4684      	mov	ip, r0
 8000aaa:	4610      	mov	r0, r2
 8000aac:	4662      	mov	r2, ip
 8000aae:	468c      	mov	ip, r1
 8000ab0:	4619      	mov	r1, r3
 8000ab2:	4663      	mov	r3, ip
 8000ab4:	e000      	b.n	8000ab8 <__aeabi_cdcmpeq>
 8000ab6:	bf00      	nop

08000ab8 <__aeabi_cdcmpeq>:
 8000ab8:	b501      	push	{r0, lr}
 8000aba:	f7ff ffb7 	bl	8000a2c <__cmpdf2>
 8000abe:	2800      	cmp	r0, #0
 8000ac0:	bf48      	it	mi
 8000ac2:	f110 0f00 	cmnmi.w	r0, #0
 8000ac6:	bd01      	pop	{r0, pc}

08000ac8 <__aeabi_dcmpeq>:
 8000ac8:	f84d ed08 	str.w	lr, [sp, #-8]!
 8000acc:	f7ff fff4 	bl	8000ab8 <__aeabi_cdcmpeq>
 8000ad0:	bf0c      	ite	eq
 8000ad2:	2001      	moveq	r0, #1
 8000ad4:	2000      	movne	r0, #0
 8000ad6:	f85d fb08 	ldr.w	pc, [sp], #8
 8000ada:	bf00      	nop

08000adc <__aeabi_dcmplt>:
 8000adc:	f84d ed08 	str.w	lr, [sp, #-8]!
 8000ae0:	f7ff ffea 	bl	8000ab8 <__aeabi_cdcmpeq>
 8000ae4:	bf34      	ite	cc
 8000ae6:	2001      	movcc	r0, #1
 8000ae8:	2000      	movcs	r0, #0
 8000aea:	f85d fb08 	ldr.w	pc, [sp], #8
 8000aee:	bf00      	nop

08000af0 <__aeabi_dcmple>:
 8000af0:	f84d ed08 	str.w	lr, [sp, #-8]!
 8000af4:	f7ff ffe0 	bl	8000ab8 <__aeabi_cdcmpeq>
 8000af8:	bf94      	ite	ls
 8000afa:	2001      	movls	r0, #1
 8000afc:	2000      	movhi	r0, #0
 8000afe:	f85d fb08 	ldr.w	pc, [sp], #8
 8000b02:	bf00      	nop

08000b04 <__aeabi_dcmpge>:
 8000b04:	f84d ed08 	str.w	lr, [sp, #-8]!
 8000b08:	f7ff ffce 	bl	8000aa8 <__aeabi_cdrcmple>
 8000b0c:	bf94      	ite	ls
 8000b0e:	2001      	movls	r0, #1
 8000b10:	2000      	movhi	r0, #0
 8000b12:	f85d fb08 	ldr.w	pc, [sp], #8
 8000b16:	bf00      	nop

08000b18 <__aeabi_dcmpgt>:
 8000b18:	f84d ed08 	str.w	lr, [sp, #-8]!
 8000b1c:	f7ff ffc4 	bl	8000aa8 <__aeabi_cdrcmple>
 8000b20:	bf34      	ite	cc
 8000b22:	2001      	movcc	r0, #1
 8000b24:	2000      	movcs	r0, #0
 8000b26:	f85d fb08 	ldr.w	pc, [sp], #8
 8000b2a:	bf00      	nop

08000b2c <__aeabi_dcmpun>:
 8000b2c:	ea4f 0c41 	mov.w	ip, r1, lsl #1
 8000b30:	ea7f 5c6c 	mvns.w	ip, ip, asr #21
 8000b34:	d102      	bne.n	8000b3c <__aeabi_dcmpun+0x10>
 8000b36:	ea50 3c01 	orrs.w	ip, r0, r1, lsl #12
 8000b3a:	d10a      	bne.n	8000b52 <__aeabi_dcmpun+0x26>
 8000b3c:	ea4f 0c43 	mov.w	ip, r3, lsl #1
 8000b40:	ea7f 5c6c 	mvns.w	ip, ip, asr #21
 8000b44:	d102      	bne.n	8000b4c <__aeabi_dcmpun+0x20>
 8000b46:	ea52 3c03 	orrs.w	ip, r2, r3, lsl #12
 8000b4a:	d102      	bne.n	8000b52 <__aeabi_dcmpun+0x26>
 8000b4c:	f04f 0000 	mov.w	r0, #0
 8000b50:	4770      	bx	lr
 8000b52:	f04f 0001 	mov.w	r0, #1
 8000b56:	4770      	bx	lr

08000b58 <__aeabi_d2iz>:
 8000b58:	ea4f 0241 	mov.w	r2, r1, lsl #1
 8000b5c:	f512 1200 	adds.w	r2, r2, #2097152	@ 0x200000
 8000b60:	d215      	bcs.n	8000b8e <__aeabi_d2iz+0x36>
 8000b62:	d511      	bpl.n	8000b88 <__aeabi_d2iz+0x30>
 8000b64:	f46f 7378 	mvn.w	r3, #992	@ 0x3e0
 8000b68:	ebb3 5262 	subs.w	r2, r3, r2, asr #21
 8000b6c:	d912      	bls.n	8000b94 <__aeabi_d2iz+0x3c>
 8000b6e:	ea4f 23c1 	mov.w	r3, r1, lsl #11
 8000b72:	f043 4300 	orr.w	r3, r3, #2147483648	@ 0x80000000
 8000b76:	ea43 5350 	orr.w	r3, r3, r0, lsr #21
 8000b7a:	f011 4f00 	tst.w	r1, #2147483648	@ 0x80000000
 8000b7e:	fa23 f002 	lsr.w	r0, r3, r2
 8000b82:	bf18      	it	ne
 8000b84:	4240      	negne	r0, r0
 8000b86:	4770      	bx	lr
 8000b88:	f04f 0000 	mov.w	r0, #0
 8000b8c:	4770      	bx	lr
 8000b8e:	ea50 3001 	orrs.w	r0, r0, r1, lsl #12
 8000b92:	d105      	bne.n	8000ba0 <__aeabi_d2iz+0x48>
 8000b94:	f011 4000 	ands.w	r0, r1, #2147483648	@ 0x80000000
 8000b98:	bf08      	it	eq
 8000b9a:	f06f 4000 	mvneq.w	r0, #2147483648	@ 0x80000000
 8000b9e:	4770      	bx	lr
 8000ba0:	f04f 0000 	mov.w	r0, #0
 8000ba4:	4770      	bx	lr
 8000ba6:	bf00      	nop

08000ba8 <__aeabi_d2uiz>:
 8000ba8:	004a      	lsls	r2, r1, #1
 8000baa:	d211      	bcs.n	8000bd0 <__aeabi_d2uiz+0x28>
 8000bac:	f512 1200 	adds.w	r2, r2, #2097152	@ 0x200000
 8000bb0:	d211      	bcs.n	8000bd6 <__aeabi_d2uiz+0x2e>
 8000bb2:	d50d      	bpl.n	8000bd0 <__aeabi_d2uiz+0x28>
 8000bb4:	f46f 7378 	mvn.w	r3, #992	@ 0x3e0
 8000bb8:	ebb3 5262 	subs.w	r2, r3, r2, asr #21
 8000bbc:	d40e      	bmi.n	8000bdc <__aeabi_d2uiz+0x34>
 8000bbe:	ea4f 23c1 	mov.w	r3, r1, lsl #11
 8000bc2:	f043 4300 	orr.w	r3, r3, #2147483648	@ 0x80000000
 8000bc6:	ea43 5350 	orr.w	r3, r3, r0, lsr #21
 8000bca:	fa23 f002 	lsr.w	r0, r3, r2
 8000bce:	4770      	bx	lr
 8000bd0:	f04f 0000 	mov.w	r0, #0
 8000bd4:	4770      	bx	lr
 8000bd6:	ea50 3001 	orrs.w	r0, r0, r1, lsl #12
 8000bda:	d102      	bne.n	8000be2 <__aeabi_d2uiz+0x3a>
 8000bdc:	f04f 30ff 	mov.w	r0, #4294967295
 8000be0:	4770      	bx	lr
 8000be2:	f04f 0000 	mov.w	r0, #0
 8000be6:	4770      	bx	lr

08000be8 <__aeabi_d2f>:
 8000be8:	ea4f 0241 	mov.w	r2, r1, lsl #1
 8000bec:	f1b2 43e0 	subs.w	r3, r2, #1879048192	@ 0x70000000
 8000bf0:	bf24      	itt	cs
 8000bf2:	f5b3 1c00 	subscs.w	ip, r3, #2097152	@ 0x200000
 8000bf6:	f1dc 5cfe 	rsbscs	ip, ip, #532676608	@ 0x1fc00000
 8000bfa:	d90d      	bls.n	8000c18 <__aeabi_d2f+0x30>
 8000bfc:	f001 4c00 	and.w	ip, r1, #2147483648	@ 0x80000000
 8000c00:	ea4f 02c0 	mov.w	r2, r0, lsl #3
 8000c04:	ea4c 7050 	orr.w	r0, ip, r0, lsr #29
 8000c08:	f1b2 4f00 	cmp.w	r2, #2147483648	@ 0x80000000
 8000c0c:	eb40 0083 	adc.w	r0, r0, r3, lsl #2
 8000c10:	bf08      	it	eq
 8000c12:	f020 0001 	biceq.w	r0, r0, #1
 8000c16:	4770      	bx	lr
 8000c18:	f011 4f80 	tst.w	r1, #1073741824	@ 0x40000000
 8000c1c:	d121      	bne.n	8000c62 <__aeabi_d2f+0x7a>
 8000c1e:	f113 7238 	adds.w	r2, r3, #48234496	@ 0x2e00000
 8000c22:	bfbc      	itt	lt
 8000c24:	f001 4000 	andlt.w	r0, r1, #2147483648	@ 0x80000000
 8000c28:	4770      	bxlt	lr
 8000c2a:	f441 1180 	orr.w	r1, r1, #1048576	@ 0x100000
 8000c2e:	ea4f 5252 	mov.w	r2, r2, lsr #21
 8000c32:	f1c2 0218 	rsb	r2, r2, #24
 8000c36:	f1c2 0c20 	rsb	ip, r2, #32
 8000c3a:	fa10 f30c 	lsls.w	r3, r0, ip
 8000c3e:	fa20 f002 	lsr.w	r0, r0, r2
 8000c42:	bf18      	it	ne
 8000c44:	f040 0001 	orrne.w	r0, r0, #1
 8000c48:	ea4f 23c1 	mov.w	r3, r1, lsl #11
 8000c4c:	ea4f 23d3 	mov.w	r3, r3, lsr #11
 8000c50:	fa03 fc0c 	lsl.w	ip, r3, ip
 8000c54:	ea40 000c 	orr.w	r0, r0, ip
 8000c58:	fa23 f302 	lsr.w	r3, r3, r2
 8000c5c:	ea4f 0343 	mov.w	r3, r3, lsl #1
 8000c60:	e7cc      	b.n	8000bfc <__aeabi_d2f+0x14>
 8000c62:	ea7f 5362 	mvns.w	r3, r2, asr #21
 8000c66:	d107      	bne.n	8000c78 <__aeabi_d2f+0x90>
 8000c68:	ea50 3301 	orrs.w	r3, r0, r1, lsl #12
 8000c6c:	bf1e      	ittt	ne
 8000c6e:	f04f 40fe 	movne.w	r0, #2130706432	@ 0x7f000000
 8000c72:	f440 0040 	orrne.w	r0, r0, #12582912	@ 0xc00000
 8000c76:	4770      	bxne	lr
 8000c78:	f001 4000 	and.w	r0, r1, #2147483648	@ 0x80000000
 8000c7c:	f040 40fe 	orr.w	r0, r0, #2130706432	@ 0x7f000000
 8000c80:	f440 0000 	orr.w	r0, r0, #8388608	@ 0x800000
 8000c84:	4770      	bx	lr
 8000c86:	bf00      	nop

08000c88 <__aeabi_d2lz>:
 8000c88:	b538      	push	{r3, r4, r5, lr}
 8000c8a:	2200      	movs	r2, #0
 8000c8c:	2300      	movs	r3, #0
 8000c8e:	4604      	mov	r4, r0
 8000c90:	460d      	mov	r5, r1
 8000c92:	f7ff ff23 	bl	8000adc <__aeabi_dcmplt>
 8000c96:	b928      	cbnz	r0, 8000ca4 <__aeabi_d2lz+0x1c>
 8000c98:	4620      	mov	r0, r4
 8000c9a:	4629      	mov	r1, r5
 8000c9c:	e8bd 4038 	ldmia.w	sp!, {r3, r4, r5, lr}
 8000ca0:	f000 b80a 	b.w	8000cb8 <__aeabi_d2ulz>
 8000ca4:	4620      	mov	r0, r4
 8000ca6:	f105 4100 	add.w	r1, r5, #2147483648	@ 0x80000000
 8000caa:	f000 f805 	bl	8000cb8 <__aeabi_d2ulz>
 8000cae:	4240      	negs	r0, r0
 8000cb0:	eb61 0141 	sbc.w	r1, r1, r1, lsl #1
 8000cb4:	bd38      	pop	{r3, r4, r5, pc}
 8000cb6:	bf00      	nop

08000cb8 <__aeabi_d2ulz>:
 8000cb8:	b5d0      	push	{r4, r6, r7, lr}
 8000cba:	4b0c      	ldr	r3, [pc, #48]	@ (8000cec <__aeabi_d2ulz+0x34>)
 8000cbc:	2200      	movs	r2, #0
 8000cbe:	4606      	mov	r6, r0
 8000cc0:	460f      	mov	r7, r1
 8000cc2:	f7ff fc99 	bl	80005f8 <__aeabi_dmul>
 8000cc6:	f7ff ff6f 	bl	8000ba8 <__aeabi_d2uiz>
 8000cca:	4604      	mov	r4, r0
 8000ccc:	f7ff fc1a 	bl	8000504 <__aeabi_ui2d>
 8000cd0:	4b07      	ldr	r3, [pc, #28]	@ (8000cf0 <__aeabi_d2ulz+0x38>)
 8000cd2:	2200      	movs	r2, #0
 8000cd4:	f7ff fc90 	bl	80005f8 <__aeabi_dmul>
 8000cd8:	4602      	mov	r2, r0
 8000cda:	460b      	mov	r3, r1
 8000cdc:	4630      	mov	r0, r6
 8000cde:	4639      	mov	r1, r7
 8000ce0:	f7ff fad2 	bl	8000288 <__aeabi_dsub>
 8000ce4:	f7ff ff60 	bl	8000ba8 <__aeabi_d2uiz>
 8000ce8:	4621      	mov	r1, r4
 8000cea:	bdd0      	pop	{r4, r6, r7, pc}
 8000cec:	3df00000 	.word	0x3df00000
 8000cf0:	41f00000 	.word	0x41f00000

08000cf4 <BMP180_Init>:
/**
 * @brief Initializes the BMP180 temperature/pressure sensor.
 * @param hi2c User I2C handle pointer.
 */
void BMP180_Init(I2C_HandleTypeDef *hi2c) {
	_bmp180_ui2c = hi2c;
 8000cf4:	4b01      	ldr	r3, [pc, #4]	@ (8000cfc <BMP180_Init+0x8>)
 8000cf6:	6018      	str	r0, [r3, #0]
}
 8000cf8:	4770      	bx	lr
 8000cfa:	bf00      	nop
 8000cfc:	200002b4 	.word	0x200002b4

08000d00 <BMP180_SetOversampling>:
 * @param oss Enum, oversampling setting.
 * @note Available resolutions: BMP180_LOW, BMP180_STANDARD, BMP180_HIGH, BMP180_ULTRA.
 * @note Refer to section 3.3.1 of datasheet.
 */
void BMP180_SetOversampling(BMP180_OSS oss) {
	_bmp180_oss = oss;
 8000d00:	4b01      	ldr	r3, [pc, #4]	@ (8000d08 <BMP180_SetOversampling+0x8>)
 8000d02:	7018      	strb	r0, [r3, #0]
}
 8000d04:	4770      	bx	lr
 8000d06:	bf00      	nop
 8000d08:	2000029c 	.word	0x2000029c

08000d0c <BMP180_WriteReg>:
/**
 * @brief Writes to a specific register.
 * @param reg Address of register to write to.
 * @param cmd Byte to write.
 */
void BMP180_WriteReg(uint8_t reg, uint8_t cmd) {
 8000d0c:	b51f      	push	{r0, r1, r2, r3, r4, lr}
	uint8_t arr[2] = { reg, cmd };
	HAL_I2C_Master_Transmit(_bmp180_ui2c, BMP180_I2C_ADDR << 1, arr, 2, BMP180_I2C_TIMEOUT);
 8000d0e:	f44f 737a 	mov.w	r3, #1000	@ 0x3e8
	uint8_t arr[2] = { reg, cmd };
 8000d12:	f88d 000c 	strb.w	r0, [sp, #12]
	HAL_I2C_Master_Transmit(_bmp180_ui2c, BMP180_I2C_ADDR << 1, arr, 2, BMP180_I2C_TIMEOUT);
 8000d16:	4806      	ldr	r0, [pc, #24]	@ (8000d30 <BMP180_WriteReg+0x24>)
 8000d18:	9300      	str	r3, [sp, #0]
	uint8_t arr[2] = { reg, cmd };
 8000d1a:	f88d 100d 	strb.w	r1, [sp, #13]
	HAL_I2C_Master_Transmit(_bmp180_ui2c, BMP180_I2C_ADDR << 1, arr, 2, BMP180_I2C_TIMEOUT);
 8000d1e:	2302      	movs	r3, #2
 8000d20:	aa03      	add	r2, sp, #12
 8000d22:	21ee      	movs	r1, #238	@ 0xee
 8000d24:	6800      	ldr	r0, [r0, #0]
 8000d26:	f002 fc77 	bl	8003618 <HAL_I2C_Master_Transmit>
}
 8000d2a:	b005      	add	sp, #20
 8000d2c:	f85d fb04 	ldr.w	pc, [sp], #4
 8000d30:	200002b4 	.word	0x200002b4

08000d34 <BMP180_ReadReg>:
/**
 * @brief Reads from a specific register.
 * @param reg Address of register to read from.
 * @return Byte read.
 */
uint8_t BMP180_ReadReg(uint8_t reg) {
 8000d34:	b530      	push	{r4, r5, lr}
 8000d36:	b087      	sub	sp, #28
	HAL_I2C_Master_Transmit(_bmp180_ui2c, BMP180_I2C_ADDR << 1, &reg, 1, BMP180_I2C_TIMEOUT);
 8000d38:	4c0c      	ldr	r4, [pc, #48]	@ (8000d6c <BMP180_ReadReg+0x38>)
uint8_t BMP180_ReadReg(uint8_t reg) {
 8000d3a:	f88d 000f 	strb.w	r0, [sp, #15]
	HAL_I2C_Master_Transmit(_bmp180_ui2c, BMP180_I2C_ADDR << 1, &reg, 1, BMP180_I2C_TIMEOUT);
 8000d3e:	f44f 757a 	mov.w	r5, #1000	@ 0x3e8
 8000d42:	9500      	str	r5, [sp, #0]
 8000d44:	f10d 020f 	add.w	r2, sp, #15
 8000d48:	6820      	ldr	r0, [r4, #0]
 8000d4a:	2301      	movs	r3, #1
 8000d4c:	21ee      	movs	r1, #238	@ 0xee
 8000d4e:	f002 fc63 	bl	8003618 <HAL_I2C_Master_Transmit>
	uint8_t result;
	HAL_I2C_Master_Receive(_bmp180_ui2c, BMP180_I2C_ADDR << 1, &result, 1, BMP180_I2C_TIMEOUT);
 8000d52:	9500      	str	r5, [sp, #0]
 8000d54:	6820      	ldr	r0, [r4, #0]
 8000d56:	2301      	movs	r3, #1
 8000d58:	f10d 0217 	add.w	r2, sp, #23
 8000d5c:	21ee      	movs	r1, #238	@ 0xee
 8000d5e:	f002 fd09 	bl	8003774 <HAL_I2C_Master_Receive>
	return result;
}
 8000d62:	f89d 0017 	ldrb.w	r0, [sp, #23]
 8000d66:	b007      	add	sp, #28
 8000d68:	bd30      	pop	{r4, r5, pc}
 8000d6a:	bf00      	nop
 8000d6c:	200002b4 	.word	0x200002b4

08000d70 <BMP180_UpdateCalibrationData>:
void BMP180_UpdateCalibrationData(void) {
 8000d70:	b538      	push	{r3, r4, r5, lr}
	_bmp180_eeprom.BMP180_AC1 = (BMP180_ReadReg(BMP180_EEPROM_ADDR_MSB[BMP180_INDEX_AC1]) << 8) | BMP180_ReadReg(BMP180_EEPROM_ADDR_LSB[BMP180_INDEX_AC1]);
 8000d72:	20aa      	movs	r0, #170	@ 0xaa
 8000d74:	f7ff ffde 	bl	8000d34 <BMP180_ReadReg>
 8000d78:	4605      	mov	r5, r0
 8000d7a:	20ab      	movs	r0, #171	@ 0xab
 8000d7c:	f7ff ffda 	bl	8000d34 <BMP180_ReadReg>
 8000d80:	4c34      	ldr	r4, [pc, #208]	@ (8000e54 <BMP180_UpdateCalibrationData+0xe4>)
 8000d82:	ea40 2005 	orr.w	r0, r0, r5, lsl #8
 8000d86:	8020      	strh	r0, [r4, #0]
	_bmp180_eeprom.BMP180_AC2 = (BMP180_ReadReg(BMP180_EEPROM_ADDR_MSB[BMP180_INDEX_AC2]) << 8) | BMP180_ReadReg(BMP180_EEPROM_ADDR_LSB[BMP180_INDEX_AC2]);
 8000d88:	20ac      	movs	r0, #172	@ 0xac
 8000d8a:	f7ff ffd3 	bl	8000d34 <BMP180_ReadReg>
 8000d8e:	4605      	mov	r5, r0
 8000d90:	20ad      	movs	r0, #173	@ 0xad
 8000d92:	f7ff ffcf 	bl	8000d34 <BMP180_ReadReg>
 8000d96:	ea40 2005 	orr.w	r0, r0, r5, lsl #8
 8000d9a:	8060      	strh	r0, [r4, #2]
	_bmp180_eeprom.BMP180_AC3 = (BMP180_ReadReg(BMP180_EEPROM_ADDR_MSB[BMP180_INDEX_AC3]) << 8) | BMP180_ReadReg(BMP180_EEPROM_ADDR_LSB[BMP180_INDEX_AC3]);
 8000d9c:	20ae      	movs	r0, #174	@ 0xae
 8000d9e:	f7ff ffc9 	bl	8000d34 <BMP180_ReadReg>
 8000da2:	4605      	mov	r5, r0
 8000da4:	20af      	movs	r0, #175	@ 0xaf
 8000da6:	f7ff ffc5 	bl	8000d34 <BMP180_ReadReg>
 8000daa:	ea40 2005 	orr.w	r0, r0, r5, lsl #8
 8000dae:	80a0      	strh	r0, [r4, #4]
	_bmp180_eeprom.BMP180_AC4 = (BMP180_ReadReg(BMP180_EEPROM_ADDR_MSB[BMP180_INDEX_AC4]) << 8) | BMP180_ReadReg(BMP180_EEPROM_ADDR_LSB[BMP180_INDEX_AC4]);
 8000db0:	20b0      	movs	r0, #176	@ 0xb0
 8000db2:	f7ff ffbf 	bl	8000d34 <BMP180_ReadReg>
 8000db6:	4605      	mov	r5, r0
 8000db8:	20b1      	movs	r0, #177	@ 0xb1
 8000dba:	f7ff ffbb 	bl	8000d34 <BMP180_ReadReg>
 8000dbe:	ea40 2005 	orr.w	r0, r0, r5, lsl #8
 8000dc2:	80e0      	strh	r0, [r4, #6]
	_bmp180_eeprom.BMP180_AC5 = (BMP180_ReadReg(BMP180_EEPROM_ADDR_MSB[BMP180_INDEX_AC5]) << 8) | BMP180_ReadReg(BMP180_EEPROM_ADDR_LSB[BMP180_INDEX_AC5]);
 8000dc4:	20b2      	movs	r0, #178	@ 0xb2
 8000dc6:	f7ff ffb5 	bl	8000d34 <BMP180_ReadReg>
 8000dca:	4605      	mov	r5, r0
 8000dcc:	20b3      	movs	r0, #179	@ 0xb3
 8000dce:	f7ff ffb1 	bl	8000d34 <BMP180_ReadReg>
 8000dd2:	ea40 2005 	orr.w	r0, r0, r5, lsl #8
 8000dd6:	8120      	strh	r0, [r4, #8]
	_bmp180_eeprom.BMP180_AC6 = (BMP180_ReadReg(BMP180_EEPROM_ADDR_MSB[BMP180_INDEX_AC6]) << 8) | BMP180_ReadReg(BMP180_EEPROM_ADDR_LSB[BMP180_INDEX_AC6]);
 8000dd8:	20b4      	movs	r0, #180	@ 0xb4
 8000dda:	f7ff ffab 	bl	8000d34 <BMP180_ReadReg>
 8000dde:	4605      	mov	r5, r0
 8000de0:	20b5      	movs	r0, #181	@ 0xb5
 8000de2:	f7ff ffa7 	bl	8000d34 <BMP180_ReadReg>
 8000de6:	ea40 2005 	orr.w	r0, r0, r5, lsl #8
 8000dea:	8160      	strh	r0, [r4, #10]
	_bmp180_eeprom.BMP180_B1 = (BMP180_ReadReg(BMP180_EEPROM_ADDR_MSB[BMP180_INDEX_B1]) << 8) | BMP180_ReadReg(BMP180_EEPROM_ADDR_LSB[BMP180_INDEX_B1]);
 8000dec:	20b6      	movs	r0, #182	@ 0xb6
 8000dee:	f7ff ffa1 	bl	8000d34 <BMP180_ReadReg>
 8000df2:	4605      	mov	r5, r0
 8000df4:	20b7      	movs	r0, #183	@ 0xb7
 8000df6:	f7ff ff9d 	bl	8000d34 <BMP180_ReadReg>
 8000dfa:	ea40 2005 	orr.w	r0, r0, r5, lsl #8
 8000dfe:	81a0      	strh	r0, [r4, #12]
	_bmp180_eeprom.BMP180_B2 = (BMP180_ReadReg(BMP180_EEPROM_ADDR_MSB[BMP180_INDEX_B2]) << 8) | BMP180_ReadReg(BMP180_EEPROM_ADDR_LSB[BMP180_INDEX_B2]);
 8000e00:	20b8      	movs	r0, #184	@ 0xb8
 8000e02:	f7ff ff97 	bl	8000d34 <BMP180_ReadReg>
 8000e06:	4605      	mov	r5, r0
 8000e08:	20b9      	movs	r0, #185	@ 0xb9
 8000e0a:	f7ff ff93 	bl	8000d34 <BMP180_ReadReg>
 8000e0e:	ea40 2005 	orr.w	r0, r0, r5, lsl #8
 8000e12:	81e0      	strh	r0, [r4, #14]
	_bmp180_eeprom.BMP180_MB = (BMP180_ReadReg(BMP180_EEPROM_ADDR_MSB[BMP180_INDEX_MB]) << 8) | BMP180_ReadReg(BMP180_EEPROM_ADDR_LSB[BMP180_INDEX_MB]);
 8000e14:	20ba      	movs	r0, #186	@ 0xba
 8000e16:	f7ff ff8d 	bl	8000d34 <BMP180_ReadReg>
 8000e1a:	4605      	mov	r5, r0
 8000e1c:	20bb      	movs	r0, #187	@ 0xbb
 8000e1e:	f7ff ff89 	bl	8000d34 <BMP180_ReadReg>
 8000e22:	ea40 2005 	orr.w	r0, r0, r5, lsl #8
 8000e26:	8220      	strh	r0, [r4, #16]
	_bmp180_eeprom.BMP180_MC = (BMP180_ReadReg(BMP180_EEPROM_ADDR_MSB[BMP180_INDEX_MC]) << 8) | BMP180_ReadReg(BMP180_EEPROM_ADDR_LSB[BMP180_INDEX_MC]);
 8000e28:	20bc      	movs	r0, #188	@ 0xbc
 8000e2a:	f7ff ff83 	bl	8000d34 <BMP180_ReadReg>
 8000e2e:	4605      	mov	r5, r0
 8000e30:	20bd      	movs	r0, #189	@ 0xbd
 8000e32:	f7ff ff7f 	bl	8000d34 <BMP180_ReadReg>
 8000e36:	ea40 2005 	orr.w	r0, r0, r5, lsl #8
 8000e3a:	8260      	strh	r0, [r4, #18]
	_bmp180_eeprom.BMP180_MD = (BMP180_ReadReg(BMP180_EEPROM_ADDR_MSB[BMP180_INDEX_MD]) << 8) | BMP180_ReadReg(BMP180_EEPROM_ADDR_LSB[BMP180_INDEX_MD]);
 8000e3c:	20be      	movs	r0, #190	@ 0xbe
 8000e3e:	f7ff ff79 	bl	8000d34 <BMP180_ReadReg>
 8000e42:	4605      	mov	r5, r0
 8000e44:	20bf      	movs	r0, #191	@ 0xbf
 8000e46:	f7ff ff75 	bl	8000d34 <BMP180_ReadReg>
 8000e4a:	ea40 2005 	orr.w	r0, r0, r5, lsl #8
 8000e4e:	82a0      	strh	r0, [r4, #20]
}
 8000e50:	bd38      	pop	{r3, r4, r5, pc}
 8000e52:	bf00      	nop
 8000e54:	2000029e 	.word	0x2000029e

08000e58 <BMP180_GetRawTemperature>:

/**
 * @brief Measures and calculates temperature.
 * @return Temperature in 0.1 (1/10) degrees Celsius.
 */
int32_t BMP180_GetRawTemperature(void) {
 8000e58:	b510      	push	{r4, lr}
	BMP180_WriteReg(BMP180_CONTROL_REG, BMP180_CMD_TEMP);
 8000e5a:	212e      	movs	r1, #46	@ 0x2e
 8000e5c:	20f4      	movs	r0, #244	@ 0xf4
 8000e5e:	f7ff ff55 	bl	8000d0c <BMP180_WriteReg>
	HAL_Delay(BMP180_DELAY_TEMP);
 8000e62:	2005      	movs	r0, #5
 8000e64:	f001 fea2 	bl	8002bac <HAL_Delay>
	int32_t ut = (BMP180_ReadReg(BMP180_MSB_REG) << 8) | BMP180_ReadReg(BMP180_LSB_REG);
 8000e68:	20f6      	movs	r0, #246	@ 0xf6
 8000e6a:	f7ff ff63 	bl	8000d34 <BMP180_ReadReg>
 8000e6e:	4604      	mov	r4, r0
 8000e70:	20f7      	movs	r0, #247	@ 0xf7
 8000e72:	f7ff ff5f 	bl	8000d34 <BMP180_ReadReg>
	int32_t x1 = (ut - _bmp180_eeprom.BMP180_AC6) * _bmp180_eeprom.BMP180_AC5 / (1 << 15);
 8000e76:	4a0f      	ldr	r2, [pc, #60]	@ (8000eb4 <BMP180_GetRawTemperature+0x5c>)
 8000e78:	8953      	ldrh	r3, [r2, #10]
	int32_t ut = (BMP180_ReadReg(BMP180_MSB_REG) << 8) | BMP180_ReadReg(BMP180_LSB_REG);
 8000e7a:	ea40 2004 	orr.w	r0, r0, r4, lsl #8
	int32_t x1 = (ut - _bmp180_eeprom.BMP180_AC6) * _bmp180_eeprom.BMP180_AC5 / (1 << 15);
 8000e7e:	1ac3      	subs	r3, r0, r3
 8000e80:	8910      	ldrh	r0, [r2, #8]
 8000e82:	4358      	muls	r0, r3
 8000e84:	bf48      	it	mi
 8000e86:	f500 40ff 	addmi.w	r0, r0, #32640	@ 0x7f80
	int32_t x2 = (_bmp180_eeprom.BMP180_MC * (1 << 11)) / (x1 + _bmp180_eeprom.BMP180_MD);
 8000e8a:	f9b2 3012 	ldrsh.w	r3, [r2, #18]
 8000e8e:	f9b2 2014 	ldrsh.w	r2, [r2, #20]
	int32_t x1 = (ut - _bmp180_eeprom.BMP180_AC6) * _bmp180_eeprom.BMP180_AC5 / (1 << 15);
 8000e92:	bf48      	it	mi
 8000e94:	307f      	addmi	r0, #127	@ 0x7f
	int32_t x2 = (_bmp180_eeprom.BMP180_MC * (1 << 11)) / (x1 + _bmp180_eeprom.BMP180_MD);
 8000e96:	eb02 32e0 	add.w	r2, r2, r0, asr #15
 8000e9a:	02db      	lsls	r3, r3, #11
 8000e9c:	fb93 f3f2 	sdiv	r3, r3, r2
	int32_t b5 = x1 + x2;
 8000ea0:	eb03 33e0 	add.w	r3, r3, r0, asr #15
	return (b5 + 8) / (1 << 4);
 8000ea4:	f113 0008 	adds.w	r0, r3, #8
 8000ea8:	bf48      	it	mi
 8000eaa:	f103 0017 	addmi.w	r0, r3, #23
}
 8000eae:	1100      	asrs	r0, r0, #4
 8000eb0:	bd10      	pop	{r4, pc}
 8000eb2:	bf00      	nop
 8000eb4:	2000029e 	.word	0x2000029e

08000eb8 <BMP180_GetUT>:
	x2 = (-7357 * p) / (1 << 16);
	p = p + (x1 + x2 + 3791) / (1 << 4);
	return p;
}

int32_t BMP180_GetUT(void){
 8000eb8:	b510      	push	{r4, lr}
	return (BMP180_ReadReg(BMP180_MSB_REG) << 8) | BMP180_ReadReg(BMP180_LSB_REG);
 8000eba:	20f6      	movs	r0, #246	@ 0xf6
 8000ebc:	f7ff ff3a 	bl	8000d34 <BMP180_ReadReg>
 8000ec0:	4604      	mov	r4, r0
 8000ec2:	20f7      	movs	r0, #247	@ 0xf7
 8000ec4:	f7ff ff36 	bl	8000d34 <BMP180_ReadReg>
}
 8000ec8:	ea40 2004 	orr.w	r0, r0, r4, lsl #8
 8000ecc:	bd10      	pop	{r4, pc}
	...

08000ed0 <BMP180_GetUP>:

int32_t BMP180_GetUP(void){
 8000ed0:	b538      	push	{r3, r4, r5, lr}
	return ((BMP180_ReadReg(BMP180_MSB_REG) << 16) | (BMP180_ReadReg(BMP180_LSB_REG) << 8) | BMP180_ReadReg(BMP180_XLSB_REG)) >> (8 - _bmp180_oss);
 8000ed2:	20f6      	movs	r0, #246	@ 0xf6
 8000ed4:	f7ff ff2e 	bl	8000d34 <BMP180_ReadReg>
 8000ed8:	4605      	mov	r5, r0
 8000eda:	20f7      	movs	r0, #247	@ 0xf7
 8000edc:	f7ff ff2a 	bl	8000d34 <BMP180_ReadReg>
 8000ee0:	0204      	lsls	r4, r0, #8
 8000ee2:	20f8      	movs	r0, #248	@ 0xf8
 8000ee4:	f7ff ff26 	bl	8000d34 <BMP180_ReadReg>
 8000ee8:	4b04      	ldr	r3, [pc, #16]	@ (8000efc <BMP180_GetUP+0x2c>)
 8000eea:	781b      	ldrb	r3, [r3, #0]
 8000eec:	ea44 4405 	orr.w	r4, r4, r5, lsl #16
 8000ef0:	4320      	orrs	r0, r4
 8000ef2:	f1c3 0308 	rsb	r3, r3, #8
}
 8000ef6:	4118      	asrs	r0, r3
 8000ef8:	bd38      	pop	{r3, r4, r5, pc}
 8000efa:	bf00      	nop
 8000efc:	2000029c 	.word	0x2000029c

08000f00 <BMP180_GetPressure>:
int32_t BMP180_GetPressure(void) {
 8000f00:	b5f8      	push	{r3, r4, r5, r6, r7, lr}
	BMP180_WriteReg(BMP180_CONTROL_REG, BMP180_CMD_TEMP);
 8000f02:	212e      	movs	r1, #46	@ 0x2e
 8000f04:	20f4      	movs	r0, #244	@ 0xf4
 8000f06:	f7ff ff01 	bl	8000d0c <BMP180_WriteReg>
	BMP180_WriteReg(BMP180_CONTROL_REG, BMP180_CMD_PRES[_bmp180_oss]);
 8000f0a:	4c47      	ldr	r4, [pc, #284]	@ (8001028 <BMP180_GetPressure+0x128>)
	int32_t x1 = (ut - _bmp180_eeprom.BMP180_AC6) * _bmp180_eeprom.BMP180_AC5 / (1 << 15);
 8000f0c:	4e47      	ldr	r6, [pc, #284]	@ (800102c <BMP180_GetPressure+0x12c>)
	HAL_Delay(BMP180_DELAY_TEMP);
 8000f0e:	2005      	movs	r0, #5
 8000f10:	f001 fe4c 	bl	8002bac <HAL_Delay>
	int32_t ut = BMP180_GetUT();
 8000f14:	f7ff ffd0 	bl	8000eb8 <BMP180_GetUT>
	BMP180_WriteReg(BMP180_CONTROL_REG, BMP180_CMD_PRES[_bmp180_oss]);
 8000f18:	7823      	ldrb	r3, [r4, #0]
 8000f1a:	4a45      	ldr	r2, [pc, #276]	@ (8001030 <BMP180_GetPressure+0x130>)
	int32_t ut = BMP180_GetUT();
 8000f1c:	4607      	mov	r7, r0
	BMP180_WriteReg(BMP180_CONTROL_REG, BMP180_CMD_PRES[_bmp180_oss]);
 8000f1e:	5cd1      	ldrb	r1, [r2, r3]
 8000f20:	20f4      	movs	r0, #244	@ 0xf4
 8000f22:	f7ff fef3 	bl	8000d0c <BMP180_WriteReg>
	HAL_Delay(BMP180_DELAY_PRES[_bmp180_oss]);
 8000f26:	7823      	ldrb	r3, [r4, #0]
 8000f28:	4a42      	ldr	r2, [pc, #264]	@ (8001034 <BMP180_GetPressure+0x134>)
 8000f2a:	5cd0      	ldrb	r0, [r2, r3]
 8000f2c:	f001 fe3e 	bl	8002bac <HAL_Delay>
	int32_t up = BMP180_GetUP();
 8000f30:	f7ff ffce 	bl	8000ed0 <BMP180_GetUP>
	int32_t x1 = (ut - _bmp180_eeprom.BMP180_AC6) * _bmp180_eeprom.BMP180_AC5 / (1 << 15);
 8000f34:	8973      	ldrh	r3, [r6, #10]
	int32_t x2 = (_bmp180_eeprom.BMP180_MC * (1 << 11)) / (x1 + _bmp180_eeprom.BMP180_MD);
 8000f36:	f9b6 2012 	ldrsh.w	r2, [r6, #18]
	x1 = _bmp180_eeprom.BMP180_AC3 * b6 / (1 << 13);
 8000f3a:	f9b6 1004 	ldrsh.w	r1, [r6, #4]
	int32_t b3 = (((_bmp180_eeprom.BMP180_AC1 * 4 + x3) << _bmp180_oss) + 2) / 4;
 8000f3e:	7824      	ldrb	r4, [r4, #0]
	int32_t up = BMP180_GetUP();
 8000f40:	4605      	mov	r5, r0
	int32_t x1 = (ut - _bmp180_eeprom.BMP180_AC6) * _bmp180_eeprom.BMP180_AC5 / (1 << 15);
 8000f42:	8930      	ldrh	r0, [r6, #8]
 8000f44:	1afb      	subs	r3, r7, r3
 8000f46:	4358      	muls	r0, r3
 8000f48:	bf48      	it	mi
 8000f4a:	f500 40ff 	addmi.w	r0, r0, #32640	@ 0x7f80
	int32_t x2 = (_bmp180_eeprom.BMP180_MC * (1 << 11)) / (x1 + _bmp180_eeprom.BMP180_MD);
 8000f4e:	f9b6 3014 	ldrsh.w	r3, [r6, #20]
	int32_t x1 = (ut - _bmp180_eeprom.BMP180_AC6) * _bmp180_eeprom.BMP180_AC5 / (1 << 15);
 8000f52:	bf48      	it	mi
 8000f54:	307f      	addmi	r0, #127	@ 0x7f
	int32_t x2 = (_bmp180_eeprom.BMP180_MC * (1 << 11)) / (x1 + _bmp180_eeprom.BMP180_MD);
 8000f56:	eb03 33e0 	add.w	r3, r3, r0, asr #15
 8000f5a:	02d2      	lsls	r2, r2, #11
 8000f5c:	fb92 f2f3 	sdiv	r2, r2, r3
	int32_t b5 = x1 + x2;
 8000f60:	eb02 32e0 	add.w	r2, r2, r0, asr #15
	int32_t b6 = b5 - 4000;
 8000f64:	f5a2 627a 	sub.w	r2, r2, #4000	@ 0xfa0
	x1 = _bmp180_eeprom.BMP180_AC3 * b6 / (1 << 13);
 8000f68:	4351      	muls	r1, r2
	x2 = (_bmp180_eeprom.BMP180_B1 * (b6 * b6 / (1 << 12))) / (1 << 16);
 8000f6a:	f9b6 000c 	ldrsh.w	r0, [r6, #12]
	x1 = (_bmp180_eeprom.BMP180_B2 * (b6 * b6 / (1 << 12))) / (1 << 11);
 8000f6e:	fb02 f302 	mul.w	r3, r2, r2
	x1 = _bmp180_eeprom.BMP180_AC3 * b6 / (1 << 13);
 8000f72:	bf48      	it	mi
 8000f74:	f501 51ff 	addmi.w	r1, r1, #8160	@ 0x1fe0
	x1 = (_bmp180_eeprom.BMP180_B2 * (b6 * b6 / (1 << 12))) / (1 << 11);
 8000f78:	ea4f 3323 	mov.w	r3, r3, asr #12
	x1 = _bmp180_eeprom.BMP180_AC3 * b6 / (1 << 13);
 8000f7c:	bf48      	it	mi
 8000f7e:	311f      	addmi	r1, #31
	x2 = (_bmp180_eeprom.BMP180_B1 * (b6 * b6 / (1 << 12))) / (1 << 16);
 8000f80:	4358      	muls	r0, r3
 8000f82:	bf44      	itt	mi
 8000f84:	f500 407f 	addmi.w	r0, r0, #65280	@ 0xff00
 8000f88:	30ff      	addmi	r0, #255	@ 0xff
	x1 = _bmp180_eeprom.BMP180_AC3 * b6 / (1 << 13);
 8000f8a:	1349      	asrs	r1, r1, #13
	x3 = ((x1 + x2) + 2) / 4;
 8000f8c:	eb01 4120 	add.w	r1, r1, r0, asr #16
 8000f90:	1c88      	adds	r0, r1, #2
 8000f92:	bf48      	it	mi
 8000f94:	1d48      	addmi	r0, r1, #5
 8000f96:	1081      	asrs	r1, r0, #2
	uint32_t b4 = _bmp180_eeprom.BMP180_AC4 * (uint32_t) (x3 + 32768) / (1 << 15);
 8000f98:	88f0      	ldrh	r0, [r6, #6]
 8000f9a:	f501 4100 	add.w	r1, r1, #32768	@ 0x8000
 8000f9e:	4341      	muls	r1, r0
	x1 = (_bmp180_eeprom.BMP180_B2 * (b6 * b6 / (1 << 12))) / (1 << 11);
 8000fa0:	f9b6 000e 	ldrsh.w	r0, [r6, #14]
 8000fa4:	4343      	muls	r3, r0
	x2 = _bmp180_eeprom.BMP180_AC2 * b6 / (1 << 11);
 8000fa6:	f9b6 0002 	ldrsh.w	r0, [r6, #2]
	x1 = (_bmp180_eeprom.BMP180_B2 * (b6 * b6 / (1 << 12))) / (1 << 11);
 8000faa:	bf48      	it	mi
 8000fac:	f203 73ff 	addwmi	r3, r3, #2047	@ 0x7ff
	x2 = _bmp180_eeprom.BMP180_AC2 * b6 / (1 << 11);
 8000fb0:	4342      	muls	r2, r0
 8000fb2:	bf48      	it	mi
 8000fb4:	f202 72ff 	addwmi	r2, r2, #2047	@ 0x7ff
	x1 = (_bmp180_eeprom.BMP180_B2 * (b6 * b6 / (1 << 12))) / (1 << 11);
 8000fb8:	12db      	asrs	r3, r3, #11
	int32_t x3 = x1 + x2;
 8000fba:	eb03 23e2 	add.w	r3, r3, r2, asr #11
	int32_t b3 = (((_bmp180_eeprom.BMP180_AC1 * 4 + x3) << _bmp180_oss) + 2) / 4;
 8000fbe:	f9b6 2000 	ldrsh.w	r2, [r6]
 8000fc2:	eb03 0382 	add.w	r3, r3, r2, lsl #2
 8000fc6:	40a3      	lsls	r3, r4
 8000fc8:	1c9a      	adds	r2, r3, #2
 8000fca:	bf48      	it	mi
 8000fcc:	1d5a      	addmi	r2, r3, #5
	uint32_t b7 = ((uint32_t) up - b3) * (50000 >> _bmp180_oss);
 8000fce:	f24c 3050 	movw	r0, #50000	@ 0xc350
 8000fd2:	eba5 05a2 	sub.w	r5, r5, r2, asr #2
 8000fd6:	4120      	asrs	r0, r4
	if (b7 < 0x80000000)
 8000fd8:	4368      	muls	r0, r5
		p = (b7 * 2) / b4;
 8000fda:	bf58      	it	pl
 8000fdc:	0040      	lslpl	r0, r0, #1
	uint32_t b4 = _bmp180_eeprom.BMP180_AC4 * (uint32_t) (x3 + 32768) / (1 << 15);
 8000fde:	ea4f 31d1 	mov.w	r1, r1, lsr #15
		p = (b7 / b4) * 2;
 8000fe2:	bf46      	itte	mi
 8000fe4:	fbb0 f0f1 	udivmi	r0, r0, r1
 8000fe8:	0040      	lslmi	r0, r0, #1
		p = (b7 * 2) / b4;
 8000fea:	fbb0 f0f1 	udivpl	r0, r0, r1
	x1 = (p / (1 << 8)) * (p / (1 << 8));
 8000fee:	2800      	cmp	r0, #0
 8000ff0:	4603      	mov	r3, r0
 8000ff2:	bfb8      	it	lt
 8000ff4:	f100 03ff 	addlt.w	r3, r0, #255	@ 0xff
 8000ff8:	121b      	asrs	r3, r3, #8
	x1 = (x1 * 3038) / (1 << 16);
 8000ffa:	f640 32de 	movw	r2, #3038	@ 0xbde
	x1 = (p / (1 << 8)) * (p / (1 << 8));
 8000ffe:	435b      	muls	r3, r3
	x1 = (x1 * 3038) / (1 << 16);
 8001000:	4353      	muls	r3, r2
	x2 = (-7357 * p) / (1 << 16);
 8001002:	4a0d      	ldr	r2, [pc, #52]	@ (8001038 <BMP180_GetPressure+0x138>)
 8001004:	4342      	muls	r2, r0
 8001006:	bf44      	itt	mi
 8001008:	f502 427f 	addmi.w	r2, r2, #65280	@ 0xff00
 800100c:	32ff      	addmi	r2, #255	@ 0xff
	x1 = (x1 * 3038) / (1 << 16);
 800100e:	141b      	asrs	r3, r3, #16
	p = p + (x1 + x2 + 3791) / (1 << 4);
 8001010:	eb03 4322 	add.w	r3, r3, r2, asr #16
 8001014:	f603 62cf 	addw	r2, r3, #3791	@ 0xecf
 8001018:	2a00      	cmp	r2, #0
 800101a:	bfb8      	it	lt
 800101c:	f603 62de 	addwlt	r2, r3, #3806	@ 0xede
}
 8001020:	eb00 1022 	add.w	r0, r0, r2, asr #4
 8001024:	bdf8      	pop	{r3, r4, r5, r6, r7, pc}
 8001026:	bf00      	nop
 8001028:	2000029c 	.word	0x2000029c
 800102c:	2000029e 	.word	0x2000029e
 8001030:	0800c8f4 	.word	0x0800c8f4
 8001034:	0800c8f0 	.word	0x0800c8f0
 8001038:	ffffe343 	.word	0xffffe343

0800103c <bno055_write_reg>:
#include "bno055.h"
#include "bno_config.h"

static error_bno bno055_write_reg(bno055_t* imu, u32 addr, u8* buf, u32 size) {
 800103c:	b51f      	push	{r0, r1, r2, r3, r4, lr}
    if (HAL_I2C_Mem_Write(imu->i2c, imu->addr, addr, I2C_MEMADD_SIZE_8BIT, buf, size, HAL_MAX_DELAY) != HAL_OK) {
 800103e:	b29b      	uxth	r3, r3
 8001040:	e9cd 2300 	strd	r2, r3, [sp]
 8001044:	f04f 34ff 	mov.w	r4, #4294967295
 8001048:	9402      	str	r4, [sp, #8]
 800104a:	b28a      	uxth	r2, r1
 800104c:	2301      	movs	r3, #1
 800104e:	7941      	ldrb	r1, [r0, #5]
 8001050:	6800      	ldr	r0, [r0, #0]
 8001052:	f002 fc29 	bl	80038a8 <HAL_I2C_Mem_Write>
        return BNO_ERR_I2C;
    }
    return BNO_OK;
}
 8001056:	3800      	subs	r0, #0
 8001058:	bf18      	it	ne
 800105a:	2001      	movne	r0, #1
 800105c:	b004      	add	sp, #16
 800105e:	bd10      	pop	{r4, pc}

08001060 <bno055_set_page>:
        return BNO_ERR_I2C;
    }
    return BNO_OK;
}

error_bno bno055_set_page(bno055_t* imu, const bno055_page_t page) {
 8001060:	b513      	push	{r0, r1, r4, lr}
    if (imu->_page != page) {
 8001062:	7983      	ldrb	r3, [r0, #6]
error_bno bno055_set_page(bno055_t* imu, const bno055_page_t page) {
 8001064:	f88d 1007 	strb.w	r1, [sp, #7]
    if (imu->_page != page) {
 8001068:	428b      	cmp	r3, r1
error_bno bno055_set_page(bno055_t* imu, const bno055_page_t page) {
 800106a:	4604      	mov	r4, r0
    if (imu->_page != page) {
 800106c:	d102      	bne.n	8001074 <bno055_set_page+0x14>
        if (page > 0x01) return BNO_ERR_PAGE_TOO_HIGH;
        if (bno055_write_reg(imu, BNO_PAGE_ID, (u8*)&page, 1) != BNO_OK) return BNO_ERR_I2C;
        imu->_page = page;
        HAL_Delay(2);
    }
    return BNO_OK;
 800106e:	2000      	movs	r0, #0
}
 8001070:	b002      	add	sp, #8
 8001072:	bd10      	pop	{r4, pc}
        if (page > 0x01) return BNO_ERR_PAGE_TOO_HIGH;
 8001074:	2901      	cmp	r1, #1
 8001076:	d80d      	bhi.n	8001094 <bno055_set_page+0x34>
        if (bno055_write_reg(imu, BNO_PAGE_ID, (u8*)&page, 1) != BNO_OK) return BNO_ERR_I2C;
 8001078:	2301      	movs	r3, #1
 800107a:	f10d 0207 	add.w	r2, sp, #7
 800107e:	2107      	movs	r1, #7
 8001080:	f7ff ffdc 	bl	800103c <bno055_write_reg>
 8001084:	b940      	cbnz	r0, 8001098 <bno055_set_page+0x38>
        imu->_page = page;
 8001086:	f89d 3007 	ldrb.w	r3, [sp, #7]
 800108a:	71a3      	strb	r3, [r4, #6]
        HAL_Delay(2);
 800108c:	2002      	movs	r0, #2
 800108e:	f001 fd8d 	bl	8002bac <HAL_Delay>
 8001092:	e7ec      	b.n	800106e <bno055_set_page+0xe>
        if (page > 0x01) return BNO_ERR_PAGE_TOO_HIGH;
 8001094:	2002      	movs	r0, #2
 8001096:	e7eb      	b.n	8001070 <bno055_set_page+0x10>
        if (bno055_write_reg(imu, BNO_PAGE_ID, (u8*)&page, 1) != BNO_OK) return BNO_ERR_I2C;
 8001098:	2001      	movs	r0, #1
 800109a:	e7e9      	b.n	8001070 <bno055_set_page+0x10>

0800109c <bno055_set_opmode>:

error_bno bno055_set_opmode(bno055_t* imu, const bno055_opmode_t mode) {
 800109c:	b513      	push	{r0, r1, r4, lr}
 800109e:	4604      	mov	r4, r0
 80010a0:	f88d 1007 	strb.w	r1, [sp, #7]
    bno055_set_page(imu, BNO_PAGE_0);
 80010a4:	2100      	movs	r1, #0
 80010a6:	f7ff ffdb 	bl	8001060 <bno055_set_page>
    if (bno055_write_reg(imu, BNO_OPR_MODE, (u8*)&mode, 1) != BNO_OK) return BNO_ERR_I2C;
 80010aa:	4620      	mov	r0, r4
 80010ac:	2301      	movs	r3, #1
 80010ae:	f10d 0207 	add.w	r2, sp, #7
 80010b2:	213d      	movs	r1, #61	@ 0x3d
 80010b4:	f7ff ffc2 	bl	800103c <bno055_write_reg>
 80010b8:	4604      	mov	r4, r0
 80010ba:	b928      	cbnz	r0, 80010c8 <bno055_set_opmode+0x2c>
    HAL_Delay(BNO_ANY_TIME_DELAY + 5);
 80010bc:	2018      	movs	r0, #24
 80010be:	f001 fd75 	bl	8002bac <HAL_Delay>
    return BNO_OK;
}
 80010c2:	4620      	mov	r0, r4
 80010c4:	b002      	add	sp, #8
 80010c6:	bd10      	pop	{r4, pc}
    if (bno055_write_reg(imu, BNO_OPR_MODE, (u8*)&mode, 1) != BNO_OK) return BNO_ERR_I2C;
 80010c8:	2401      	movs	r4, #1
 80010ca:	e7fa      	b.n	80010c2 <bno055_set_opmode+0x26>

080010cc <bno055_set_pwr_mode>:

error_bno bno055_set_pwr_mode(bno055_t* imu, bno055_pwr_t pwr_mode) {
 80010cc:	b537      	push	{r0, r1, r2, r4, r5, lr}
 80010ce:	4604      	mov	r4, r0
 80010d0:	f88d 1007 	strb.w	r1, [sp, #7]
    bno055_set_opmode(imu, BNO_MODE_CONFIG);
 80010d4:	2100      	movs	r1, #0
 80010d6:	f7ff ffe1 	bl	800109c <bno055_set_opmode>
    bno055_set_page(imu, BNO_PAGE_0);
 80010da:	2100      	movs	r1, #0
 80010dc:	4620      	mov	r0, r4
 80010de:	f7ff ffbf 	bl	8001060 <bno055_set_page>
    if (bno055_write_reg(imu, BNO_PWR_MODE, (u8*)&pwr_mode, 1) != BNO_OK) return BNO_ERR_I2C;
 80010e2:	2301      	movs	r3, #1
 80010e4:	f10d 0207 	add.w	r2, sp, #7
 80010e8:	213e      	movs	r1, #62	@ 0x3e
 80010ea:	4620      	mov	r0, r4
 80010ec:	f7ff ffa6 	bl	800103c <bno055_write_reg>
 80010f0:	4605      	mov	r5, r0
 80010f2:	b948      	cbnz	r0, 8001108 <bno055_set_pwr_mode+0x3c>
    bno055_set_opmode(imu, imu->mode);
 80010f4:	7921      	ldrb	r1, [r4, #4]
 80010f6:	4620      	mov	r0, r4
 80010f8:	f7ff ffd0 	bl	800109c <bno055_set_opmode>
    HAL_Delay(2);
 80010fc:	2002      	movs	r0, #2
 80010fe:	f001 fd55 	bl	8002bac <HAL_Delay>
    return BNO_OK;
}
 8001102:	4628      	mov	r0, r5
 8001104:	b003      	add	sp, #12
 8001106:	bd30      	pop	{r4, r5, pc}
    if (bno055_write_reg(imu, BNO_PWR_MODE, (u8*)&pwr_mode, 1) != BNO_OK) return BNO_ERR_I2C;
 8001108:	2501      	movs	r5, #1
 800110a:	e7fa      	b.n	8001102 <bno055_set_pwr_mode+0x36>

0800110c <bno055_reset>:

error_bno bno055_reset(bno055_t* imu) {
 800110c:	b507      	push	{r0, r1, r2, lr}
    u8 data = 0x20U;
 800110e:	2320      	movs	r3, #32
 8001110:	f88d 3007 	strb.w	r3, [sp, #7]
    return bno055_write_reg(imu, BNO_SYS_TRIGGER, &data, 1);
 8001114:	f10d 0207 	add.w	r2, sp, #7
 8001118:	2301      	movs	r3, #1
 800111a:	213f      	movs	r1, #63	@ 0x3f
 800111c:	f7ff ff8e 	bl	800103c <bno055_write_reg>
}
 8001120:	b003      	add	sp, #12
 8001122:	f85d fb04 	ldr.w	pc, [sp], #4

08001126 <bno055_init>:

error_bno bno055_init(bno055_t* imu) {
 8001126:	b570      	push	{r4, r5, r6, lr}
    u8 id = 0;

    imu->addr = (imu->addr << 1);
 8001128:	7941      	ldrb	r1, [r0, #5]
 800112a:	0049      	lsls	r1, r1, #1
error_bno bno055_init(bno055_t* imu) {
 800112c:	b086      	sub	sp, #24
    imu->addr = (imu->addr << 1);
 800112e:	b2c9      	uxtb	r1, r1
    if (HAL_I2C_Mem_Read(imu->i2c, imu->addr, addr, I2C_MEMADD_SIZE_8BIT, buf, size, HAL_MAX_DELAY) != HAL_OK) {
 8001130:	2601      	movs	r6, #1
 8001132:	f04f 33ff 	mov.w	r3, #4294967295
    imu->addr = (imu->addr << 1);
 8001136:	7141      	strb	r1, [r0, #5]
    if (HAL_I2C_Mem_Read(imu->i2c, imu->addr, addr, I2C_MEMADD_SIZE_8BIT, buf, size, HAL_MAX_DELAY) != HAL_OK) {
 8001138:	e9cd 6301 	strd	r6, r3, [sp, #4]
 800113c:	f10d 0316 	add.w	r3, sp, #22
 8001140:	9300      	str	r3, [sp, #0]
    u8 id = 0;
 8001142:	2200      	movs	r2, #0
error_bno bno055_init(bno055_t* imu) {
 8001144:	4604      	mov	r4, r0
    if (HAL_I2C_Mem_Read(imu->i2c, imu->addr, addr, I2C_MEMADD_SIZE_8BIT, buf, size, HAL_MAX_DELAY) != HAL_OK) {
 8001146:	4633      	mov	r3, r6
 8001148:	6800      	ldr	r0, [r0, #0]
    u8 id = 0;
 800114a:	f88d 2016 	strb.w	r2, [sp, #22]
    if (HAL_I2C_Mem_Read(imu->i2c, imu->addr, addr, I2C_MEMADD_SIZE_8BIT, buf, size, HAL_MAX_DELAY) != HAL_OK) {
 800114e:	f002 fc85 	bl	8003a5c <HAL_I2C_Mem_Read>
 8001152:	4605      	mov	r5, r0
 8001154:	bb58      	cbnz	r0, 80011ae <bno055_init+0x88>

    if (bno055_read_reg(imu, BNO_CHIP_ID, &id, 1) != BNO_OK) return BNO_ERR_I2C;
    if (id != BNO_DEF_CHIP_ID) return BNO_ERR_WRONG_CHIP_ID;
 8001156:	f89d 3016 	ldrb.w	r3, [sp, #22]
 800115a:	2ba0      	cmp	r3, #160	@ 0xa0
 800115c:	d129      	bne.n	80011b2 <bno055_init+0x8c>

    bno055_set_opmode(imu, BNO_MODE_CONFIG);
 800115e:	4601      	mov	r1, r0
 8001160:	4620      	mov	r0, r4
 8001162:	f7ff ff9b 	bl	800109c <bno055_set_opmode>
    HAL_Delay(2);
 8001166:	2002      	movs	r0, #2
 8001168:	f001 fd20 	bl	8002bac <HAL_Delay>
    bno055_reset(imu);
 800116c:	4620      	mov	r0, r4
 800116e:	f7ff ffcd 	bl	800110c <bno055_reset>
    HAL_Delay(800); // Reset takes time
 8001172:	f44f 7048 	mov.w	r0, #800	@ 0x320
 8001176:	f001 fd19 	bl	8002bac <HAL_Delay>

    bno055_set_pwr_mode(imu, BNO_PWR_NORMAL);
 800117a:	4629      	mov	r1, r5
 800117c:	4620      	mov	r0, r4
 800117e:	f7ff ffa5 	bl	80010cc <bno055_set_pwr_mode>
    bno055_set_page(imu, BNO_PAGE_0);
 8001182:	4629      	mov	r1, r5
 8001184:	4620      	mov	r0, r4
 8001186:	f7ff ff6b 	bl	8001060 <bno055_set_page>

    // Trigger internal clock
    u8 trigger = 0x00U;
    bno055_write_reg(imu, BNO_SYS_TRIGGER, &trigger, 1);
 800118a:	4633      	mov	r3, r6
 800118c:	f10d 0217 	add.w	r2, sp, #23
 8001190:	213f      	movs	r1, #63	@ 0x3f
 8001192:	4620      	mov	r0, r4
    u8 trigger = 0x00U;
 8001194:	f88d 5017 	strb.w	r5, [sp, #23]
    bno055_write_reg(imu, BNO_SYS_TRIGGER, &trigger, 1);
 8001198:	f7ff ff50 	bl	800103c <bno055_write_reg>

    bno055_set_opmode(imu, imu->mode);
 800119c:	7921      	ldrb	r1, [r4, #4]
 800119e:	4620      	mov	r0, r4
 80011a0:	f7ff ff7c 	bl	800109c <bno055_set_opmode>

    imu->dma_data_ready = false;
 80011a4:	f884 5038 	strb.w	r5, [r4, #56]	@ 0x38
    return BNO_OK;
}
 80011a8:	4628      	mov	r0, r5
 80011aa:	b006      	add	sp, #24
 80011ac:	bd70      	pop	{r4, r5, r6, pc}
    if (bno055_read_reg(imu, BNO_CHIP_ID, &id, 1) != BNO_OK) return BNO_ERR_I2C;
 80011ae:	4635      	mov	r5, r6
 80011b0:	e7fa      	b.n	80011a8 <bno055_init+0x82>
    if (id != BNO_DEF_CHIP_ID) return BNO_ERR_WRONG_CHIP_ID;
 80011b2:	2506      	movs	r5, #6
 80011b4:	e7f8      	b.n	80011a8 <bno055_init+0x82>

080011b6 <bno055_set_unit>:

error_bno bno055_set_unit(bno055_t* bno, const bno055_temp_unitsel_t t_unit, const bno055_gyr_unitsel_t g_unit, const bno055_acc_unitsel_t a_unit, const bno055_eul_unitsel_t e_unit) {
 80011b6:	e92d 43f7 	stmdb	sp!, {r0, r1, r2, r4, r5, r6, r7, r8, r9, lr}
 80011ba:	4604      	mov	r4, r0
 80011bc:	f89d 9028 	ldrb.w	r9, [sp, #40]	@ 0x28
 80011c0:	460e      	mov	r6, r1
    bno055_set_opmode(bno, BNO_MODE_CONFIG);
 80011c2:	2100      	movs	r1, #0
error_bno bno055_set_unit(bno055_t* bno, const bno055_temp_unitsel_t t_unit, const bno055_gyr_unitsel_t g_unit, const bno055_acc_unitsel_t a_unit, const bno055_eul_unitsel_t e_unit) {
 80011c4:	4690      	mov	r8, r2
 80011c6:	461f      	mov	r7, r3
    bno055_set_opmode(bno, BNO_MODE_CONFIG);
 80011c8:	f7ff ff68 	bl	800109c <bno055_set_opmode>
    bno055_set_page(bno, BNO_PAGE_0);
 80011cc:	2100      	movs	r1, #0
 80011ce:	4620      	mov	r0, r4
 80011d0:	f7ff ff46 	bl	8001060 <bno055_set_page>

    u8 data = t_unit | g_unit | a_unit | e_unit;
 80011d4:	ea47 0009 	orr.w	r0, r7, r9
 80011d8:	ea48 0000 	orr.w	r0, r8, r0
 80011dc:	4330      	orrs	r0, r6
 80011de:	f88d 0007 	strb.w	r0, [sp, #7]
    if (bno055_write_reg(bno, BNO_UNIT_SEL, &data, 1) != BNO_OK) return BNO_ERR_I2C;
 80011e2:	2301      	movs	r3, #1
 80011e4:	f10d 0207 	add.w	r2, sp, #7
 80011e8:	213b      	movs	r1, #59	@ 0x3b
 80011ea:	4620      	mov	r0, r4
 80011ec:	f7ff ff26 	bl	800103c <bno055_write_reg>
 80011f0:	4605      	mov	r5, r0
 80011f2:	b968      	cbnz	r0, 8001210 <bno055_set_unit+0x5a>
    bno->_gyr_unit = g_unit;
    bno->_acc_unit = a_unit;
    bno->_eul_unit = e_unit;
    bno->_temp_unit = t_unit;

    bno055_set_opmode(bno, bno->mode);
 80011f4:	7921      	ldrb	r1, [r4, #4]
    bno->_gyr_unit = g_unit;
 80011f6:	f884 8009 	strb.w	r8, [r4, #9]
    bno->_acc_unit = a_unit;
 80011fa:	71e7      	strb	r7, [r4, #7]
    bno->_eul_unit = e_unit;
 80011fc:	f884 900a 	strb.w	r9, [r4, #10]
    bno->_temp_unit = t_unit;
 8001200:	7226      	strb	r6, [r4, #8]
    bno055_set_opmode(bno, bno->mode);
 8001202:	4620      	mov	r0, r4
 8001204:	f7ff ff4a 	bl	800109c <bno055_set_opmode>
    return BNO_OK;
}
 8001208:	4628      	mov	r0, r5
 800120a:	b003      	add	sp, #12
 800120c:	e8bd 83f0 	ldmia.w	sp!, {r4, r5, r6, r7, r8, r9, pc}
    if (bno055_write_reg(bno, BNO_UNIT_SEL, &data, 1) != BNO_OK) return BNO_ERR_I2C;
 8001210:	2501      	movs	r5, #1
 8001212:	e7f9      	b.n	8001208 <bno055_set_unit+0x52>

08001214 <bno055_start_dma_read>:
    bno055_set_opmode(bno, bno->mode);
    bno055_set_page(bno, BNO_PAGE_0);
    return BNO_OK;
}

error_bno bno055_start_dma_read(bno055_t* imu) {
 8001214:	b507      	push	{r0, r1, r2, lr}
    imu->dma_data_ready = false;
 8001216:	2300      	movs	r3, #0
 8001218:	f880 3038 	strb.w	r3, [r0, #56]	@ 0x38
    if (HAL_I2C_Mem_Read_DMA(imu->i2c, imu->addr, BNO_ACC_DATA_X_LSB, I2C_MEMADD_SIZE_8BIT, imu->rx_buf, 45) != HAL_OK) {
 800121c:	232d      	movs	r3, #45	@ 0x2d
 800121e:	9301      	str	r3, [sp, #4]
 8001220:	f100 030b 	add.w	r3, r0, #11
 8001224:	9300      	str	r3, [sp, #0]
 8001226:	7941      	ldrb	r1, [r0, #5]
 8001228:	6800      	ldr	r0, [r0, #0]
 800122a:	2301      	movs	r3, #1
 800122c:	2208      	movs	r2, #8
 800122e:	f002 fcf3 	bl	8003c18 <HAL_I2C_Mem_Read_DMA>
        return BNO_ERR_I2C;
    }
    return BNO_OK;
}
 8001232:	3800      	subs	r0, #0
 8001234:	bf18      	it	ne
 8001236:	2001      	movne	r0, #1
 8001238:	b003      	add	sp, #12
 800123a:	f85d fb04 	ldr.w	pc, [sp], #4
	...

08001240 <bno055_get_euler>:
    buf->y = (s16)((imu->rx_buf[15] << 8) | imu->rx_buf[14]) / scale;
    buf->z = (s16)((imu->rx_buf[17] << 8) | imu->rx_buf[16]) / scale;
}

void bno055_get_euler(bno055_t* imu, bno055_euler_t* buf) {
    f32 scale = (imu->_eul_unit == BNO_EUL_UNIT_DEG) ? BNO_EUL_SCALE_DEG : BNO_EUL_SCALE_RAD;
 8001240:	7a83      	ldrb	r3, [r0, #10]
 8001242:	eddf 7a13 	vldr	s15, [pc, #76]	@ 8001290 <bno055_get_euler+0x50>
 8001246:	2b00      	cmp	r3, #0
    buf->yaw   = (s16)((imu->rx_buf[19] << 8) | imu->rx_buf[18]) / scale;
 8001248:	f9b0 301d 	ldrsh.w	r3, [r0, #29]
    f32 scale = (imu->_eul_unit == BNO_EUL_UNIT_DEG) ? BNO_EUL_SCALE_DEG : BNO_EUL_SCALE_RAD;
 800124c:	eeb3 7a00 	vmov.f32	s14, #48	@ 0x41800000  16.0
 8001250:	bf08      	it	eq
 8001252:	eef0 7a47 	vmoveq.f32	s15, s14
    buf->yaw   = (s16)((imu->rx_buf[19] << 8) | imu->rx_buf[18]) / scale;
 8001256:	ee07 3a10 	vmov	s14, r3
 800125a:	eeb8 7ac7 	vcvt.f32.s32	s14, s14
 800125e:	eec7 6a27 	vdiv.f32	s13, s14, s15
 8001262:	edc1 6a02 	vstr	s13, [r1, #8]
    buf->roll  = (s16)((imu->rx_buf[21] << 8) | imu->rx_buf[20]) / scale;
 8001266:	f9b0 301f 	ldrsh.w	r3, [r0, #31]
 800126a:	ee07 3a10 	vmov	s14, r3
 800126e:	eeb8 7ac7 	vcvt.f32.s32	s14, s14
 8001272:	eec7 6a27 	vdiv.f32	s13, s14, s15
 8001276:	edc1 6a00 	vstr	s13, [r1]
    buf->pitch = (s16)((imu->rx_buf[23] << 8) | imu->rx_buf[22]) / scale;
 800127a:	f9b0 3021 	ldrsh.w	r3, [r0, #33]	@ 0x21
 800127e:	ee07 3a10 	vmov	s14, r3
 8001282:	eeb8 7ac7 	vcvt.f32.s32	s14, s14
 8001286:	eec7 6a27 	vdiv.f32	s13, s14, s15
 800128a:	edc1 6a01 	vstr	s13, [r1, #4]
}
 800128e:	4770      	bx	lr
 8001290:	44610000 	.word	0x44610000

08001294 <bno055_get_quaternion>:

void bno055_get_quaternion(bno055_t* imu, bno055_vec4_t* buf) {
    buf->w = (s16)((imu->rx_buf[25] << 8) | imu->rx_buf[24]) / (f32)BNO_QUA_SCALE;
 8001294:	f9b0 3023 	ldrsh.w	r3, [r0, #35]	@ 0x23
 8001298:	ed9f 7a14 	vldr	s14, [pc, #80]	@ 80012ec <bno055_get_quaternion+0x58>
 800129c:	ee07 3a90 	vmov	s15, r3
 80012a0:	eef8 7ae7 	vcvt.f32.s32	s15, s15
 80012a4:	ee67 7a87 	vmul.f32	s15, s15, s14
 80012a8:	edc1 7a03 	vstr	s15, [r1, #12]
    buf->x = (s16)((imu->rx_buf[27] << 8) | imu->rx_buf[26]) / (f32)BNO_QUA_SCALE;
 80012ac:	f9b0 3025 	ldrsh.w	r3, [r0, #37]	@ 0x25
 80012b0:	ee07 3a90 	vmov	s15, r3
 80012b4:	eef8 7ae7 	vcvt.f32.s32	s15, s15
 80012b8:	ee67 7a87 	vmul.f32	s15, s15, s14
 80012bc:	edc1 7a00 	vstr	s15, [r1]
    buf->y = (s16)((imu->rx_buf[29] << 8) | imu->rx_buf[28]) / (f32)BNO_QUA_SCALE;
 80012c0:	f9b0 3027 	ldrsh.w	r3, [r0, #39]	@ 0x27
 80012c4:	ee07 3a90 	vmov	s15, r3
 80012c8:	eef8 7ae7 	vcvt.f32.s32	s15, s15
 80012cc:	ee67 7a87 	vmul.f32	s15, s15, s14
 80012d0:	edc1 7a01 	vstr	s15, [r1, #4]
    buf->z = (s16)((imu->rx_buf[31] << 8) | imu->rx_buf[30]) / (f32)BNO_QUA_SCALE;
 80012d4:	f9b0 3029 	ldrsh.w	r3, [r0, #41]	@ 0x29
 80012d8:	ee07 3a90 	vmov	s15, r3
 80012dc:	eef8 7ae7 	vcvt.f32.s32	s15, s15
 80012e0:	ee67 7a87 	vmul.f32	s15, s15, s14
 80012e4:	edc1 7a02 	vstr	s15, [r1, #8]
}
 80012e8:	4770      	bx	lr
 80012ea:	bf00      	nop
 80012ec:	38800000 	.word	0x38800000

080012f0 <bno055_get_linear_acc>:

void bno055_get_linear_acc(bno055_t* imu, bno055_vec3_t* buf) {
    float scale = (imu->_acc_unit == BNO_ACC_UNITSEL_M_S2) ? BNO_ACC_SCALE_M_2 : BNO_ACC_SCALE_MG;
 80012f0:	79c3      	ldrb	r3, [r0, #7]
 80012f2:	ed9f 7a13 	vldr	s14, [pc, #76]	@ 8001340 <bno055_get_linear_acc+0x50>
 80012f6:	2b00      	cmp	r3, #0
    buf->x = (s16)((imu->rx_buf[33] << 8) | imu->rx_buf[32]) / scale;
 80012f8:	f9b0 302b 	ldrsh.w	r3, [r0, #43]	@ 0x2b
    float scale = (imu->_acc_unit == BNO_ACC_UNITSEL_M_S2) ? BNO_ACC_SCALE_M_2 : BNO_ACC_SCALE_MG;
 80012fc:	eef7 7a00 	vmov.f32	s15, #112	@ 0x3f800000  1.0
 8001300:	bf08      	it	eq
 8001302:	eef0 7a47 	vmoveq.f32	s15, s14
    buf->x = (s16)((imu->rx_buf[33] << 8) | imu->rx_buf[32]) / scale;
 8001306:	ee07 3a10 	vmov	s14, r3
 800130a:	eeb8 7ac7 	vcvt.f32.s32	s14, s14
 800130e:	eec7 6a27 	vdiv.f32	s13, s14, s15
 8001312:	edc1 6a00 	vstr	s13, [r1]
    buf->y = (s16)((imu->rx_buf[35] << 8) | imu->rx_buf[34]) / scale;
 8001316:	f9b0 302d 	ldrsh.w	r3, [r0, #45]	@ 0x2d
 800131a:	ee07 3a10 	vmov	s14, r3
 800131e:	eeb8 7ac7 	vcvt.f32.s32	s14, s14
 8001322:	eec7 6a27 	vdiv.f32	s13, s14, s15
 8001326:	edc1 6a01 	vstr	s13, [r1, #4]
    buf->z = (s16)((imu->rx_buf[37] << 8) | imu->rx_buf[36]) / scale;
 800132a:	f9b0 302f 	ldrsh.w	r3, [r0, #47]	@ 0x2f
 800132e:	ee07 3a10 	vmov	s14, r3
 8001332:	eeb8 7ac7 	vcvt.f32.s32	s14, s14
 8001336:	eec7 6a27 	vdiv.f32	s13, s14, s15
 800133a:	edc1 6a02 	vstr	s13, [r1, #8]
}
 800133e:	4770      	bx	lr
 8001340:	42c80000 	.word	0x42c80000

08001344 <HAL_I2C_MemRxCpltCallback>:
static void MX_USART2_UART_Init(void);
static void MX_I2C1_Init(void);
static void MX_CRC_Init(void);
/* USER CODE BEGIN PFP */

void HAL_I2C_MemRxCpltCallback(I2C_HandleTypeDef *hi2c) {
 8001344:	b508      	push	{r3, lr}
    if (hi2c->Instance == I2C1) {
 8001346:	6802      	ldr	r2, [r0, #0]
 8001348:	4b05      	ldr	r3, [pc, #20]	@ (8001360 <HAL_I2C_MemRxCpltCallback+0x1c>)
 800134a:	429a      	cmp	r2, r3
 800134c:	d107      	bne.n	800135e <HAL_I2C_MemRxCpltCallback+0x1a>
    	BNO055_timeStamp = HAL_GetTick();
 800134e:	f001 fc27 	bl	8002ba0 <HAL_GetTick>
 8001352:	4b04      	ldr	r3, [pc, #16]	@ (8001364 <HAL_I2C_MemRxCpltCallback+0x20>)
 8001354:	6018      	str	r0, [r3, #0]
        bno.dma_data_ready = true;
 8001356:	4b04      	ldr	r3, [pc, #16]	@ (8001368 <HAL_I2C_MemRxCpltCallback+0x24>)
 8001358:	2201      	movs	r2, #1
 800135a:	f883 2038 	strb.w	r2, [r3, #56]	@ 0x38
    }
}
 800135e:	bd08      	pop	{r3, pc}
 8001360:	40005400 	.word	0x40005400
 8001364:	20000548 	.word	0x20000548
 8001368:	2000050c 	.word	0x2000050c

0800136c <HAL_I2C_ErrorCallback>:

void HAL_I2C_ErrorCallback(I2C_HandleTypeDef *hi2c) {
    if (hi2c->Instance == I2C1) {
 800136c:	6802      	ldr	r2, [r0, #0]
 800136e:	4b04      	ldr	r3, [pc, #16]	@ (8001380 <HAL_I2C_ErrorCallback+0x14>)
 8001370:	429a      	cmp	r2, r3
        // I2C error occurred, restart the DMA read
        bno.dma_data_ready = false;
 8001372:	bf02      	ittt	eq
 8001374:	4b03      	ldreq	r3, [pc, #12]	@ (8001384 <HAL_I2C_ErrorCallback+0x18>)
 8001376:	2200      	moveq	r2, #0
 8001378:	f883 2038 	strbeq.w	r2, [r3, #56]	@ 0x38
        // Optionally, you can add a counter here to track errors
    }
}
 800137c:	4770      	bx	lr
 800137e:	bf00      	nop
 8001380:	40005400 	.word	0x40005400
 8001384:	2000050c 	.word	0x2000050c

08001388 <HAL_UART_ErrorCallback>:

void HAL_UART_ErrorCallback(UART_HandleTypeDef *huart) {
	nslp_uart_error_handler(huart);
 8001388:	f000 bc80 	b.w	8001c8c <nslp_uart_error_handler>

0800138c <HAL_UARTEx_RxEventCallback>:
}

void HAL_UARTEx_RxEventCallback(UART_HandleTypeDef *huart, uint16_t Size)
{
 800138c:	b538      	push	{r3, r4, r5, lr}

	if (huart->Instance == USART1)//Check which interupt was triggered
 800138e:	6802      	ldr	r2, [r0, #0]
 8001390:	4b0e      	ldr	r3, [pc, #56]	@ (80013cc <HAL_UARTEx_RxEventCallback+0x40>)
 8001392:	429a      	cmp	r2, r3
{
 8001394:	4604      	mov	r4, r0
 8001396:	460d      	mov	r5, r1
	if (huart->Instance == USART1)//Check which interupt was triggered
 8001398:	d111      	bne.n	80013be <HAL_UARTEx_RxEventCallback+0x32>
	{
		GPS_timeStamp = HAL_GetTick();
 800139a:	f001 fc01 	bl	8002ba0 <HAL_GetTick>
 800139e:	4b0c      	ldr	r3, [pc, #48]	@ (80013d0 <HAL_UARTEx_RxEventCallback+0x44>)
		recieved_GPS = true;

		/* restart the DMA  */
		HAL_UARTEx_ReceiveToIdle_DMA(&huart1, (uint8_t *) rx_buffer, sizeof(rx_buffer)); //Restart interupt
 80013a0:	490c      	ldr	r1, [pc, #48]	@ (80013d4 <HAL_UARTEx_RxEventCallback+0x48>)
		GPS_timeStamp = HAL_GetTick();
 80013a2:	6018      	str	r0, [r3, #0]
		recieved_GPS = true;
 80013a4:	4b0c      	ldr	r3, [pc, #48]	@ (80013d8 <HAL_UARTEx_RxEventCallback+0x4c>)
		HAL_UARTEx_ReceiveToIdle_DMA(&huart1, (uint8_t *) rx_buffer, sizeof(rx_buffer)); //Restart interupt
 80013a6:	480d      	ldr	r0, [pc, #52]	@ (80013dc <HAL_UARTEx_RxEventCallback+0x50>)
		recieved_GPS = true;
 80013a8:	2201      	movs	r2, #1
 80013aa:	701a      	strb	r2, [r3, #0]
		HAL_UARTEx_ReceiveToIdle_DMA(&huart1, (uint8_t *) rx_buffer, sizeof(rx_buffer)); //Restart interupt
 80013ac:	223c      	movs	r2, #60	@ 0x3c
 80013ae:	f004 faea 	bl	8005986 <HAL_UARTEx_ReceiveToIdle_DMA>
		__HAL_DMA_DISABLE_IT(&hdma_usart1_rx, DMA_IT_HT); //Dont interupt on half buffer
 80013b2:	4b0b      	ldr	r3, [pc, #44]	@ (80013e0 <HAL_UARTEx_RxEventCallback+0x54>)
 80013b4:	681a      	ldr	r2, [r3, #0]
 80013b6:	6813      	ldr	r3, [r2, #0]
 80013b8:	f023 0304 	bic.w	r3, r3, #4
 80013bc:	6013      	str	r3, [r2, #0]
	}
	nslp_uart_rx_event_handler(huart, Size);
 80013be:	4629      	mov	r1, r5
 80013c0:	4620      	mov	r0, r4
}
 80013c2:	e8bd 4038 	ldmia.w	sp!, {r3, r4, r5, lr}
	nslp_uart_rx_event_handler(huart, Size);
 80013c6:	f000 bc01 	b.w	8001bcc <nslp_uart_rx_event_handler>
 80013ca:	bf00      	nop
 80013cc:	40013800 	.word	0x40013800
 80013d0:	200003f4 	.word	0x200003f4
 80013d4:	200003f8 	.word	0x200003f8
 80013d8:	200003f0 	.word	0x200003f0
 80013dc:	200006a8 	.word	0x200006a8
 80013e0:	200005dc 	.word	0x200005dc

080013e4 <HAL_UART_TxCpltCallback>:

void HAL_UART_TxCpltCallback(UART_HandleTypeDef *huart){
	nslp_uart_tx_cplt_handler(huart);
 80013e4:	f000 bbdb 	b.w	8001b9e <nslp_uart_tx_cplt_handler>

080013e8 <parse_i2c_data>:
}

void parse_i2c_data(){
 80013e8:	b5f8      	push	{r3, r4, r5, r6, r7, lr}
	static uint32_t lastBMP180Time = 0;

		if (bno.dma_data_ready) {
 80013ea:	4c2e      	ldr	r4, [pc, #184]	@ (80014a4 <parse_i2c_data+0xbc>)
 80013ec:	f894 3038 	ldrb.w	r3, [r4, #56]	@ 0x38
 80013f0:	2b00      	cmp	r3, #0
 80013f2:	d037      	beq.n	8001464 <parse_i2c_data+0x7c>

			bno055_get_linear_acc(&bno, &accel);
 80013f4:	4f2c      	ldr	r7, [pc, #176]	@ (80014a8 <parse_i2c_data+0xc0>)
			bno055_get_euler(&bno, &euler);
 80013f6:	4e2d      	ldr	r6, [pc, #180]	@ (80014ac <parse_i2c_data+0xc4>)
			bno055_get_quaternion(&bno, &quat);

			// Copy accelerometer data to transmission structure
			BNO055_data_a.ax = accel.x;
 80013f8:	4d2d      	ldr	r5, [pc, #180]	@ (80014b0 <parse_i2c_data+0xc8>)
			bno055_get_linear_acc(&bno, &accel);
 80013fa:	4639      	mov	r1, r7
 80013fc:	4620      	mov	r0, r4
 80013fe:	f7ff ff77 	bl	80012f0 <bno055_get_linear_acc>
			bno055_get_euler(&bno, &euler);
 8001402:	4631      	mov	r1, r6
 8001404:	4620      	mov	r0, r4
 8001406:	f7ff ff1b 	bl	8001240 <bno055_get_euler>
			bno055_get_quaternion(&bno, &quat);
 800140a:	492a      	ldr	r1, [pc, #168]	@ (80014b4 <parse_i2c_data+0xcc>)
 800140c:	4620      	mov	r0, r4
 800140e:	f7ff ff41 	bl	8001294 <bno055_get_quaternion>
			BNO055_data_a.ax = accel.x;
 8001412:	6838      	ldr	r0, [r7, #0]
 8001414:	f7ff f898 	bl	8000548 <__aeabi_f2d>
 8001418:	e9c5 0100 	strd	r0, r1, [r5]
			BNO055_data_a.ay = accel.y;
 800141c:	6878      	ldr	r0, [r7, #4]
 800141e:	f7ff f893 	bl	8000548 <__aeabi_f2d>
 8001422:	e9c5 0102 	strd	r0, r1, [r5, #8]
			BNO055_data_a.az = accel.z;
 8001426:	68b8      	ldr	r0, [r7, #8]
 8001428:	f7ff f88e 	bl	8000548 <__aeabi_f2d>
			BNO055_data_a.time = BNO055_timeStamp;
 800142c:	4b22      	ldr	r3, [pc, #136]	@ (80014b8 <parse_i2c_data+0xd0>)
 800142e:	681f      	ldr	r7, [r3, #0]
 8001430:	61af      	str	r7, [r5, #24]
			BNO055_data_a.az = accel.z;
 8001432:	e9c5 0104 	strd	r0, r1, [r5, #16]

			BNO055_data_g.gx = euler.pitch;
 8001436:	6870      	ldr	r0, [r6, #4]
 8001438:	4d20      	ldr	r5, [pc, #128]	@ (80014bc <parse_i2c_data+0xd4>)
 800143a:	f7ff f885 	bl	8000548 <__aeabi_f2d>
 800143e:	e9c5 0100 	strd	r0, r1, [r5]
			BNO055_data_g.gy = euler.roll;
 8001442:	6830      	ldr	r0, [r6, #0]
 8001444:	f7ff f880 	bl	8000548 <__aeabi_f2d>
 8001448:	e9c5 0102 	strd	r0, r1, [r5, #8]
			BNO055_data_g.gz = euler.yaw;
 800144c:	68b0      	ldr	r0, [r6, #8]
 800144e:	f7ff f87b 	bl	8000548 <__aeabi_f2d>
 8001452:	e9c5 0104 	strd	r0, r1, [r5, #16]
			BNO055_data_g.time = BNO055_timeStamp;

			bno055_start_dma_read(&bno);
 8001456:	4620      	mov	r0, r4
			BNO055_data_g.time = BNO055_timeStamp;
 8001458:	61af      	str	r7, [r5, #24]
			bno055_start_dma_read(&bno);
 800145a:	f7ff fedb 	bl	8001214 <bno055_start_dma_read>

			estimation_imu_ready = true;
 800145e:	4b18      	ldr	r3, [pc, #96]	@ (80014c0 <parse_i2c_data+0xd8>)
 8001460:	2201      	movs	r2, #1
 8001462:	701a      	strb	r2, [r3, #0]
		}

		if (HAL_GetTick() - lastBMP180Time > BMP180_interval){ //reads pressure and temperature from BMP180 sensor every BMP180_interval
 8001464:	4d17      	ldr	r5, [pc, #92]	@ (80014c4 <parse_i2c_data+0xdc>)
 8001466:	f001 fb9b 	bl	8002ba0 <HAL_GetTick>
 800146a:	682b      	ldr	r3, [r5, #0]
 800146c:	1ac0      	subs	r0, r0, r3
 800146e:	f5b0 7f7a 	cmp.w	r0, #1000	@ 0x3e8
 8001472:	d916      	bls.n	80014a2 <parse_i2c_data+0xba>
			//reads pressure and temperature from BMP180 sensor
				temperature = BMP180_GetRawTemperature();
 8001474:	f7ff fcf0 	bl	8000e58 <BMP180_GetRawTemperature>
 8001478:	ee07 0a90 	vmov	s15, r0
 800147c:	4e12      	ldr	r6, [pc, #72]	@ (80014c8 <parse_i2c_data+0xe0>)
				pressure = BMP180_GetPressure();

				//write data to NSLP paylaod
				BMP_data.temp = temperature;
 800147e:	4c13      	ldr	r4, [pc, #76]	@ (80014cc <parse_i2c_data+0xe4>)
				temperature = BMP180_GetRawTemperature();
 8001480:	eef8 7ae7 	vcvt.f32.s32	s15, s15
 8001484:	edc6 7a00 	vstr	s15, [r6]
				pressure = BMP180_GetPressure();
 8001488:	f7ff fd3a 	bl	8000f00 <BMP180_GetPressure>
 800148c:	4b10      	ldr	r3, [pc, #64]	@ (80014d0 <parse_i2c_data+0xe8>)
				BMP_data.press = pressure;
 800148e:	6060      	str	r0, [r4, #4]
				pressure = BMP180_GetPressure();
 8001490:	6018      	str	r0, [r3, #0]
				BMP_data.temp = temperature;
 8001492:	6833      	ldr	r3, [r6, #0]
 8001494:	6023      	str	r3, [r4, #0]

				BMP_data.time = HAL_GetTick();
 8001496:	f001 fb83 	bl	8002ba0 <HAL_GetTick>
 800149a:	60a0      	str	r0, [r4, #8]
				lastBMP180Time = HAL_GetTick();
 800149c:	f001 fb80 	bl	8002ba0 <HAL_GetTick>
 80014a0:	6028      	str	r0, [r5, #0]
		}

	}
 80014a2:	bdf8      	pop	{r3, r4, r5, r6, r7, pc}
 80014a4:	2000050c 	.word	0x2000050c
 80014a8:	20000500 	.word	0x20000500
 80014ac:	200004e4 	.word	0x200004e4
 80014b0:	20000880 	.word	0x20000880
 80014b4:	200004f0 	.word	0x200004f0
 80014b8:	20000548 	.word	0x20000548
 80014bc:	20000850 	.word	0x20000850
 80014c0:	200003ec 	.word	0x200003ec
 80014c4:	200002b8 	.word	0x200002b8
 80014c8:	20000550 	.word	0x20000550
 80014cc:	20000870 	.word	0x20000870
 80014d0:	2000054c 	.word	0x2000054c

080014d4 <parse_gps_data>:

void parse_gps_data(){
 80014d4:	b570      	push	{r4, r5, r6, lr}

		if(recieved_GPS == true){
 80014d6:	4e23      	ldr	r6, [pc, #140]	@ (8001564 <parse_gps_data+0x90>)
 80014d8:	7833      	ldrb	r3, [r6, #0]
 80014da:	2b00      	cmp	r3, #0
 80014dc:	d040      	beq.n	8001560 <parse_gps_data+0x8c>

			//parse rx_buffer to usefull navigation data
			uint8_t parsecheck = UBX_ParseNavSolFrame(rx_buffer, sizeof(rx_buffer), &rawData, &solData);
 80014de:	4c22      	ldr	r4, [pc, #136]	@ (8001568 <parse_gps_data+0x94>)
 80014e0:	4a22      	ldr	r2, [pc, #136]	@ (800156c <parse_gps_data+0x98>)
 80014e2:	4823      	ldr	r0, [pc, #140]	@ (8001570 <parse_gps_data+0x9c>)

			//pass the parsed data to Position pos packet frame
			GPS_data.latitude = solData.latitude_deg;
 80014e4:	4d23      	ldr	r5, [pc, #140]	@ (8001574 <parse_gps_data+0xa0>)
			uint8_t parsecheck = UBX_ParseNavSolFrame(rx_buffer, sizeof(rx_buffer), &rawData, &solData);
 80014e6:	4623      	mov	r3, r4
 80014e8:	213c      	movs	r1, #60	@ 0x3c
 80014ea:	f001 f941 	bl	8002770 <UBX_ParseNavSolFrame>
			GPS_data.latitude = solData.latitude_deg;
 80014ee:	e9d4 0100 	ldrd	r0, r1, [r4]
 80014f2:	f7ff fb79 	bl	8000be8 <__aeabi_d2f>
 80014f6:	6028      	str	r0, [r5, #0]
			GPS_data.longitude = solData.longitude_deg;
 80014f8:	e9d4 0102 	ldrd	r0, r1, [r4, #8]
 80014fc:	f7ff fb74 	bl	8000be8 <__aeabi_d2f>
 8001500:	6068      	str	r0, [r5, #4]
			GPS_data.altitude = solData.height_m;
 8001502:	e9d4 0104 	ldrd	r0, r1, [r4, #16]
 8001506:	f7ff fb6f 	bl	8000be8 <__aeabi_d2f>
			GPS_data.fixType = solData.gpsFix;
 800150a:	f894 3022 	ldrb.w	r3, [r4, #34]	@ 0x22
 800150e:	60eb      	str	r3, [r5, #12]
			GPS_data.numSV = solData.numSV;
 8001510:	f894 3070 	ldrb.w	r3, [r4, #112]	@ 0x70
 8001514:	612b      	str	r3, [r5, #16]
			GPS_data.altitude = solData.height_m;
 8001516:	60a8      	str	r0, [r5, #8]
			GPS_data.time = HAL_GetTick();
 8001518:	f001 fb42 	bl	8002ba0 <HAL_GetTick>
 800151c:	6168      	str	r0, [r5, #20]

			// pos.x = GPS_data.latitude;
			// pos.y = GPS_data.longitude;
			// pos.z = GPS_data.altitude;

      pos.x = solData.ecefX_m;
 800151e:	e9d4 010a 	ldrd	r0, r1, [r4, #40]	@ 0x28
 8001522:	4b15      	ldr	r3, [pc, #84]	@ (8001578 <parse_gps_data+0xa4>)
      pos_prec.z = solData.pAcc_m;
			//----------------implements sensor fusion----------------------

      //----------------------FLAGS----------------------
      //set flag for updating estimation with GPS data in sensor fusion
      estimation_gps_ready = true;
 8001524:	4a15      	ldr	r2, [pc, #84]	@ (800157c <parse_gps_data+0xa8>)
      pos.x = solData.ecefX_m;
 8001526:	e9c3 0102 	strd	r0, r1, [r3, #8]
      pos.y = solData.ecefY_m;
 800152a:	e9d4 010c 	ldrd	r0, r1, [r4, #48]	@ 0x30
 800152e:	e9c3 0104 	strd	r0, r1, [r3, #16]
      pos.z = solData.ecefZ_m;
 8001532:	e9d4 010e 	ldrd	r0, r1, [r4, #56]	@ 0x38
 8001536:	e9c3 0106 	strd	r0, r1, [r3, #24]
      pos_prec.x = solData.pAcc_m;
 800153a:	e9d4 0110 	ldrd	r0, r1, [r4, #64]	@ 0x40
 800153e:	4b10      	ldr	r3, [pc, #64]	@ (8001580 <parse_gps_data+0xac>)
 8001540:	e9c3 0102 	strd	r0, r1, [r3, #8]
      pos_prec.y = solData.pAcc_m;
 8001544:	e9c3 0104 	strd	r0, r1, [r3, #16]
      pos_prec.z = solData.pAcc_m;
 8001548:	e9c3 0106 	strd	r0, r1, [r3, #24]
      estimation_gps_ready = true;
 800154c:	2301      	movs	r3, #1
 800154e:	7013      	strb	r3, [r2, #0]

      //clear flag for operation
			send_gps_nslp = true;
 8001550:	4a0c      	ldr	r2, [pc, #48]	@ (8001584 <parse_gps_data+0xb0>)
 8001552:	7013      	strb	r3, [r2, #0]

      //clear flag for recieving new GPS data
      recieved_GPS = false;
 8001554:	2200      	movs	r2, #0
 8001556:	7032      	strb	r2, [r6, #0]

      if(GPS_data.fixType > 0){ // Only consider valid GPS fixes for fusion
 8001558:	68ea      	ldr	r2, [r5, #12]
 800155a:	b10a      	cbz	r2, 8001560 <parse_gps_data+0x8c>
        valid_gps_recieved = true;
 800155c:	4a0a      	ldr	r2, [pc, #40]	@ (8001588 <parse_gps_data+0xb4>)
 800155e:	7013      	strb	r3, [r2, #0]
      }
      //----------------------FLAGS----------------------
		}
}
 8001560:	bd70      	pop	{r4, r5, r6, pc}
 8001562:	bf00      	nop
 8001564:	200003f0 	.word	0x200003f0
 8001568:	20000438 	.word	0x20000438
 800156c:	200004b0 	.word	0x200004b0
 8001570:	200003f8 	.word	0x200003f8
 8001574:	20000028 	.word	0x20000028
 8001578:	200015e0 	.word	0x200015e0
 800157c:	200003ee 	.word	0x200003ee
 8001580:	20000088 	.word	0x20000088
 8001584:	200003ef 	.word	0x200003ef
 8001588:	200003ed 	.word	0x200003ed

0800158c <process_sensor_fusion>:

void process_sensor_fusion(){
 800158c:	b5f0      	push	{r4, r5, r6, r7, lr}

	if(estimation_imu_ready == true){
 800158e:	4f3c      	ldr	r7, [pc, #240]	@ (8001680 <process_sensor_fusion+0xf4>)
 8001590:	783b      	ldrb	r3, [r7, #0]
void process_sensor_fusion(){
 8001592:	b085      	sub	sp, #20
	if(estimation_imu_ready == true){
 8001594:	2b00      	cmp	r3, #0
 8001596:	d05a      	beq.n	800164e <process_sensor_fusion+0xc2>

		acc.x = accel.x;
 8001598:	4d3a      	ldr	r5, [pc, #232]	@ (8001684 <process_sensor_fusion+0xf8>)
 800159a:	4c3b      	ldr	r4, [pc, #236]	@ (8001688 <process_sensor_fusion+0xfc>)
 800159c:	6828      	ldr	r0, [r5, #0]

		//time stamp calculation
		POS_fusion_X.ts = micros();
		ts = update_ts(&lt,micros());
		//update position estimate how much have we moved since last mesurement
		update_IMU_global_position(starting_position_offset, starting_orientation_offset, &acc_f, &abs_q, ts, &X_global_translation, &O_global_orientation_euler);
 800159e:	4e3b      	ldr	r6, [pc, #236]	@ (800168c <process_sensor_fusion+0x100>)
		acc.x = accel.x;
 80015a0:	f7fe ffd2 	bl	8000548 <__aeabi_f2d>
 80015a4:	e9c4 0102 	strd	r0, r1, [r4, #8]
		acc.y = accel.y;
 80015a8:	6868      	ldr	r0, [r5, #4]
 80015aa:	f7fe ffcd 	bl	8000548 <__aeabi_f2d>
 80015ae:	e9c4 0104 	strd	r0, r1, [r4, #16]
		acc.z = accel.z;
 80015b2:	68a8      	ldr	r0, [r5, #8]
		abs_q.w = quat.w;
 80015b4:	4d36      	ldr	r5, [pc, #216]	@ (8001690 <process_sensor_fusion+0x104>)
		acc.z = accel.z;
 80015b6:	f7fe ffc7 	bl	8000548 <__aeabi_f2d>
 80015ba:	e9c4 0106 	strd	r0, r1, [r4, #24]
		vector_t_moving_average_filter(&acc, &acc_f); // Filter accelerometer data for precision estimation
 80015be:	4620      	mov	r0, r4
 80015c0:	4934      	ldr	r1, [pc, #208]	@ (8001694 <process_sensor_fusion+0x108>)
		abs_q.w = quat.w;
 80015c2:	4c35      	ldr	r4, [pc, #212]	@ (8001698 <process_sensor_fusion+0x10c>)
		vector_t_moving_average_filter(&acc, &acc_f); // Filter accelerometer data for precision estimation
 80015c4:	f000 fe4c 	bl	8002260 <vector_t_moving_average_filter>
		abs_q.w = quat.w;
 80015c8:	68e8      	ldr	r0, [r5, #12]
 80015ca:	f7fe ffbd 	bl	8000548 <__aeabi_f2d>
 80015ce:	e9c4 0100 	strd	r0, r1, [r4]
		abs_q.x = quat.x;
 80015d2:	6828      	ldr	r0, [r5, #0]
 80015d4:	f7fe ffb8 	bl	8000548 <__aeabi_f2d>
 80015d8:	e9c4 0102 	strd	r0, r1, [r4, #8]
		abs_q.y = quat.y;
 80015dc:	6868      	ldr	r0, [r5, #4]
 80015de:	f7fe ffb3 	bl	8000548 <__aeabi_f2d>
 80015e2:	e9c4 0104 	strd	r0, r1, [r4, #16]
		abs_q.z = quat.z;
 80015e6:	68a8      	ldr	r0, [r5, #8]
		POS_fusion_X.ts = micros();
 80015e8:	4d2c      	ldr	r5, [pc, #176]	@ (800169c <process_sensor_fusion+0x110>)
		abs_q.z = quat.z;
 80015ea:	f7fe ffad 	bl	8000548 <__aeabi_f2d>
	DWT->CYCCNT = 0U;
	while(DWT->CYCCNT < us_count_tic);
}

__STATIC_INLINE uint32_t micros(void){
	return  DWT->CYCCNT / (SystemCoreClock / 1000000U);
 80015ee:	4b2c      	ldr	r3, [pc, #176]	@ (80016a0 <process_sensor_fusion+0x114>)
 80015f0:	e9c4 0106 	strd	r0, r1, [r4, #24]
 80015f4:	492b      	ldr	r1, [pc, #172]	@ (80016a4 <process_sensor_fusion+0x118>)
 80015f6:	681b      	ldr	r3, [r3, #0]
 80015f8:	684a      	ldr	r2, [r1, #4]
 80015fa:	482b      	ldr	r0, [pc, #172]	@ (80016a8 <process_sensor_fusion+0x11c>)
 80015fc:	fbb3 f3f0 	udiv	r3, r3, r0
 8001600:	fbb2 f2f3 	udiv	r2, r2, r3
		POS_fusion_X.ts = micros();
 8001604:	61aa      	str	r2, [r5, #24]
 8001606:	6849      	ldr	r1, [r1, #4]
		ts = update_ts(&lt,micros());
 8001608:	4828      	ldr	r0, [pc, #160]	@ (80016ac <process_sensor_fusion+0x120>)
 800160a:	fbb1 f1f3 	udiv	r1, r1, r3
 800160e:	f000 fe89 	bl	8002324 <update_ts>
 8001612:	ec51 0b10 	vmov	r0, r1, d0
 8001616:	f7ff fa9f 	bl	8000b58 <__aeabi_d2iz>
 800161a:	4b25      	ldr	r3, [pc, #148]	@ (80016b0 <process_sensor_fusion+0x124>)
		update_IMU_global_position(starting_position_offset, starting_orientation_offset, &acc_f, &abs_q, ts, &X_global_translation, &O_global_orientation_euler);
 800161c:	4a1d      	ldr	r2, [pc, #116]	@ (8001694 <process_sensor_fusion+0x108>)
		ts = update_ts(&lt,micros());
 800161e:	6018      	str	r0, [r3, #0]
		update_IMU_global_position(starting_position_offset, starting_orientation_offset, &acc_f, &abs_q, ts, &X_global_translation, &O_global_orientation_euler);
 8001620:	4b24      	ldr	r3, [pc, #144]	@ (80016b4 <process_sensor_fusion+0x128>)
 8001622:	9302      	str	r3, [sp, #8]
 8001624:	e9cd 0600 	strd	r0, r6, [sp]
 8001628:	4623      	mov	r3, r4
 800162a:	4923      	ldr	r1, [pc, #140]	@ (80016b8 <process_sensor_fusion+0x12c>)
 800162c:	4823      	ldr	r0, [pc, #140]	@ (80016bc <process_sensor_fusion+0x130>)
 800162e:	f000 fc87 	bl	8001f40 <update_IMU_global_position>
		//update precision estimation how sure we are of our position
		//update_position_precision_calculation(&X_global_translation_precision, &acc_prec, ts);

		//OUTPUT
		POS_fusion_X.Xx = X_global_translation.x;
 8001632:	e9d6 2302 	ldrd	r2, r3, [r6, #8]
 8001636:	e9c5 2300 	strd	r2, r3, [r5]
		POS_fusion_X.Xy = X_global_translation.y;
 800163a:	e9d6 2304 	ldrd	r2, r3, [r6, #16]
 800163e:	e9c5 2302 	strd	r2, r3, [r5, #8]
		POS_fusion_X.Xz = X_global_translation.z;
 8001642:	e9d6 2306 	ldrd	r2, r3, [r6, #24]
 8001646:	e9c5 2304 	strd	r2, r3, [r5, #16]

		estimation_imu_ready = false;
 800164a:	2300      	movs	r3, #0
 800164c:	703b      	strb	r3, [r7, #0]
	}

	//on GPS recieved update the position estimation with the GPS data and reset the IMU precision to the GPS precision
	if(estimation_gps_ready == true && valid_gps_recieved == true){
 800164e:	491c      	ldr	r1, [pc, #112]	@ (80016c0 <process_sensor_fusion+0x134>)
 8001650:	780b      	ldrb	r3, [r1, #0]
 8001652:	b193      	cbz	r3, 800167a <process_sensor_fusion+0xee>
 8001654:	4b1b      	ldr	r3, [pc, #108]	@ (80016c4 <process_sensor_fusion+0x138>)
 8001656:	781b      	ldrb	r3, [r3, #0]
 8001658:	b17b      	cbz	r3, 800167a <process_sensor_fusion+0xee>
//		joined_position_estimation(&X_hat_estimation, &pos, &X_global_translation, &pos_prec, &acc_prec);
//		joined_precision_calculation(&X_hat_precision, &pos_prec, &acc_prec);
//		reset_IMU_precision(&X_hat_precision, &X_global_translation_precision, &X_hat_estimation, &X_global_translation);

		POS_fusion_X.Xx = X_global_translation.x;
 800165a:	4a0c      	ldr	r2, [pc, #48]	@ (800168c <process_sensor_fusion+0x100>)
 800165c:	4b0f      	ldr	r3, [pc, #60]	@ (800169c <process_sensor_fusion+0x110>)
 800165e:	e9d2 4502 	ldrd	r4, r5, [r2, #8]
 8001662:	e9c3 4500 	strd	r4, r5, [r3]
		POS_fusion_X.Xy = X_global_translation.y;
 8001666:	e9d2 4504 	ldrd	r4, r5, [r2, #16]
 800166a:	e9c3 4502 	strd	r4, r5, [r3, #8]
		POS_fusion_X.Xz = X_global_translation.z;
 800166e:	e9d2 4506 	ldrd	r4, r5, [r2, #24]
 8001672:	e9c3 4504 	strd	r4, r5, [r3, #16]

		estimation_gps_ready = false;
 8001676:	2300      	movs	r3, #0
 8001678:	700b      	strb	r3, [r1, #0]
	}


}
 800167a:	b005      	add	sp, #20
 800167c:	bdf0      	pop	{r4, r5, r6, r7, pc}
 800167e:	bf00      	nop
 8001680:	200003ec 	.word	0x200003ec
 8001684:	20000500 	.word	0x20000500
 8001688:	20001620 	.word	0x20001620
 800168c:	200015c0 	.word	0x200015c0
 8001690:	200004f0 	.word	0x200004f0
 8001694:	20001580 	.word	0x20001580
 8001698:	20001600 	.word	0x20001600
 800169c:	20000830 	.word	0x20000830
 80016a0:	200000a8 	.word	0x200000a8
 80016a4:	e0001000 	.word	0xe0001000
 80016a8:	000f4240 	.word	0x000f4240
 80016ac:	20001578 	.word	0x20001578
 80016b0:	2000157c 	.word	0x2000157c
 80016b4:	200015a0 	.word	0x200015a0
 80016b8:	20000040 	.word	0x20000040
 80016bc:	20001560 	.word	0x20001560
 80016c0:	200003ee 	.word	0x200003ee
 80016c4:	200003ed 	.word	0x200003ed

080016c8 <SystemClock_Config>:
/**
  * @brief System Clock Configuration
  * @retval None
  */
void SystemClock_Config(void)
{
 80016c8:	b500      	push	{lr}
 80016ca:	b097      	sub	sp, #92	@ 0x5c
  RCC_OscInitTypeDef RCC_OscInitStruct = {0};
 80016cc:	2224      	movs	r2, #36	@ 0x24
 80016ce:	2100      	movs	r1, #0
 80016d0:	a80d      	add	r0, sp, #52	@ 0x34
 80016d2:	f008 fc66 	bl	8009fa2 <memset>
  RCC_ClkInitTypeDef RCC_ClkInitStruct = {0};
 80016d6:	2214      	movs	r2, #20
 80016d8:	2100      	movs	r1, #0
 80016da:	a801      	add	r0, sp, #4
 80016dc:	f008 fc61 	bl	8009fa2 <memset>
  RCC_PeriphCLKInitTypeDef PeriphClkInit = {0};
 80016e0:	2218      	movs	r2, #24
 80016e2:	2100      	movs	r1, #0
 80016e4:	eb0d 0002 	add.w	r0, sp, r2
 80016e8:	f008 fc5b 	bl	8009fa2 <memset>

  /** Initializes the RCC Oscillators according to the specified parameters
  * in the RCC_OscInitTypeDef structure.
  */
  RCC_OscInitStruct.OscillatorType = RCC_OSCILLATORTYPE_HSI;
 80016ec:	2302      	movs	r3, #2
  RCC_OscInitStruct.HSIState = RCC_HSI_ON;
  RCC_OscInitStruct.HSICalibrationValue = RCC_HSICALIBRATION_DEFAULT;
 80016ee:	2101      	movs	r1, #1
  RCC_OscInitStruct.OscillatorType = RCC_OSCILLATORTYPE_HSI;
 80016f0:	930c      	str	r3, [sp, #48]	@ 0x30
  RCC_OscInitStruct.PLL.PLLState = RCC_PLL_NONE;
  if (HAL_RCC_OscConfig(&RCC_OscInitStruct) != HAL_OK)
 80016f2:	a80c      	add	r0, sp, #48	@ 0x30
  RCC_OscInitStruct.HSICalibrationValue = RCC_HSICALIBRATION_DEFAULT;
 80016f4:	2310      	movs	r3, #16
 80016f6:	e9cd 1310 	strd	r1, r3, [sp, #64]	@ 0x40
  if (HAL_RCC_OscConfig(&RCC_OscInitStruct) != HAL_OK)
 80016fa:	f003 f8cb 	bl	8004894 <HAL_RCC_OscConfig>
 80016fe:	4601      	mov	r1, r0
 8001700:	b108      	cbz	r0, 8001706 <SystemClock_Config+0x3e>
  \details Disables IRQ interrupts by setting the I-bit in the CPSR.
           Can only be executed in Privileged modes.
 */
__STATIC_FORCEINLINE void __disable_irq(void)
{
  __ASM volatile ("cpsid i" : : : "memory");
 8001702:	b672      	cpsid	i
void Error_Handler(void)
{
  /* USER CODE BEGIN Error_Handler_Debug */
	/* User can add his own implementation to report the HAL error return state */
	__disable_irq();
	while (1)
 8001704:	e7fe      	b.n	8001704 <SystemClock_Config+0x3c>
  RCC_ClkInitStruct.ClockType = RCC_CLOCKTYPE_HCLK|RCC_CLOCKTYPE_SYSCLK
 8001706:	230f      	movs	r3, #15
  RCC_ClkInitStruct.SYSCLKSource = RCC_SYSCLKSOURCE_HSI;
 8001708:	e9cd 3001 	strd	r3, r0, [sp, #4]
  RCC_ClkInitStruct.APB1CLKDivider = RCC_HCLK_DIV2;
 800170c:	f44f 6380 	mov.w	r3, #1024	@ 0x400
  RCC_ClkInitStruct.APB2CLKDivider = RCC_HCLK_DIV1;
 8001710:	e9cd 3004 	strd	r3, r0, [sp, #16]
  RCC_ClkInitStruct.AHBCLKDivider = RCC_SYSCLK_DIV1;
 8001714:	9003      	str	r0, [sp, #12]
  if (HAL_RCC_ClockConfig(&RCC_ClkInitStruct, FLASH_LATENCY_0) != HAL_OK)
 8001716:	a801      	add	r0, sp, #4
 8001718:	f003 fb3c 	bl	8004d94 <HAL_RCC_ClockConfig>
 800171c:	b108      	cbz	r0, 8001722 <SystemClock_Config+0x5a>
 800171e:	b672      	cpsid	i
	while (1)
 8001720:	e7fe      	b.n	8001720 <SystemClock_Config+0x58>
  PeriphClkInit.I2c1ClockSelection = RCC_I2C1CLKSOURCE_HSI;
 8001722:	e9cd 0008 	strd	r0, r0, [sp, #32]
  PeriphClkInit.PeriphClockSelection = RCC_PERIPHCLK_USART1|RCC_PERIPHCLK_I2C1;
 8001726:	2321      	movs	r3, #33	@ 0x21
  if (HAL_RCCEx_PeriphCLKConfig(&PeriphClkInit) != HAL_OK)
 8001728:	a806      	add	r0, sp, #24
  PeriphClkInit.PeriphClockSelection = RCC_PERIPHCLK_USART1|RCC_PERIPHCLK_I2C1;
 800172a:	9306      	str	r3, [sp, #24]
  if (HAL_RCCEx_PeriphCLKConfig(&PeriphClkInit) != HAL_OK)
 800172c:	f003 fc0a 	bl	8004f44 <HAL_RCCEx_PeriphCLKConfig>
 8001730:	b108      	cbz	r0, 8001736 <SystemClock_Config+0x6e>
 8001732:	b672      	cpsid	i
	while (1)
 8001734:	e7fe      	b.n	8001734 <SystemClock_Config+0x6c>
}
 8001736:	b017      	add	sp, #92	@ 0x5c
 8001738:	f85d fb04 	ldr.w	pc, [sp], #4

0800173c <main>:
{
 800173c:	e92d 41f0 	stmdb	sp!, {r4, r5, r6, r7, r8, lr}
 8001740:	b086      	sub	sp, #24
	HAL_Init();
 8001742:	f001 fa0f 	bl	8002b64 <HAL_Init>
  SystemClock_Config();
 8001746:	f7ff ffbf 	bl	80016c8 <SystemClock_Config>
  __HAL_RCC_GPIOF_CLK_ENABLE();
 800174a:	4b8c      	ldr	r3, [pc, #560]	@ (800197c <main+0x240>)
  huart1.Instance = USART1;
 800174c:	4d8c      	ldr	r5, [pc, #560]	@ (8001980 <main+0x244>)
  __HAL_RCC_GPIOF_CLK_ENABLE();
 800174e:	695a      	ldr	r2, [r3, #20]
 8001750:	f442 0280 	orr.w	r2, r2, #4194304	@ 0x400000
 8001754:	615a      	str	r2, [r3, #20]
 8001756:	695a      	ldr	r2, [r3, #20]
 8001758:	f402 0280 	and.w	r2, r2, #4194304	@ 0x400000
 800175c:	9203      	str	r2, [sp, #12]
 800175e:	9a03      	ldr	r2, [sp, #12]
  __HAL_RCC_GPIOA_CLK_ENABLE();
 8001760:	695a      	ldr	r2, [r3, #20]
 8001762:	f442 3200 	orr.w	r2, r2, #131072	@ 0x20000
 8001766:	615a      	str	r2, [r3, #20]
 8001768:	695a      	ldr	r2, [r3, #20]
 800176a:	f402 3200 	and.w	r2, r2, #131072	@ 0x20000
 800176e:	9204      	str	r2, [sp, #16]
 8001770:	9a04      	ldr	r2, [sp, #16]
  __HAL_RCC_GPIOB_CLK_ENABLE();
 8001772:	695a      	ldr	r2, [r3, #20]
 8001774:	f442 2280 	orr.w	r2, r2, #262144	@ 0x40000
 8001778:	615a      	str	r2, [r3, #20]
 800177a:	695a      	ldr	r2, [r3, #20]
 800177c:	f402 2280 	and.w	r2, r2, #262144	@ 0x40000
 8001780:	9205      	str	r2, [sp, #20]
 8001782:	9a05      	ldr	r2, [sp, #20]
  __HAL_RCC_DMA1_CLK_ENABLE();
 8001784:	695a      	ldr	r2, [r3, #20]
 8001786:	f042 0201 	orr.w	r2, r2, #1
 800178a:	615a      	str	r2, [r3, #20]
 800178c:	695b      	ldr	r3, [r3, #20]
  HAL_NVIC_SetPriority(DMA1_Channel2_IRQn, 0, 0);
 800178e:	2200      	movs	r2, #0
  __HAL_RCC_DMA1_CLK_ENABLE();
 8001790:	f003 0301 	and.w	r3, r3, #1
  HAL_NVIC_SetPriority(DMA1_Channel2_IRQn, 0, 0);
 8001794:	4611      	mov	r1, r2
  __HAL_RCC_DMA1_CLK_ENABLE();
 8001796:	9302      	str	r3, [sp, #8]
  HAL_NVIC_SetPriority(DMA1_Channel2_IRQn, 0, 0);
 8001798:	200c      	movs	r0, #12
  __HAL_RCC_DMA1_CLK_ENABLE();
 800179a:	9b02      	ldr	r3, [sp, #8]
  HAL_NVIC_SetPriority(DMA1_Channel2_IRQn, 0, 0);
 800179c:	f001 fa2c 	bl	8002bf8 <HAL_NVIC_SetPriority>
  HAL_NVIC_EnableIRQ(DMA1_Channel2_IRQn);
 80017a0:	200c      	movs	r0, #12
 80017a2:	f001 fa5b 	bl	8002c5c <HAL_NVIC_EnableIRQ>
  HAL_NVIC_SetPriority(DMA1_Channel3_IRQn, 0, 0);
 80017a6:	2200      	movs	r2, #0
 80017a8:	4611      	mov	r1, r2
 80017aa:	200d      	movs	r0, #13
 80017ac:	f001 fa24 	bl	8002bf8 <HAL_NVIC_SetPriority>
  HAL_NVIC_EnableIRQ(DMA1_Channel3_IRQn);
 80017b0:	200d      	movs	r0, #13
 80017b2:	f001 fa53 	bl	8002c5c <HAL_NVIC_EnableIRQ>
  HAL_NVIC_SetPriority(DMA1_Channel5_IRQn, 0, 0);
 80017b6:	2200      	movs	r2, #0
 80017b8:	4611      	mov	r1, r2
 80017ba:	200f      	movs	r0, #15
 80017bc:	f001 fa1c 	bl	8002bf8 <HAL_NVIC_SetPriority>
  HAL_NVIC_EnableIRQ(DMA1_Channel5_IRQn);
 80017c0:	200f      	movs	r0, #15
 80017c2:	f001 fa4b 	bl	8002c5c <HAL_NVIC_EnableIRQ>
  HAL_NVIC_SetPriority(DMA1_Channel6_IRQn, 0, 0);
 80017c6:	2200      	movs	r2, #0
 80017c8:	4611      	mov	r1, r2
 80017ca:	2010      	movs	r0, #16
 80017cc:	f001 fa14 	bl	8002bf8 <HAL_NVIC_SetPriority>
  HAL_NVIC_EnableIRQ(DMA1_Channel6_IRQn);
 80017d0:	2010      	movs	r0, #16
 80017d2:	f001 fa43 	bl	8002c5c <HAL_NVIC_EnableIRQ>
  HAL_NVIC_SetPriority(DMA1_Channel7_IRQn, 0, 0);
 80017d6:	2200      	movs	r2, #0
 80017d8:	4611      	mov	r1, r2
 80017da:	2011      	movs	r0, #17
 80017dc:	f001 fa0c 	bl	8002bf8 <HAL_NVIC_SetPriority>
  HAL_NVIC_EnableIRQ(DMA1_Channel7_IRQn);
 80017e0:	2011      	movs	r0, #17
 80017e2:	f001 fa3b 	bl	8002c5c <HAL_NVIC_EnableIRQ>
  huart1.Init.BaudRate = 9600;
 80017e6:	4b67      	ldr	r3, [pc, #412]	@ (8001984 <main+0x248>)
 80017e8:	f44f 5716 	mov.w	r7, #9600	@ 0x2580
 80017ec:	e9c5 3700 	strd	r3, r7, [r5]
  huart1.Init.Mode = UART_MODE_TX_RX;
 80017f0:	240c      	movs	r4, #12
  huart1.Init.WordLength = UART_WORDLENGTH_8B;
 80017f2:	2300      	movs	r3, #0
  if (HAL_UART_Init(&huart1) != HAL_OK)
 80017f4:	4628      	mov	r0, r5
  huart1.Init.StopBits = UART_STOPBITS_1;
 80017f6:	e9c5 3302 	strd	r3, r3, [r5, #8]
  huart1.Init.HwFlowCtl = UART_HWCONTROL_NONE;
 80017fa:	e9c5 4305 	strd	r4, r3, [r5, #20]
  huart1.Init.OneBitSampling = UART_ONE_BIT_SAMPLE_DISABLE;
 80017fe:	e9c5 3307 	strd	r3, r3, [r5, #28]
  huart1.Init.Parity = UART_PARITY_NONE;
 8001802:	612b      	str	r3, [r5, #16]
  huart1.AdvancedInit.AdvFeatureInit = UART_ADVFEATURE_NO_INIT;
 8001804:	626b      	str	r3, [r5, #36]	@ 0x24
  if (HAL_UART_Init(&huart1) != HAL_OK)
 8001806:	f004 f840 	bl	800588a <HAL_UART_Init>
 800180a:	b108      	cbz	r0, 8001810 <main+0xd4>
 800180c:	b672      	cpsid	i
	while (1)
 800180e:	e7fe      	b.n	800180e <main+0xd2>
  huart2.Instance = USART2;
 8001810:	4e5d      	ldr	r6, [pc, #372]	@ (8001988 <main+0x24c>)
 8001812:	4b5e      	ldr	r3, [pc, #376]	@ (800198c <main+0x250>)
  huart2.Init.StopBits = UART_STOPBITS_1;
 8001814:	e9c6 0002 	strd	r0, r0, [r6, #8]
  huart2.Init.Mode = UART_MODE_TX_RX;
 8001818:	e9c6 0404 	strd	r0, r4, [r6, #16]
  huart2.Init.OverSampling = UART_OVERSAMPLING_16;
 800181c:	e9c6 0006 	strd	r0, r0, [r6, #24]
  huart2.AdvancedInit.AdvFeatureInit = UART_ADVFEATURE_NO_INIT;
 8001820:	e9c6 0008 	strd	r0, r0, [r6, #32]
  if (HAL_UART_Init(&huart2) != HAL_OK)
 8001824:	4630      	mov	r0, r6
  huart2.Init.BaudRate = 9600;
 8001826:	e9c6 3700 	strd	r3, r7, [r6]
  if (HAL_UART_Init(&huart2) != HAL_OK)
 800182a:	f004 f82e 	bl	800588a <HAL_UART_Init>
 800182e:	b108      	cbz	r0, 8001834 <main+0xf8>
 8001830:	b672      	cpsid	i
	while (1)
 8001832:	e7fe      	b.n	8001832 <main+0xf6>
  hi2c1.Instance = I2C1;
 8001834:	4c56      	ldr	r4, [pc, #344]	@ (8001990 <main+0x254>)
  hi2c1.Init.Timing = 0x00201D2B;
 8001836:	4a57      	ldr	r2, [pc, #348]	@ (8001994 <main+0x258>)
 8001838:	4b57      	ldr	r3, [pc, #348]	@ (8001998 <main+0x25c>)
  hi2c1.Init.OwnAddress1 = 0;
 800183a:	60a0      	str	r0, [r4, #8]
  hi2c1.Init.AddressingMode = I2C_ADDRESSINGMODE_7BIT;
 800183c:	f04f 0801 	mov.w	r8, #1
  hi2c1.Init.DualAddressMode = I2C_DUALADDRESS_DISABLE;
 8001840:	e9c4 8003 	strd	r8, r0, [r4, #12]
  hi2c1.Init.OwnAddress2Masks = I2C_OA2_NOMASK;
 8001844:	e9c4 0005 	strd	r0, r0, [r4, #20]
  hi2c1.Init.NoStretchMode = I2C_NOSTRETCH_DISABLE;
 8001848:	e9c4 0007 	strd	r0, r0, [r4, #28]
  if (HAL_I2C_Init(&hi2c1) != HAL_OK)
 800184c:	4620      	mov	r0, r4
  hi2c1.Init.Timing = 0x00201D2B;
 800184e:	e9c4 2300 	strd	r2, r3, [r4]
  if (HAL_I2C_Init(&hi2c1) != HAL_OK)
 8001852:	f001 fe8b 	bl	800356c <HAL_I2C_Init>
 8001856:	4601      	mov	r1, r0
 8001858:	b108      	cbz	r0, 800185e <main+0x122>
 800185a:	b672      	cpsid	i
	while (1)
 800185c:	e7fe      	b.n	800185c <main+0x120>
  if (HAL_I2CEx_ConfigAnalogFilter(&hi2c1, I2C_ANALOGFILTER_ENABLE) != HAL_OK)
 800185e:	4620      	mov	r0, r4
 8001860:	f002 ffcd 	bl	80047fe <HAL_I2CEx_ConfigAnalogFilter>
 8001864:	4601      	mov	r1, r0
 8001866:	b108      	cbz	r0, 800186c <main+0x130>
 8001868:	b672      	cpsid	i
	while (1)
 800186a:	e7fe      	b.n	800186a <main+0x12e>
  if (HAL_I2CEx_ConfigDigitalFilter(&hi2c1, 0) != HAL_OK)
 800186c:	4620      	mov	r0, r4
 800186e:	f002 ffec 	bl	800484a <HAL_I2CEx_ConfigDigitalFilter>
 8001872:	b108      	cbz	r0, 8001878 <main+0x13c>
 8001874:	b672      	cpsid	i
	while (1)
 8001876:	e7fe      	b.n	8001876 <main+0x13a>
  hcrc.Instance = CRC;
 8001878:	4f48      	ldr	r7, [pc, #288]	@ (800199c <main+0x260>)
 800187a:	4b49      	ldr	r3, [pc, #292]	@ (80019a0 <main+0x264>)
  hcrc.Init.DefaultPolynomialUse = DEFAULT_POLYNOMIAL_ENABLE;
 800187c:	80b8      	strh	r0, [r7, #4]
  hcrc.Init.OutputDataInversionMode = CRC_OUTPUTDATA_INVERSION_DISABLE;
 800187e:	e9c7 0005 	strd	r0, r0, [r7, #20]
  if (HAL_CRC_Init(&hcrc) != HAL_OK)
 8001882:	4638      	mov	r0, r7
  hcrc.Instance = CRC;
 8001884:	603b      	str	r3, [r7, #0]
  hcrc.InputDataFormat = CRC_INPUTDATA_FORMAT_BYTES;
 8001886:	f8c7 8020 	str.w	r8, [r7, #32]
  if (HAL_CRC_Init(&hcrc) != HAL_OK)
 800188a:	f001 fa4f 	bl	8002d2c <HAL_CRC_Init>
 800188e:	b108      	cbz	r0, 8001894 <main+0x158>
 8001890:	b672      	cpsid	i
	while (1)
 8001892:	e7fe      	b.n	8001892 <main+0x156>
	CoreDebug->DEMCR |= CoreDebug_DEMCR_TRCENA_Msk; // разрешаем использовать счётчик
 8001894:	4a43      	ldr	r2, [pc, #268]	@ (80019a4 <main+0x268>)
	nslp_init(&nslp, &huart2, &hcrc, 16, 0xAA);
 8001896:	4844      	ldr	r0, [pc, #272]	@ (80019a8 <main+0x26c>)
 8001898:	f8d2 30fc 	ldr.w	r3, [r2, #252]	@ 0xfc
 800189c:	f043 7380 	orr.w	r3, r3, #16777216	@ 0x1000000
 80018a0:	f8c2 30fc 	str.w	r3, [r2, #252]	@ 0xfc
	DWT->CTRL |= DWT_CTRL_CYCCNTENA_Msk;   // запускаем счётчик
 80018a4:	f5a2 425d 	sub.w	r2, r2, #56576	@ 0xdd00
 80018a8:	4631      	mov	r1, r6
 80018aa:	6813      	ldr	r3, [r2, #0]
	__HAL_DMA_ENABLE_IT(&hdma_usart1_rx, DMA_IT_TC | DMA_IT_HT);
 80018ac:	4e3f      	ldr	r6, [pc, #252]	@ (80019ac <main+0x270>)
 80018ae:	f043 0301 	orr.w	r3, r3, #1
 80018b2:	6013      	str	r3, [r2, #0]
	nslp_init(&nslp, &huart2, &hcrc, 16, 0xAA);
 80018b4:	23aa      	movs	r3, #170	@ 0xaa
 80018b6:	9300      	str	r3, [sp, #0]
 80018b8:	463a      	mov	r2, r7
 80018ba:	2310      	movs	r3, #16
 80018bc:	f000 f8e0 	bl	8001a80 <nslp_init>
	__HAL_DMA_ENABLE_IT(&hdma_usart1_rx, DMA_IT_TC | DMA_IT_HT);
 80018c0:	6832      	ldr	r2, [r6, #0]
	HAL_UARTEx_ReceiveToIdle_DMA(&huart1, (uint8_t *) rx_buffer, sizeof(rx_buffer));
 80018c2:	493b      	ldr	r1, [pc, #236]	@ (80019b0 <main+0x274>)
	__HAL_DMA_ENABLE_IT(&hdma_usart1_rx, DMA_IT_TC | DMA_IT_HT);
 80018c4:	6813      	ldr	r3, [r2, #0]
 80018c6:	f043 0306 	orr.w	r3, r3, #6
 80018ca:	6013      	str	r3, [r2, #0]
	HAL_UARTEx_ReceiveToIdle_DMA(&huart1, (uint8_t *) rx_buffer, sizeof(rx_buffer));
 80018cc:	4628      	mov	r0, r5
 80018ce:	223c      	movs	r2, #60	@ 0x3c
 80018d0:	f004 f859 	bl	8005986 <HAL_UARTEx_ReceiveToIdle_DMA>
	__HAL_DMA_DISABLE_IT(&hdma_usart1_rx,DMA_IT_HT); //DMA half transfer interupt
 80018d4:	6832      	ldr	r2, [r6, #0]
	bno.i2c = &hi2c1;
 80018d6:	4d37      	ldr	r5, [pc, #220]	@ (80019b4 <main+0x278>)
	__HAL_DMA_DISABLE_IT(&hdma_usart1_rx,DMA_IT_HT); //DMA half transfer interupt
 80018d8:	6813      	ldr	r3, [r2, #0]
 80018da:	f023 0304 	bic.w	r3, r3, #4
 80018de:	6013      	str	r3, [r2, #0]
	BMP180_Init(&hi2c1);
 80018e0:	4620      	mov	r0, r4
 80018e2:	f7ff fa07 	bl	8000cf4 <BMP180_Init>
	BMP180_SetOversampling(BMP180_STANDARD); //BMP180_LOW, BMP180_STANDARD, BMP180_HIGH, BMP180_ULTRA,
 80018e6:	4640      	mov	r0, r8
 80018e8:	f7ff fa0a 	bl	8000d00 <BMP180_SetOversampling>
	BMP180_UpdateCalibrationData();
 80018ec:	f7ff fa40 	bl	8000d70 <BMP180_UpdateCalibrationData>
	bno.mode = BNO_MODE_NDOF;
 80018f0:	f642 030c 	movw	r3, #10252	@ 0x280c
	HAL_Delay(500);
 80018f4:	f44f 70fa 	mov.w	r0, #500	@ 0x1f4
	bno.i2c = &hi2c1;
 80018f8:	602c      	str	r4, [r5, #0]
	bno.mode = BNO_MODE_NDOF;
 80018fa:	80ab      	strh	r3, [r5, #4]
	HAL_Delay(500);
 80018fc:	f001 f956 	bl	8002bac <HAL_Delay>
	if (bno055_init(&bno) != BNO_OK) {
 8001900:	4628      	mov	r0, r5
 8001902:	f7ff fc10 	bl	8001126 <bno055_init>
 8001906:	4604      	mov	r4, r0
 8001908:	b100      	cbz	r0, 800190c <main+0x1d0>
		while (1) { }
 800190a:	e7fe      	b.n	800190a <main+0x1ce>
	bno055_set_unit(&bno, BNO_TEMP_UNIT_C, BNO_GYR_UNIT_DPS, BNO_ACC_UNITSEL_M_S2, BNO_EUL_UNIT_DEG);
 800190c:	4603      	mov	r3, r0
 800190e:	4602      	mov	r2, r0
 8001910:	4601      	mov	r1, r0
 8001912:	9000      	str	r0, [sp, #0]
 8001914:	4628      	mov	r0, r5
 8001916:	f7ff fc4e 	bl	80011b6 <bno055_set_unit>
	bno055_start_dma_read(&bno);
 800191a:	4628      	mov	r0, r5
 800191c:	f7ff fc7a 	bl	8001214 <bno055_start_dma_read>
		if (HAL_GetTick() - lastTime > nslp_min_delay(&nslp)){
 8001920:	4d21      	ldr	r5, [pc, #132]	@ (80019a8 <main+0x26c>)
			if((send_gps_nslp == true)/*&&(__HAL_UART_GET_FLAG(&huart1, UART_FLAG_IDLE))*/){
 8001922:	4f25      	ldr	r7, [pc, #148]	@ (80019b8 <main+0x27c>)
			nslp_send_packet(&nslp, &BNO_packet_a);
 8001924:	f8df 80a4 	ldr.w	r8, [pc, #164]	@ 80019cc <main+0x290>
		if (HAL_GetTick() - lastTime > nslp_min_delay(&nslp)){
 8001928:	f001 f93a 	bl	8002ba0 <HAL_GetTick>
 800192c:	1b06      	subs	r6, r0, r4
 800192e:	4628      	mov	r0, r5
 8001930:	f000 f901 	bl	8001b36 <nslp_min_delay>
 8001934:	4286      	cmp	r6, r0
 8001936:	d91a      	bls.n	800196e <main+0x232>
			if((send_gps_nslp == true)/*&&(__HAL_UART_GET_FLAG(&huart1, UART_FLAG_IDLE))*/){
 8001938:	783b      	ldrb	r3, [r7, #0]
 800193a:	b12b      	cbz	r3, 8001948 <main+0x20c>
				nslp_send_packet(&nslp, &GPS_packet);
 800193c:	491f      	ldr	r1, [pc, #124]	@ (80019bc <main+0x280>)
 800193e:	4628      	mov	r0, r5
 8001940:	f000 f8e0 	bl	8001b04 <nslp_send_packet>
				send_gps_nslp = false;
 8001944:	2300      	movs	r3, #0
 8001946:	703b      	strb	r3, [r7, #0]
			nslp_send_packet(&nslp, &BNO_packet_a);
 8001948:	4641      	mov	r1, r8
 800194a:	4628      	mov	r0, r5
 800194c:	f000 f8da 	bl	8001b04 <nslp_send_packet>
			nslp_send_packet(&nslp, &BNO_packet_g);
 8001950:	491b      	ldr	r1, [pc, #108]	@ (80019c0 <main+0x284>)
 8001952:	4628      	mov	r0, r5
 8001954:	f000 f8d6 	bl	8001b04 <nslp_send_packet>
			nslp_send_packet(&nslp, &BMP_packet);
 8001958:	491a      	ldr	r1, [pc, #104]	@ (80019c4 <main+0x288>)
 800195a:	4628      	mov	r0, r5
 800195c:	f000 f8d2 	bl	8001b04 <nslp_send_packet>
			nslp_send_packet(&nslp, &POS_fusion_packet);
 8001960:	4919      	ldr	r1, [pc, #100]	@ (80019c8 <main+0x28c>)
 8001962:	4628      	mov	r0, r5
 8001964:	f000 f8ce 	bl	8001b04 <nslp_send_packet>
			lastTime = HAL_GetTick();
 8001968:	f001 f91a 	bl	8002ba0 <HAL_GetTick>
 800196c:	4604      	mov	r4, r0
		parse_gps_data();
 800196e:	f7ff fdb1 	bl	80014d4 <parse_gps_data>
		parse_i2c_data();
 8001972:	f7ff fd39 	bl	80013e8 <parse_i2c_data>
		process_sensor_fusion();
 8001976:	f7ff fe09 	bl	800158c <process_sensor_fusion>
		if (HAL_GetTick() - lastTime > nslp_min_delay(&nslp)){
 800197a:	e7d5      	b.n	8001928 <main+0x1ec>
 800197c:	40021000 	.word	0x40021000
 8001980:	200006a8 	.word	0x200006a8
 8001984:	40013800 	.word	0x40013800
 8001988:	20000620 	.word	0x20000620
 800198c:	40004400 	.word	0x40004400
 8001990:	200007b8 	.word	0x200007b8
 8001994:	40005400 	.word	0x40005400
 8001998:	00201d2b 	.word	0x00201d2b
 800199c:	2000080c 	.word	0x2000080c
 80019a0:	40023000 	.word	0x40023000
 80019a4:	e000ed00 	.word	0xe000ed00
 80019a8:	200002bc 	.word	0x200002bc
 80019ac:	200005dc 	.word	0x200005dc
 80019b0:	200003f8 	.word	0x200003f8
 80019b4:	2000050c 	.word	0x2000050c
 80019b8:	200003ef 	.word	0x200003ef
 80019bc:	20000020 	.word	0x20000020
 80019c0:	20000008 	.word	0x20000008
 80019c4:	20000010 	.word	0x20000010
 80019c8:	20000000 	.word	0x20000000
 80019cc:	20000018 	.word	0x20000018

080019d0 <Error_Handler>:
 80019d0:	b672      	cpsid	i
	while (1)
 80019d2:	e7fe      	b.n	80019d2 <Error_Handler+0x2>

080019d4 <find_instance>:
volatile uint8_t nslp_rx_active = 0;  // Global legacy flag

// Registry of active instances
static nslp_instance_t *instances[NSLP_MAX_INSTANCES] = {0};

static nslp_instance_t* find_instance(UART_HandleTypeDef *huart) {
 80019d4:	b510      	push	{r4, lr}
 80019d6:	4907      	ldr	r1, [pc, #28]	@ (80019f4 <find_instance+0x20>)
 80019d8:	4602      	mov	r2, r0
    for (int i = 0; i < NSLP_MAX_INSTANCES; i++) {
 80019da:	2300      	movs	r3, #0
        if (instances[i] && instances[i]->uart == huart) {
 80019dc:	f851 0b04 	ldr.w	r0, [r1], #4
 80019e0:	b110      	cbz	r0, 80019e8 <find_instance+0x14>
 80019e2:	6804      	ldr	r4, [r0, #0]
 80019e4:	4294      	cmp	r4, r2
 80019e6:	d003      	beq.n	80019f0 <find_instance+0x1c>
    for (int i = 0; i < NSLP_MAX_INSTANCES; i++) {
 80019e8:	3301      	adds	r3, #1
 80019ea:	2b04      	cmp	r3, #4
 80019ec:	d1f6      	bne.n	80019dc <find_instance+0x8>
            return instances[i];
        }
    }
    return NULL;
 80019ee:	2000      	movs	r0, #0
}
 80019f0:	bd10      	pop	{r4, pc}
 80019f2:	bf00      	nop
 80019f4:	200008a0 	.word	0x200008a0

080019f8 <start_tx>:
void nslp_set_rx_callback(nslp_instance_t *inst, void (*callback)(nslp_packet_t *)) {
    inst->rx_callback = callback;
}

static void start_tx(nslp_instance_t *inst) {
    if (inst->tx_count == 0) return;
 80019f8:	8b42      	ldrh	r2, [r0, #26]
static void start_tx(nslp_instance_t *inst) {
 80019fa:	b570      	push	{r4, r5, r6, lr}
 80019fc:	4604      	mov	r4, r0
    if (inst->tx_count == 0) return;
 80019fe:	b18a      	cbz	r2, 8001a24 <start_tx+0x2c>

    nslp_packet_t *p = inst->tx_queue[inst->tx_tail];
 8001a00:	8b03      	ldrh	r3, [r0, #24]
 8001a02:	6901      	ldr	r1, [r0, #16]
 8001a04:	f851 5023 	ldr.w	r5, [r1, r3, lsl #2]
    if (!p || !p->payload || p->size > MAX_PAYLOAD_SIZE) {
 8001a08:	b10d      	cbz	r5, 8001a0e <start_tx+0x16>
 8001a0a:	6869      	ldr	r1, [r5, #4]
 8001a0c:	b959      	cbnz	r1, 8001a26 <start_tx+0x2e>
        inst->tx_tail = (inst->tx_tail + 1) % inst->tx_queue_length;
 8001a0e:	8aa1      	ldrh	r1, [r4, #20]
 8001a10:	3301      	adds	r3, #1
 8001a12:	fbb3 f0f1 	udiv	r0, r3, r1
 8001a16:	fb01 3310 	mls	r3, r1, r0, r3
 8001a1a:	8323      	strh	r3, [r4, #24]
        if (inst->tx_count > 0) {
            inst->tx_count--;
 8001a1c:	3a01      	subs	r2, #1
        }
        inst->tx_busy = 0;
 8001a1e:	2300      	movs	r3, #0
            inst->tx_count--;
 8001a20:	8362      	strh	r2, [r4, #26]
        inst->tx_busy = 0;
 8001a22:	7723      	strb	r3, [r4, #28]
                                     HEADER_SIZE + p->size);
    memcpy(&inst->tx_buffer[TX_HEADER_OFFSET + p->size], &crc, CRC_SIZE);

    inst->tx_busy = 1;
    HAL_UART_Transmit_DMA(inst->uart, inst->tx_buffer, total_size);
}
 8001a24:	bd70      	pop	{r4, r5, r6, pc}
    inst->tx_buffer[0] = FRAME_START;
 8001a26:	68c3      	ldr	r3, [r0, #12]
    size_t total_size  = FRAME_START_SIZE + packet_size + CHECKSUM_SIZE;
 8001a28:	78ee      	ldrb	r6, [r5, #3]
    inst->tx_buffer[0] = FRAME_START;
 8001a2a:	227e      	movs	r2, #126	@ 0x7e
 8001a2c:	701a      	strb	r2, [r3, #0]
    inst->tx_buffer[1] = inst->address;      // sender
 8001a2e:	68c3      	ldr	r3, [r0, #12]
 8001a30:	f890 212d 	ldrb.w	r2, [r0, #301]	@ 0x12d
 8001a34:	705a      	strb	r2, [r3, #1]
    inst->tx_buffer[2] = p->receiver;        // receiver
 8001a36:	68c3      	ldr	r3, [r0, #12]
 8001a38:	786a      	ldrb	r2, [r5, #1]
 8001a3a:	709a      	strb	r2, [r3, #2]
    inst->tx_buffer[3] = p->type;
 8001a3c:	68c3      	ldr	r3, [r0, #12]
 8001a3e:	78aa      	ldrb	r2, [r5, #2]
 8001a40:	70da      	strb	r2, [r3, #3]
    inst->tx_buffer[4] = p->size;
 8001a42:	68c3      	ldr	r3, [r0, #12]
 8001a44:	78ea      	ldrb	r2, [r5, #3]
 8001a46:	711a      	strb	r2, [r3, #4]
    memcpy(&inst->tx_buffer[TX_HEADER_OFFSET], p->payload, p->size);
 8001a48:	68c0      	ldr	r0, [r0, #12]
 8001a4a:	6869      	ldr	r1, [r5, #4]
 8001a4c:	3005      	adds	r0, #5
 8001a4e:	f008 fb4a 	bl	800a0e6 <memcpy>
                                     HEADER_SIZE + p->size);
 8001a52:	78ea      	ldrb	r2, [r5, #3]
                                     (uint32_t *)&inst->tx_buffer[1],
 8001a54:	68e1      	ldr	r1, [r4, #12]
    uint32_t crc = HAL_CRC_Calculate(inst->crc,
 8001a56:	6860      	ldr	r0, [r4, #4]
 8001a58:	3204      	adds	r2, #4
 8001a5a:	3101      	adds	r1, #1
 8001a5c:	f001 f9a0 	bl	8002da0 <HAL_CRC_Calculate>
    memcpy(&inst->tx_buffer[TX_HEADER_OFFSET + p->size], &crc, CRC_SIZE);
 8001a60:	78ea      	ldrb	r2, [r5, #3]
 8001a62:	68e3      	ldr	r3, [r4, #12]
 8001a64:	4413      	add	r3, r2
    size_t total_size  = FRAME_START_SIZE + packet_size + CHECKSUM_SIZE;
 8001a66:	3609      	adds	r6, #9
    memcpy(&inst->tx_buffer[TX_HEADER_OFFSET + p->size], &crc, CRC_SIZE);
 8001a68:	f8c3 0005 	str.w	r0, [r3, #5]
    inst->tx_busy = 1;
 8001a6c:	2301      	movs	r3, #1
 8001a6e:	7723      	strb	r3, [r4, #28]
    HAL_UART_Transmit_DMA(inst->uart, inst->tx_buffer, total_size);
 8001a70:	68e1      	ldr	r1, [r4, #12]
 8001a72:	6820      	ldr	r0, [r4, #0]
 8001a74:	4632      	mov	r2, r6
}
 8001a76:	e8bd 4070 	ldmia.w	sp!, {r4, r5, r6, lr}
    HAL_UART_Transmit_DMA(inst->uart, inst->tx_buffer, total_size);
 8001a7a:	f003 bb31 	b.w	80050e0 <HAL_UART_Transmit_DMA>
	...

08001a80 <nslp_init>:
               CRC_HandleTypeDef *hcrc, uint16_t queue_length, uint8_t address) {
 8001a80:	b5f8      	push	{r3, r4, r5, r6, r7, lr}
 8001a82:	461f      	mov	r7, r3
    inst->address = address;
 8001a84:	f89d 3018 	ldrb.w	r3, [sp, #24]
 8001a88:	f880 312d 	strb.w	r3, [r0, #301]	@ 0x12d
               CRC_HandleTypeDef *hcrc, uint16_t queue_length, uint8_t address) {
 8001a8c:	4604      	mov	r4, r0
    inst->crc  = hcrc;
 8001a8e:	e9c0 1200 	strd	r1, r2, [r0]
    inst->rx_buffer = malloc(MAX_PACKET_SIZE);
 8001a92:	f44f 7084 	mov.w	r0, #264	@ 0x108
               CRC_HandleTypeDef *hcrc, uint16_t queue_length, uint8_t address) {
 8001a96:	460d      	mov	r5, r1
    inst->rx_buffer = malloc(MAX_PACKET_SIZE);
 8001a98:	f006 fbbe 	bl	8008218 <malloc>
 8001a9c:	60a0      	str	r0, [r4, #8]
 8001a9e:	4606      	mov	r6, r0
    inst->tx_buffer = malloc(MAX_PACKET_SIZE);
 8001aa0:	f44f 7084 	mov.w	r0, #264	@ 0x108
 8001aa4:	f006 fbb8 	bl	8008218 <malloc>
 8001aa8:	60e0      	str	r0, [r4, #12]
    inst->tx_queue  = malloc(sizeof(nslp_packet_t *) * queue_length);
 8001aaa:	00b8      	lsls	r0, r7, #2
 8001aac:	f006 fbb4 	bl	8008218 <malloc>
 8001ab0:	4a13      	ldr	r2, [pc, #76]	@ (8001b00 <nslp_init+0x80>)
 8001ab2:	6120      	str	r0, [r4, #16]
    inst->tx_head = 0;
 8001ab4:	2300      	movs	r3, #0
    inst->tx_queue_length = queue_length;
 8001ab6:	82a7      	strh	r7, [r4, #20]
    inst->tx_head = 0;
 8001ab8:	82e3      	strh	r3, [r4, #22]
    inst->tx_tail = 0;
 8001aba:	61a3      	str	r3, [r4, #24]
    inst->tx_busy = 0;
 8001abc:	7723      	strb	r3, [r4, #28]
    inst->rx_callback = NULL;
 8001abe:	f8c4 3128 	str.w	r3, [r4, #296]	@ 0x128
    inst->rx_active = 0;
 8001ac2:	f884 312c 	strb.w	r3, [r4, #300]	@ 0x12c
    for (int i = 0; i < NSLP_MAX_INSTANCES; i++) {
 8001ac6:	4611      	mov	r1, r2
        if (!instances[i]) {
 8001ac8:	f852 0b04 	ldr.w	r0, [r2], #4
 8001acc:	b9a0      	cbnz	r0, 8001af8 <nslp_init+0x78>
            instances[i] = inst;
 8001ace:	f841 4023 	str.w	r4, [r1, r3, lsl #2]
    __HAL_UART_ENABLE_IT(inst->uart, UART_IT_IDLE);//USER ADD COMMENT: recieve to idle interup enable
 8001ad2:	682a      	ldr	r2, [r5, #0]
 8001ad4:	6813      	ldr	r3, [r2, #0]
 8001ad6:	f043 0310 	orr.w	r3, r3, #16
 8001ada:	6013      	str	r3, [r2, #0]
    HAL_UARTEx_ReceiveToIdle_DMA(inst->uart, inst->rx_buffer, MAX_PACKET_SIZE);
 8001adc:	4631      	mov	r1, r6
 8001ade:	f44f 7284 	mov.w	r2, #264	@ 0x108
 8001ae2:	4628      	mov	r0, r5
 8001ae4:	f003 ff4f 	bl	8005986 <HAL_UARTEx_ReceiveToIdle_DMA>
    __HAL_DMA_DISABLE_IT(inst->uart->hdmarx, DMA_IT_HT); //USER ADD COMMENT: half transfer interupt disable
 8001ae8:	6823      	ldr	r3, [r4, #0]
 8001aea:	6f5b      	ldr	r3, [r3, #116]	@ 0x74
 8001aec:	681a      	ldr	r2, [r3, #0]
 8001aee:	6813      	ldr	r3, [r2, #0]
 8001af0:	f023 0304 	bic.w	r3, r3, #4
 8001af4:	6013      	str	r3, [r2, #0]
}
 8001af6:	bdf8      	pop	{r3, r4, r5, r6, r7, pc}
    for (int i = 0; i < NSLP_MAX_INSTANCES; i++) {
 8001af8:	3301      	adds	r3, #1
 8001afa:	2b04      	cmp	r3, #4
 8001afc:	d1e4      	bne.n	8001ac8 <nslp_init+0x48>
 8001afe:	e7e8      	b.n	8001ad2 <nslp_init+0x52>
 8001b00:	200008a0 	.word	0x200008a0

08001b04 <nslp_send_packet>:

void nslp_send_packet(nslp_instance_t *inst, nslp_packet_t *packet) {
 8001b04:	b470      	push	{r4, r5, r6}
    if (!packet || packet->size > MAX_PAYLOAD_SIZE ||
 8001b06:	b1a1      	cbz	r1, 8001b32 <nslp_send_packet+0x2e>
        inst->tx_count >= inst->tx_queue_length) return;
 8001b08:	8b44      	ldrh	r4, [r0, #26]
 8001b0a:	8a85      	ldrh	r5, [r0, #20]
    if (!packet || packet->size > MAX_PAYLOAD_SIZE ||
 8001b0c:	42ac      	cmp	r4, r5
 8001b0e:	d210      	bcs.n	8001b32 <nslp_send_packet+0x2e>

    inst->tx_queue[inst->tx_head] = packet;
 8001b10:	8ac2      	ldrh	r2, [r0, #22]
 8001b12:	6906      	ldr	r6, [r0, #16]
 8001b14:	f846 1022 	str.w	r1, [r6, r2, lsl #2]
    inst->tx_head = (inst->tx_head + 1) % inst->tx_queue_length;
 8001b18:	3201      	adds	r2, #1
    inst->tx_count++;

    if (!inst->tx_busy) {
 8001b1a:	7f03      	ldrb	r3, [r0, #28]
    inst->tx_head = (inst->tx_head + 1) % inst->tx_queue_length;
 8001b1c:	fbb2 f1f5 	udiv	r1, r2, r5
    inst->tx_count++;
 8001b20:	3401      	adds	r4, #1
    inst->tx_head = (inst->tx_head + 1) % inst->tx_queue_length;
 8001b22:	fb05 2211 	mls	r2, r5, r1, r2
 8001b26:	82c2      	strh	r2, [r0, #22]
    inst->tx_count++;
 8001b28:	8344      	strh	r4, [r0, #26]
    if (!inst->tx_busy) {
 8001b2a:	b913      	cbnz	r3, 8001b32 <nslp_send_packet+0x2e>
        start_tx(inst);
    }
}
 8001b2c:	bc70      	pop	{r4, r5, r6}
        start_tx(inst);
 8001b2e:	f7ff bf63 	b.w	80019f8 <start_tx>
}
 8001b32:	bc70      	pop	{r4, r5, r6}
 8001b34:	4770      	bx	lr

08001b36 <nslp_min_delay>:

uint32_t nslp_min_delay(nslp_instance_t *inst) {
 8001b36:	e92d 41f0 	stmdb	sp!, {r4, r5, r6, r7, r8, lr}
    if (!inst || inst->tx_count == 0 || inst->uart == NULL) return UART_TIMEOUT_MS;
 8001b3a:	4601      	mov	r1, r0
 8001b3c:	b368      	cbz	r0, 8001b9a <nslp_min_delay+0x64>
 8001b3e:	8b45      	ldrh	r5, [r0, #26]
 8001b40:	b35d      	cbz	r5, 8001b9a <nslp_min_delay+0x64>
 8001b42:	6803      	ldr	r3, [r0, #0]
 8001b44:	b34b      	cbz	r3, 8001b9a <nslp_min_delay+0x64>

    uint32_t baudrate = inst->uart->Init.BaudRate;
 8001b46:	6858      	ldr	r0, [r3, #4]
    if (baudrate == 0) return 0;
 8001b48:	b328      	cbz	r0, 8001b96 <nslp_min_delay+0x60>

    uint32_t total_time_ms = 0;
    uint16_t idx = inst->tx_tail;

    for (uint16_t i = 0; i < inst->tx_count; i++) {
        nslp_packet_t *p = inst->tx_queue[idx];
 8001b4a:	2400      	movs	r4, #0
    uint16_t idx = inst->tx_tail;
 8001b4c:	8b0a      	ldrh	r2, [r1, #24]
        nslp_packet_t *p = inst->tx_queue[idx];
 8001b4e:	690e      	ldr	r6, [r1, #16]
    uint32_t total_time_ms = 0;
 8001b50:	4623      	mov	r3, r4

        // Calculate total packet size
        uint16_t packet_size = FRAME_START_SIZE + HEADER_SIZE + p->size + CHECKSUM_SIZE;

        // Convert to bits (assuming 10 bits per byte: 1 start + 8 data + 1 stop)
        uint32_t bits = packet_size * 10;
 8001b52:	270a      	movs	r7, #10

        // Transmission time in ms
        uint32_t tx_time_ms = (1000UL * bits) / baudrate;
 8001b54:	f44f 7c7a 	mov.w	ip, #1000	@ 0x3e8
        nslp_packet_t *p = inst->tx_queue[idx];
 8001b58:	f856 8022 	ldr.w	r8, [r6, r2, lsl #2]
        if (!p) continue;
 8001b5c:	f1b8 0f00 	cmp.w	r8, #0
 8001b60:	d012      	beq.n	8001b88 <nslp_min_delay+0x52>

        // Add UART time + fixed 25ms overhead
        total_time_ms += tx_time_ms + 25;
 8001b62:	f103 0e19 	add.w	lr, r3, #25
        uint16_t packet_size = FRAME_START_SIZE + HEADER_SIZE + p->size + CHECKSUM_SIZE;
 8001b66:	f898 3003 	ldrb.w	r3, [r8, #3]
        uint32_t bits = packet_size * 10;
 8001b6a:	3309      	adds	r3, #9
 8001b6c:	437b      	muls	r3, r7
        uint32_t tx_time_ms = (1000UL * bits) / baudrate;
 8001b6e:	fb0c f303 	mul.w	r3, ip, r3
 8001b72:	fbb3 f3f0 	udiv	r3, r3, r0
        total_time_ms += tx_time_ms + 25;
 8001b76:	4473      	add	r3, lr

        idx = (idx + 1) % inst->tx_queue_length;
 8001b78:	f8b1 e014 	ldrh.w	lr, [r1, #20]
 8001b7c:	3201      	adds	r2, #1
 8001b7e:	fbb2 f8fe 	udiv	r8, r2, lr
 8001b82:	fb0e 2218 	mls	r2, lr, r8, r2
 8001b86:	b292      	uxth	r2, r2
    for (uint16_t i = 0; i < inst->tx_count; i++) {
 8001b88:	3401      	adds	r4, #1
 8001b8a:	fa1f fe84 	uxth.w	lr, r4
 8001b8e:	4575      	cmp	r5, lr
 8001b90:	d8e2      	bhi.n	8001b58 <nslp_min_delay+0x22>
    }

    return total_time_ms + UART_TIMEOUT_MS;
 8001b92:	f103 0082 	add.w	r0, r3, #130	@ 0x82
}
 8001b96:	e8bd 81f0 	ldmia.w	sp!, {r4, r5, r6, r7, r8, pc}
    if (!inst || inst->tx_count == 0 || inst->uart == NULL) return UART_TIMEOUT_MS;
 8001b9a:	2082      	movs	r0, #130	@ 0x82
 8001b9c:	e7fb      	b.n	8001b96 <nslp_min_delay+0x60>

08001b9e <nslp_uart_tx_cplt_handler>:

void nslp_uart_tx_cplt_handler(UART_HandleTypeDef *huart) {
 8001b9e:	b510      	push	{r4, lr}
    nslp_instance_t *inst = find_instance(huart);
 8001ba0:	f7ff ff18 	bl	80019d4 <find_instance>
    if (!inst) return;
 8001ba4:	b180      	cbz	r0, 8001bc8 <nslp_uart_tx_cplt_handler+0x2a>

    inst->tx_tail = (inst->tx_tail + 1) % inst->tx_queue_length;
 8001ba6:	8b02      	ldrh	r2, [r0, #24]
 8001ba8:	8a81      	ldrh	r1, [r0, #20]
 8001baa:	3201      	adds	r2, #1
 8001bac:	fbb2 f4f1 	udiv	r4, r2, r1
 8001bb0:	fb01 2214 	mls	r2, r1, r4, r2
 8001bb4:	8302      	strh	r2, [r0, #24]
    inst->tx_count--;
 8001bb6:	8b42      	ldrh	r2, [r0, #26]
 8001bb8:	3a01      	subs	r2, #1
 8001bba:	8342      	strh	r2, [r0, #26]
    inst->tx_busy = 0;
 8001bbc:	2200      	movs	r2, #0
 8001bbe:	7702      	strb	r2, [r0, #28]
    start_tx(inst);
}
 8001bc0:	e8bd 4010 	ldmia.w	sp!, {r4, lr}
    start_tx(inst);
 8001bc4:	f7ff bf18 	b.w	80019f8 <start_tx>
}
 8001bc8:	bd10      	pop	{r4, pc}
	...

08001bcc <nslp_uart_rx_event_handler>:

void nslp_uart_rx_event_handler(UART_HandleTypeDef *huart, uint16_t size) {
 8001bcc:	e92d 47f0 	stmdb	sp!, {r4, r5, r6, r7, r8, r9, sl, lr}
    nslp_instance_t *inst = find_instance(huart);
 8001bd0:	f7ff ff00 	bl	80019d4 <find_instance>
    if (!inst) return;
 8001bd4:	4604      	mov	r4, r0
 8001bd6:	b1c0      	cbz	r0, 8001c0a <nslp_uart_rx_event_handler+0x3e>

    nslp_rx_active = 1;
 8001bd8:	4d2b      	ldr	r5, [pc, #172]	@ (8001c88 <nslp_uart_rx_event_handler+0xbc>)
    inst->rx_active = 1;

    if (inst->rx_buffer[0] != FRAME_START) {
 8001bda:	6881      	ldr	r1, [r0, #8]
    nslp_rx_active = 1;
 8001bdc:	2301      	movs	r3, #1
 8001bde:	702b      	strb	r3, [r5, #0]
    inst->rx_active = 1;
 8001be0:	f880 312c 	strb.w	r3, [r0, #300]	@ 0x12c
    if (inst->rx_buffer[0] != FRAME_START) {
 8001be4:	780b      	ldrb	r3, [r1, #0]
 8001be6:	2b7e      	cmp	r3, #126	@ 0x7e
 8001be8:	d011      	beq.n	8001c0e <nslp_uart_rx_event_handler+0x42>
    uint8_t type     = inst->rx_buffer[3];
    uint8_t payload_size = inst->rx_buffer[4];

    // Ignore packets not for us (unless broadcast)
    if (receiver != inst->address && receiver != 0xFF) {
        nslp_rx_active = 0;
 8001bea:	2300      	movs	r3, #0
 8001bec:	702b      	strb	r3, [r5, #0]
        inst->rx_active = 0;
 8001bee:	f884 312c 	strb.w	r3, [r4, #300]	@ 0x12c
        HAL_UARTEx_ReceiveToIdle_DMA(inst->uart, inst->rx_buffer, MAX_PACKET_SIZE);
 8001bf2:	f44f 7284 	mov.w	r2, #264	@ 0x108
        inst->rx_callback(&inst->rx_packet);
    }

    nslp_rx_active = 0;
    inst->rx_active = 0;
    HAL_UARTEx_ReceiveToIdle_DMA(inst->uart, inst->rx_buffer, MAX_PACKET_SIZE);
 8001bf6:	6820      	ldr	r0, [r4, #0]
 8001bf8:	f003 fec5 	bl	8005986 <HAL_UARTEx_ReceiveToIdle_DMA>
    __HAL_DMA_DISABLE_IT(inst->uart->hdmarx, DMA_IT_HT);
 8001bfc:	6823      	ldr	r3, [r4, #0]
 8001bfe:	6f5b      	ldr	r3, [r3, #116]	@ 0x74
 8001c00:	681a      	ldr	r2, [r3, #0]
 8001c02:	6813      	ldr	r3, [r2, #0]
 8001c04:	f023 0304 	bic.w	r3, r3, #4
 8001c08:	6013      	str	r3, [r2, #0]
}
 8001c0a:	e8bd 87f0 	ldmia.w	sp!, {r4, r5, r6, r7, r8, r9, sl, pc}
    uint8_t receiver = inst->rx_buffer[2];
 8001c0e:	f891 9002 	ldrb.w	r9, [r1, #2]
    if (receiver != inst->address && receiver != 0xFF) {
 8001c12:	f890 312d 	ldrb.w	r3, [r0, #301]	@ 0x12d
    uint8_t sender   = inst->rx_buffer[1];
 8001c16:	f891 8001 	ldrb.w	r8, [r1, #1]
    uint8_t type     = inst->rx_buffer[3];
 8001c1a:	78cf      	ldrb	r7, [r1, #3]
    uint8_t payload_size = inst->rx_buffer[4];
 8001c1c:	790e      	ldrb	r6, [r1, #4]
    if (receiver != inst->address && receiver != 0xFF) {
 8001c1e:	454b      	cmp	r3, r9
 8001c20:	d002      	beq.n	8001c28 <nslp_uart_rx_event_handler+0x5c>
 8001c22:	f1b9 0fff 	cmp.w	r9, #255	@ 0xff
 8001c26:	d1e0      	bne.n	8001bea <nslp_uart_rx_event_handler+0x1e>
    __HAL_CRC_DR_RESET(inst->crc);
 8001c28:	6860      	ldr	r0, [r4, #4]
    memcpy(&received_crc, &inst->rx_buffer[PAYLOAD_OFFSET + payload_size], CRC_SIZE);
 8001c2a:	198b      	adds	r3, r1, r6
    __HAL_CRC_DR_RESET(inst->crc);
 8001c2c:	6802      	ldr	r2, [r0, #0]
    memcpy(&received_crc, &inst->rx_buffer[PAYLOAD_OFFSET + payload_size], CRC_SIZE);
 8001c2e:	f8d3 a005 	ldr.w	sl, [r3, #5]
    __HAL_CRC_DR_RESET(inst->crc);
 8001c32:	6893      	ldr	r3, [r2, #8]
 8001c34:	f043 0301 	orr.w	r3, r3, #1
 8001c38:	6093      	str	r3, [r2, #8]
    uint32_t computed_crc = HAL_CRC_Calculate(inst->crc,
 8001c3a:	3101      	adds	r1, #1
 8001c3c:	1d32      	adds	r2, r6, #4
 8001c3e:	f001 f8af 	bl	8002da0 <HAL_CRC_Calculate>
    if (received_crc != computed_crc) {
 8001c42:	4582      	cmp	sl, r0
 8001c44:	d007      	beq.n	8001c56 <nslp_uart_rx_event_handler+0x8a>
    nslp_rx_active = 0;
 8001c46:	2300      	movs	r3, #0
    HAL_UARTEx_ReceiveToIdle_DMA(inst->uart, inst->rx_buffer, MAX_PACKET_SIZE);
 8001c48:	68a1      	ldr	r1, [r4, #8]
    nslp_rx_active = 0;
 8001c4a:	702b      	strb	r3, [r5, #0]
    inst->rx_active = 0;
 8001c4c:	f884 312c 	strb.w	r3, [r4, #300]	@ 0x12c
    HAL_UARTEx_ReceiveToIdle_DMA(inst->uart, inst->rx_buffer, MAX_PACKET_SIZE);
 8001c50:	f44f 7284 	mov.w	r2, #264	@ 0x108
 8001c54:	e7cf      	b.n	8001bf6 <nslp_uart_rx_event_handler+0x2a>
    memcpy(inst->rx_payload, &inst->rx_buffer[PAYLOAD_OFFSET], payload_size);
 8001c56:	68a1      	ldr	r1, [r4, #8]
 8001c58:	f104 0328 	add.w	r3, r4, #40	@ 0x28
 8001c5c:	4618      	mov	r0, r3
 8001c5e:	4632      	mov	r2, r6
 8001c60:	3105      	adds	r1, #5
 8001c62:	f008 fa40 	bl	800a0e6 <memcpy>
    if (inst->rx_callback) {
 8001c66:	f8d4 3128 	ldr.w	r3, [r4, #296]	@ 0x128
    inst->rx_packet.sender   = sender;
 8001c6a:	f884 8020 	strb.w	r8, [r4, #32]
    inst->rx_packet.receiver = receiver;
 8001c6e:	f884 9021 	strb.w	r9, [r4, #33]	@ 0x21
    inst->rx_packet.type     = type;
 8001c72:	f884 7022 	strb.w	r7, [r4, #34]	@ 0x22
    inst->rx_packet.size     = payload_size;
 8001c76:	f884 6023 	strb.w	r6, [r4, #35]	@ 0x23
    inst->rx_packet.payload  = inst->rx_payload;
 8001c7a:	6260      	str	r0, [r4, #36]	@ 0x24
    if (inst->rx_callback) {
 8001c7c:	2b00      	cmp	r3, #0
 8001c7e:	d0e2      	beq.n	8001c46 <nslp_uart_rx_event_handler+0x7a>
        inst->rx_callback(&inst->rx_packet);
 8001c80:	f104 0020 	add.w	r0, r4, #32
 8001c84:	4798      	blx	r3
 8001c86:	e7de      	b.n	8001c46 <nslp_uart_rx_event_handler+0x7a>
 8001c88:	200008b0 	.word	0x200008b0

08001c8c <nslp_uart_error_handler>:

void nslp_uart_error_handler(UART_HandleTypeDef *huart) {
 8001c8c:	b510      	push	{r4, lr}
    nslp_instance_t *inst = find_instance(huart);
 8001c8e:	f7ff fea1 	bl	80019d4 <find_instance>
    if (!inst) return;
 8001c92:	4604      	mov	r4, r0
 8001c94:	b188      	cbz	r0, 8001cba <nslp_uart_error_handler+0x2e>

    nslp_rx_active = 0;
 8001c96:	4a09      	ldr	r2, [pc, #36]	@ (8001cbc <nslp_uart_error_handler+0x30>)
    inst->rx_active = 0;

    HAL_UARTEx_ReceiveToIdle_DMA(inst->uart, inst->rx_buffer, MAX_PACKET_SIZE);
 8001c98:	6881      	ldr	r1, [r0, #8]
    nslp_rx_active = 0;
 8001c9a:	2300      	movs	r3, #0
 8001c9c:	7013      	strb	r3, [r2, #0]
    inst->rx_active = 0;
 8001c9e:	f880 312c 	strb.w	r3, [r0, #300]	@ 0x12c
    HAL_UARTEx_ReceiveToIdle_DMA(inst->uart, inst->rx_buffer, MAX_PACKET_SIZE);
 8001ca2:	f44f 7284 	mov.w	r2, #264	@ 0x108
 8001ca6:	6800      	ldr	r0, [r0, #0]
 8001ca8:	f003 fe6d 	bl	8005986 <HAL_UARTEx_ReceiveToIdle_DMA>
    __HAL_DMA_DISABLE_IT(inst->uart->hdmarx, DMA_IT_HT);
 8001cac:	6823      	ldr	r3, [r4, #0]
 8001cae:	6f5b      	ldr	r3, [r3, #116]	@ 0x74
 8001cb0:	681a      	ldr	r2, [r3, #0]
 8001cb2:	6813      	ldr	r3, [r2, #0]
 8001cb4:	f023 0304 	bic.w	r3, r3, #4
 8001cb8:	6013      	str	r3, [r2, #0]
}
 8001cba:	bd10      	pop	{r4, pc}
 8001cbc:	200008b0 	.word	0x200008b0

08001cc0 <quaternion_to_rotation_3x3>:

/* ══════════════════════════════════════════
 *  Quaternion → 3×3 Rotation matrix
 * ══════════════════════════════════════════ */
void quaternion_to_rotation_3x3(vector_t *q, double R[3][3])
{
 8001cc0:	e92d 47f0 	stmdb	sp!, {r4, r5, r6, r7, r8, r9, sl, lr}
    double ww = q->w * q->w;
 8001cc4:	e9d0 8900 	ldrd	r8, r9, [r0]
{
 8001cc8:	b092      	sub	sp, #72	@ 0x48
 8001cca:	468a      	mov	sl, r1
 8001ccc:	4604      	mov	r4, r0
    double ww = q->w * q->w;
 8001cce:	4642      	mov	r2, r8
 8001cd0:	464b      	mov	r3, r9
 8001cd2:	4640      	mov	r0, r8
 8001cd4:	4649      	mov	r1, r9
 8001cd6:	f7fe fc8f 	bl	80005f8 <__aeabi_dmul>
    double xx = q->x * q->x;
 8001cda:	e9d4 6702 	ldrd	r6, r7, [r4, #8]
    double ww = q->w * q->w;
 8001cde:	e9cd 0106 	strd	r0, r1, [sp, #24]
    double xx = q->x * q->x;
 8001ce2:	4632      	mov	r2, r6
 8001ce4:	463b      	mov	r3, r7
 8001ce6:	4630      	mov	r0, r6
 8001ce8:	4639      	mov	r1, r7
 8001cea:	f7fe fc85 	bl	80005f8 <__aeabi_dmul>
    double yy = q->y * q->y;
 8001cee:	ed94 7b04 	vldr	d7, [r4, #16]
 8001cf2:	ec53 2b17 	vmov	r2, r3, d7
    double xx = q->x * q->x;
 8001cf6:	e9cd 0108 	strd	r0, r1, [sp, #32]
    double yy = q->y * q->y;
 8001cfa:	4610      	mov	r0, r2
 8001cfc:	4619      	mov	r1, r3
 8001cfe:	ed8d 7b00 	vstr	d7, [sp]
 8001d02:	f7fe fc79 	bl	80005f8 <__aeabi_dmul>
    double zz = q->z * q->z;
 8001d06:	e9d4 4506 	ldrd	r4, r5, [r4, #24]
    double yy = q->y * q->y;
 8001d0a:	e9cd 0102 	strd	r0, r1, [sp, #8]
    double zz = q->z * q->z;
 8001d0e:	4622      	mov	r2, r4
 8001d10:	462b      	mov	r3, r5
 8001d12:	4620      	mov	r0, r4
 8001d14:	4629      	mov	r1, r5
 8001d16:	f7fe fc6f 	bl	80005f8 <__aeabi_dmul>
    double wx = q->w * q->x;
 8001d1a:	4632      	mov	r2, r6
    double zz = q->z * q->z;
 8001d1c:	e9cd 0104 	strd	r0, r1, [sp, #16]
    double wx = q->w * q->x;
 8001d20:	463b      	mov	r3, r7
 8001d22:	4640      	mov	r0, r8
 8001d24:	4649      	mov	r1, r9
 8001d26:	f7fe fc67 	bl	80005f8 <__aeabi_dmul>
    double wy = q->w * q->y;
 8001d2a:	e9dd 2300 	ldrd	r2, r3, [sp]
    double wx = q->w * q->x;
 8001d2e:	e9cd 010a 	strd	r0, r1, [sp, #40]	@ 0x28
    double wy = q->w * q->y;
 8001d32:	4640      	mov	r0, r8
 8001d34:	4649      	mov	r1, r9
 8001d36:	f7fe fc5f 	bl	80005f8 <__aeabi_dmul>
    double wz = q->w * q->z;
 8001d3a:	4622      	mov	r2, r4
    double wy = q->w * q->y;
 8001d3c:	e9cd 010c 	strd	r0, r1, [sp, #48]	@ 0x30
    double wz = q->w * q->z;
 8001d40:	462b      	mov	r3, r5
 8001d42:	4640      	mov	r0, r8
 8001d44:	4649      	mov	r1, r9
 8001d46:	f7fe fc57 	bl	80005f8 <__aeabi_dmul>
    double xy = q->x * q->y;
 8001d4a:	e9dd 2300 	ldrd	r2, r3, [sp]
    double wz = q->w * q->z;
 8001d4e:	e9cd 010e 	strd	r0, r1, [sp, #56]	@ 0x38
    double xy = q->x * q->y;
 8001d52:	4630      	mov	r0, r6
 8001d54:	4639      	mov	r1, r7
 8001d56:	f7fe fc4f 	bl	80005f8 <__aeabi_dmul>
    double xz = q->x * q->z;
 8001d5a:	4622      	mov	r2, r4
    double xy = q->x * q->y;
 8001d5c:	4680      	mov	r8, r0
 8001d5e:	4689      	mov	r9, r1
    double xz = q->x * q->z;
 8001d60:	462b      	mov	r3, r5
 8001d62:	4630      	mov	r0, r6
 8001d64:	4639      	mov	r1, r7
 8001d66:	f7fe fc47 	bl	80005f8 <__aeabi_dmul>
    double yz = q->y * q->z;
 8001d6a:	4622      	mov	r2, r4
    double xz = q->x * q->z;
 8001d6c:	e9cd 0110 	strd	r0, r1, [sp, #64]	@ 0x40
    double yz = q->y * q->z;
 8001d70:	462b      	mov	r3, r5
 8001d72:	e9dd 0100 	ldrd	r0, r1, [sp]
 8001d76:	f7fe fc3f 	bl	80005f8 <__aeabi_dmul>

    R[0][0] = ww + xx - yy - zz;
 8001d7a:	e9dd 2308 	ldrd	r2, r3, [sp, #32]
    double yz = q->y * q->z;
 8001d7e:	4604      	mov	r4, r0
 8001d80:	460d      	mov	r5, r1
    R[0][0] = ww + xx - yy - zz;
 8001d82:	e9dd 0106 	ldrd	r0, r1, [sp, #24]
 8001d86:	f7fe fa81 	bl	800028c <__adddf3>
 8001d8a:	e9dd 2302 	ldrd	r2, r3, [sp, #8]
 8001d8e:	f7fe fa7b 	bl	8000288 <__aeabi_dsub>
 8001d92:	e9dd 2304 	ldrd	r2, r3, [sp, #16]
 8001d96:	f7fe fa77 	bl	8000288 <__aeabi_dsub>
    R[0][1] = 2.0 * (xy - wz);
 8001d9a:	e9dd 230e 	ldrd	r2, r3, [sp, #56]	@ 0x38
    R[0][0] = ww + xx - yy - zz;
 8001d9e:	e9ca 0100 	strd	r0, r1, [sl]
    R[0][1] = 2.0 * (xy - wz);
 8001da2:	4640      	mov	r0, r8
 8001da4:	4649      	mov	r1, r9
 8001da6:	f7fe fa6f 	bl	8000288 <__aeabi_dsub>
 8001daa:	4602      	mov	r2, r0
 8001dac:	460b      	mov	r3, r1
 8001dae:	f7fe fa6d 	bl	800028c <__adddf3>
    R[0][2] = 2.0 * (xz + wy);
 8001db2:	e9dd 2310 	ldrd	r2, r3, [sp, #64]	@ 0x40
    R[0][1] = 2.0 * (xy - wz);
 8001db6:	e9ca 0102 	strd	r0, r1, [sl, #8]
    R[0][2] = 2.0 * (xz + wy);
 8001dba:	e9dd 010c 	ldrd	r0, r1, [sp, #48]	@ 0x30
 8001dbe:	f7fe fa65 	bl	800028c <__adddf3>
 8001dc2:	4602      	mov	r2, r0
 8001dc4:	460b      	mov	r3, r1
 8001dc6:	f7fe fa61 	bl	800028c <__adddf3>

    R[1][0] = 2.0 * (xy + wz);
 8001dca:	4642      	mov	r2, r8
    R[0][2] = 2.0 * (xz + wy);
 8001dcc:	e9ca 0104 	strd	r0, r1, [sl, #16]
    R[1][0] = 2.0 * (xy + wz);
 8001dd0:	464b      	mov	r3, r9
 8001dd2:	e9dd 010e 	ldrd	r0, r1, [sp, #56]	@ 0x38
 8001dd6:	f7fe fa59 	bl	800028c <__adddf3>
 8001dda:	4602      	mov	r2, r0
 8001ddc:	460b      	mov	r3, r1
 8001dde:	f7fe fa55 	bl	800028c <__adddf3>
    R[1][1] = ww - xx + yy - zz;
 8001de2:	e9dd 2308 	ldrd	r2, r3, [sp, #32]
    R[1][0] = 2.0 * (xy + wz);
 8001de6:	e9ca 0106 	strd	r0, r1, [sl, #24]
    R[1][1] = ww - xx + yy - zz;
 8001dea:	e9dd 0106 	ldrd	r0, r1, [sp, #24]
 8001dee:	f7fe fa4b 	bl	8000288 <__aeabi_dsub>
 8001df2:	e9dd 2302 	ldrd	r2, r3, [sp, #8]
 8001df6:	4606      	mov	r6, r0
 8001df8:	460f      	mov	r7, r1
 8001dfa:	f7fe fa47 	bl	800028c <__adddf3>
 8001dfe:	e9dd 2304 	ldrd	r2, r3, [sp, #16]
 8001e02:	f7fe fa41 	bl	8000288 <__aeabi_dsub>
    R[1][2] = 2.0 * (yz - wx);
 8001e06:	e9dd 230a 	ldrd	r2, r3, [sp, #40]	@ 0x28
    R[1][1] = ww - xx + yy - zz;
 8001e0a:	e9ca 0108 	strd	r0, r1, [sl, #32]
    R[1][2] = 2.0 * (yz - wx);
 8001e0e:	4620      	mov	r0, r4
 8001e10:	4629      	mov	r1, r5
 8001e12:	f7fe fa39 	bl	8000288 <__aeabi_dsub>
 8001e16:	4602      	mov	r2, r0
 8001e18:	460b      	mov	r3, r1
 8001e1a:	f7fe fa37 	bl	800028c <__adddf3>

    R[2][0] = 2.0 * (xz - wy);
 8001e1e:	e9dd 230c 	ldrd	r2, r3, [sp, #48]	@ 0x30
    R[1][2] = 2.0 * (yz - wx);
 8001e22:	e9ca 010a 	strd	r0, r1, [sl, #40]	@ 0x28
    R[2][0] = 2.0 * (xz - wy);
 8001e26:	e9dd 0110 	ldrd	r0, r1, [sp, #64]	@ 0x40
 8001e2a:	f7fe fa2d 	bl	8000288 <__aeabi_dsub>
 8001e2e:	4602      	mov	r2, r0
 8001e30:	460b      	mov	r3, r1
 8001e32:	f7fe fa2b 	bl	800028c <__adddf3>
    R[2][1] = 2.0 * (yz + wx);
 8001e36:	4622      	mov	r2, r4
    R[2][0] = 2.0 * (xz - wy);
 8001e38:	e9ca 010c 	strd	r0, r1, [sl, #48]	@ 0x30
    R[2][1] = 2.0 * (yz + wx);
 8001e3c:	462b      	mov	r3, r5
 8001e3e:	e9dd 010a 	ldrd	r0, r1, [sp, #40]	@ 0x28
 8001e42:	f7fe fa23 	bl	800028c <__adddf3>
 8001e46:	4602      	mov	r2, r0
 8001e48:	460b      	mov	r3, r1
 8001e4a:	f7fe fa1f 	bl	800028c <__adddf3>
    R[2][2] = ww - xx - yy + zz;
 8001e4e:	e9dd 2302 	ldrd	r2, r3, [sp, #8]
    R[2][1] = 2.0 * (yz + wx);
 8001e52:	e9ca 010e 	strd	r0, r1, [sl, #56]	@ 0x38
    R[2][2] = ww - xx - yy + zz;
 8001e56:	4630      	mov	r0, r6
 8001e58:	4639      	mov	r1, r7
 8001e5a:	f7fe fa15 	bl	8000288 <__aeabi_dsub>
 8001e5e:	e9dd 2304 	ldrd	r2, r3, [sp, #16]
 8001e62:	f7fe fa13 	bl	800028c <__adddf3>
 8001e66:	e9ca 0110 	strd	r0, r1, [sl, #64]	@ 0x40
}
 8001e6a:	b012      	add	sp, #72	@ 0x48
 8001e6c:	e8bd 87f0 	ldmia.w	sp!, {r4, r5, r6, r7, r8, r9, sl, pc}

08001e70 <rotation_to_euler_safe>:
 *    pitch = ±90°
 *    roll  = 0  (arbitrarily)
 *    yaw   = atan2(-R[0][1], R[1][1])
 * ══════════════════════════════════════════ */
euler_t rotation_to_euler_safe(double R[3][3])
{
 8001e70:	b5f8      	push	{r3, r4, r5, r6, r7, lr}
    euler_t e;
    double sin_pitch = -R[2][0];
 8001e72:	e9d1 670c 	ldrd	r6, r7, [r1, #48]	@ 0x30

    /* Clamp for numerical safety */
    if (sin_pitch > 1.0)  sin_pitch = 1.0;
 8001e76:	4b30      	ldr	r3, [pc, #192]	@ (8001f38 <rotation_to_euler_safe+0xc8>)
 8001e78:	2200      	movs	r2, #0
{
 8001e7a:	ed2d 8b04 	vpush	{d8-d9}
 8001e7e:	4605      	mov	r5, r0
 8001e80:	460c      	mov	r4, r1
    if (sin_pitch > 1.0)  sin_pitch = 1.0;
 8001e82:	4630      	mov	r0, r6
 8001e84:	4639      	mov	r1, r7
 8001e86:	f7fe fe29 	bl	8000adc <__aeabi_dcmplt>
 8001e8a:	4b2c      	ldr	r3, [pc, #176]	@ (8001f3c <rotation_to_euler_safe+0xcc>)
 8001e8c:	2200      	movs	r2, #0
 8001e8e:	b940      	cbnz	r0, 8001ea2 <rotation_to_euler_safe+0x32>
    if (sin_pitch < -1.0) sin_pitch = -1.0;
 8001e90:	4630      	mov	r0, r6
 8001e92:	4639      	mov	r1, r7
 8001e94:	f7fe fe40 	bl	8000b18 <__aeabi_dcmpgt>
 8001e98:	2200      	movs	r2, #0
 8001e9a:	bb80      	cbnz	r0, 8001efe <rotation_to_euler_safe+0x8e>
    double sin_pitch = -R[2][0];
 8001e9c:	4632      	mov	r2, r6
 8001e9e:	f107 4300 	add.w	r3, r7, #2147483648	@ 0x80000000

    e.pitch = asin(sin_pitch);
 8001ea2:	ec43 2b10 	vmov	d0, r2, r3
 8001ea6:	f003 fd93 	bl	80059d0 <asin>
 8001eaa:	eeb0 9a40 	vmov.f32	s18, s0
 8001eae:	eef0 9a60 	vmov.f32	s19, s1

    double cos_pitch = cos(e.pitch);
 8001eb2:	f003 fe61 	bl	8005b78 <cos>
 8001eb6:	ec53 2b10 	vmov	r2, r3, d0

    if (fabs(cos_pitch) < GIMBAL_LOCK_THRESHOLD) {
 8001eba:	4610      	mov	r0, r2
 8001ebc:	f023 4100 	bic.w	r1, r3, #2147483648	@ 0x80000000
 8001ec0:	a319      	add	r3, pc, #100	@ (adr r3, 8001f28 <rotation_to_euler_safe+0xb8>)
 8001ec2:	e9d3 2300 	ldrd	r2, r3, [r3]
 8001ec6:	f7fe fe09 	bl	8000adc <__aeabi_dcmplt>
 8001eca:	4606      	mov	r6, r0
 8001ecc:	b1c8      	cbz	r0, 8001f02 <rotation_to_euler_safe+0x92>
        /* ── Gimbal lock ── */
        e.gimbal_locked = 1;
        e.roll  = 0.0;  // set roll to zero by convention
        e.yaw   = atan2(-R[0][1], R[1][1]);
 8001ece:	e9d4 2102 	ldrd	r2, r1, [r4, #8]
 8001ed2:	f101 4300 	add.w	r3, r1, #2147483648	@ 0x80000000
 8001ed6:	ed94 1b08 	vldr	d1, [r4, #32]
 8001eda:	ec43 2b10 	vmov	d0, r2, r3
 8001ede:	f003 fdab 	bl	8005a38 <atan2>
        e.roll  = 0.0;  // set roll to zero by convention
 8001ee2:	ed9f 8b13 	vldr	d8, [pc, #76]	@ 8001f30 <rotation_to_euler_safe+0xc0>
        e.gimbal_locked = 1;
 8001ee6:	2601      	movs	r6, #1
        /* ── Normal case ── */
        e.gimbal_locked = 0;
        e.roll  = atan2(R[2][1], R[2][2]);
        e.yaw   = atan2(R[1][0], R[0][0]);
    }
    return e;
 8001ee8:	762e      	strb	r6, [r5, #24]
 8001eea:	ed85 8b00 	vstr	d8, [r5]
 8001eee:	ed85 9b02 	vstr	d9, [r5, #8]
}
 8001ef2:	ecbd 8b04 	vpop	{d8-d9}
 8001ef6:	4628      	mov	r0, r5
    return e;
 8001ef8:	ed85 0b04 	vstr	d0, [r5, #16]
}
 8001efc:	bdf8      	pop	{r3, r4, r5, r6, r7, pc}
    if (sin_pitch < -1.0) sin_pitch = -1.0;
 8001efe:	4b0e      	ldr	r3, [pc, #56]	@ (8001f38 <rotation_to_euler_safe+0xc8>)
 8001f00:	e7cf      	b.n	8001ea2 <rotation_to_euler_safe+0x32>
        e.roll  = atan2(R[2][1], R[2][2]);
 8001f02:	ed94 1b10 	vldr	d1, [r4, #64]	@ 0x40
 8001f06:	ed94 0b0e 	vldr	d0, [r4, #56]	@ 0x38
 8001f0a:	f003 fd95 	bl	8005a38 <atan2>
        e.yaw   = atan2(R[1][0], R[0][0]);
 8001f0e:	ed94 1b00 	vldr	d1, [r4]
        e.roll  = atan2(R[2][1], R[2][2]);
 8001f12:	eeb0 8a40 	vmov.f32	s16, s0
 8001f16:	eef0 8a60 	vmov.f32	s17, s1
        e.yaw   = atan2(R[1][0], R[0][0]);
 8001f1a:	ed94 0b06 	vldr	d0, [r4, #24]
 8001f1e:	f003 fd8b 	bl	8005a38 <atan2>
 8001f22:	e7e1      	b.n	8001ee8 <rotation_to_euler_safe+0x78>
 8001f24:	f3af 8000 	nop.w
 8001f28:	a0b5ed8d 	.word	0xa0b5ed8d
 8001f2c:	3eb0c6f7 	.word	0x3eb0c6f7
	...
 8001f38:	bff00000 	.word	0xbff00000
 8001f3c:	3ff00000 	.word	0x3ff00000

08001f40 <update_IMU_global_position>:
    double sp[3], double so[3][3],
    vector_t *acc_in, vector_t *abs_q_in,
    int time_step,
    vector_t *X_global_translation,
    euler_t  *O_global_orientation_euler)
{
 8001f40:	e92d 4ff0 	stmdb	sp!, {r4, r5, r6, r7, r8, r9, sl, fp, lr}
 8001f44:	b0b5      	sub	sp, #212	@ 0xd4
 8001f46:	4616      	mov	r6, r2
 8001f48:	9005      	str	r0, [sp, #20]
    /* Velocity must persist between calls */
    static vector_t velocity = {0.0, 0.0, 0.0, 0.0};

    double dt = time_step / 1000000.0;
 8001f4a:	983e      	ldr	r0, [sp, #248]	@ 0xf8
{
 8001f4c:	461d      	mov	r5, r3
 8001f4e:	460f      	mov	r7, r1
    double dt = time_step / 1000000.0;
 8001f50:	f7fe fae8 	bl	8000524 <__aeabi_i2d>
 8001f54:	a3c0      	add	r3, pc, #768	@ (adr r3, 8002258 <update_IMU_global_position+0x318>)
 8001f56:	e9d3 2300 	ldrd	r2, r3, [r3]
 8001f5a:	f7fe fc77 	bl	800084c <__aeabi_ddiv>
 8001f5e:	4602      	mov	r2, r0
 8001f60:	460b      	mov	r3, r1
 8001f62:	e9cd 2300 	strd	r2, r3, [sp]
    if (dt <= 0.0) return;
 8001f66:	2200      	movs	r2, #0
 8001f68:	2300      	movs	r3, #0
 8001f6a:	f7fe fdc1 	bl	8000af0 <__aeabi_dcmple>
 8001f6e:	4604      	mov	r4, r0
 8001f70:	2800      	cmp	r0, #0
 8001f72:	f040 8164 	bne.w	800223e <update_IMU_global_position+0x2fe>

    /* ── 1. Absolute rotation from quaternion ── */
    double R_abs[3][3];
    quaternion_to_rotation_3x3(abs_q_in, R_abs);
 8001f76:	a910      	add	r1, sp, #64	@ 0x40
 8001f78:	4628      	mov	r0, r5
 8001f7a:	f7ff fea1 	bl	8001cc0 <quaternion_to_rotation_3x3>

    /* ── 2. Relative rotation:  R_rel = R_abs × so^T
     *       (remove starting orientation)            ── */
    double R_rel[3][3];
    for (int i = 0; i < 3; i++) {
 8001f7e:	f107 0b48 	add.w	fp, r7, #72	@ 0x48
        for (int j = 0; j < 3; j++) {
 8001f82:	ab22      	add	r3, sp, #136	@ 0x88
 8001f84:	eb03 0904 	add.w	r9, r3, r4
 8001f88:	463d      	mov	r5, r7
 8001f8a:	e000      	b.n	8001f8e <update_IMU_global_position+0x4e>
 8001f8c:	4645      	mov	r5, r8
            R_rel[i][j] = 0.0;
            for (int k = 0; k < 3; k++) {
 8001f8e:	ed9f 7bae 	vldr	d7, [pc, #696]	@ 8002248 <update_IMU_global_position+0x308>
 8001f92:	ed8d 7b02 	vstr	d7, [sp, #8]
 8001f96:	f104 0340 	add.w	r3, r4, #64	@ 0x40
 8001f9a:	eb0d 0a03 	add.w	sl, sp, r3
 8001f9e:	f105 0818 	add.w	r8, r5, #24
                // so is orthogonal → so^T = so inverse
                R_rel[i][j] += R_abs[i][k] * so[j][k];
 8001fa2:	e8f5 2302 	ldrd	r2, r3, [r5], #8
 8001fa6:	e8fa 0102 	ldrd	r0, r1, [sl], #8
 8001faa:	f7fe fb25 	bl	80005f8 <__aeabi_dmul>
 8001fae:	4602      	mov	r2, r0
 8001fb0:	460b      	mov	r3, r1
 8001fb2:	e9dd 0102 	ldrd	r0, r1, [sp, #8]
 8001fb6:	f7fe f969 	bl	800028c <__adddf3>
            for (int k = 0; k < 3; k++) {
 8001fba:	45a8      	cmp	r8, r5
                R_rel[i][j] += R_abs[i][k] * so[j][k];
 8001fbc:	e9cd 0102 	strd	r0, r1, [sp, #8]
            for (int k = 0; k < 3; k++) {
 8001fc0:	d1ef      	bne.n	8001fa2 <update_IMU_global_position+0x62>
        for (int j = 0; j < 3; j++) {
 8001fc2:	45c3      	cmp	fp, r8
 8001fc4:	e8e9 0102 	strd	r0, r1, [r9], #8
 8001fc8:	d1e0      	bne.n	8001f8c <update_IMU_global_position+0x4c>
    for (int i = 0; i < 3; i++) {
 8001fca:	3418      	adds	r4, #24
 8001fcc:	2c48      	cmp	r4, #72	@ 0x48
 8001fce:	d1d8      	bne.n	8001f82 <update_IMU_global_position+0x42>
            }
        }
    }

    /* ── 3. Rotate acceleration into global frame ── */
    double ax_g = R_rel[0][0]*acc_in->x
 8001fd0:	e9d6 4502 	ldrd	r4, r5, [r6, #8]
 8001fd4:	e9dd 2322 	ldrd	r2, r3, [sp, #136]	@ 0x88
 8001fd8:	4620      	mov	r0, r4
 8001fda:	4629      	mov	r1, r5
                + R_rel[0][1]*acc_in->y
 8001fdc:	e9d6 8904 	ldrd	r8, r9, [r6, #16]
    double ax_g = R_rel[0][0]*acc_in->x
 8001fe0:	f7fe fb0a 	bl	80005f8 <__aeabi_dmul>
                + R_rel[0][2]*acc_in->z;
 8001fe4:	e9d6 ab06 	ldrd	sl, fp, [r6, #24]
                + R_rel[0][1]*acc_in->y
 8001fe8:	e9dd 2324 	ldrd	r2, r3, [sp, #144]	@ 0x90
    double ax_g = R_rel[0][0]*acc_in->x
 8001fec:	4606      	mov	r6, r0
 8001fee:	460f      	mov	r7, r1
                + R_rel[0][1]*acc_in->y
 8001ff0:	4640      	mov	r0, r8
 8001ff2:	4649      	mov	r1, r9
 8001ff4:	f7fe fb00 	bl	80005f8 <__aeabi_dmul>
 8001ff8:	4602      	mov	r2, r0
 8001ffa:	460b      	mov	r3, r1
 8001ffc:	4630      	mov	r0, r6
 8001ffe:	4639      	mov	r1, r7
 8002000:	f7fe f944 	bl	800028c <__adddf3>
                + R_rel[0][2]*acc_in->z;
 8002004:	e9dd 2326 	ldrd	r2, r3, [sp, #152]	@ 0x98
                + R_rel[0][1]*acc_in->y
 8002008:	4606      	mov	r6, r0
 800200a:	460f      	mov	r7, r1
                + R_rel[0][2]*acc_in->z;
 800200c:	4650      	mov	r0, sl
 800200e:	4659      	mov	r1, fp
 8002010:	f7fe faf2 	bl	80005f8 <__aeabi_dmul>
 8002014:	4602      	mov	r2, r0
 8002016:	460b      	mov	r3, r1
    double ax_g = R_rel[0][0]*acc_in->x
 8002018:	4630      	mov	r0, r6
 800201a:	4639      	mov	r1, r7
 800201c:	f7fe f936 	bl	800028c <__adddf3>
    double ay_g = R_rel[1][0]*acc_in->x
 8002020:	e9dd 2328 	ldrd	r2, r3, [sp, #160]	@ 0xa0
    double ax_g = R_rel[0][0]*acc_in->x
 8002024:	e9cd 010a 	strd	r0, r1, [sp, #40]	@ 0x28
    double ay_g = R_rel[1][0]*acc_in->x
 8002028:	4620      	mov	r0, r4
 800202a:	4629      	mov	r1, r5
 800202c:	f7fe fae4 	bl	80005f8 <__aeabi_dmul>
                + R_rel[1][1]*acc_in->y
 8002030:	e9dd 232a 	ldrd	r2, r3, [sp, #168]	@ 0xa8
    double ay_g = R_rel[1][0]*acc_in->x
 8002034:	4606      	mov	r6, r0
 8002036:	460f      	mov	r7, r1
                + R_rel[1][1]*acc_in->y
 8002038:	4640      	mov	r0, r8
 800203a:	4649      	mov	r1, r9
 800203c:	f7fe fadc 	bl	80005f8 <__aeabi_dmul>
 8002040:	4602      	mov	r2, r0
 8002042:	460b      	mov	r3, r1
 8002044:	4630      	mov	r0, r6
 8002046:	4639      	mov	r1, r7
 8002048:	f7fe f920 	bl	800028c <__adddf3>
                + R_rel[1][2]*acc_in->z;
 800204c:	e9dd 232c 	ldrd	r2, r3, [sp, #176]	@ 0xb0
                + R_rel[1][1]*acc_in->y
 8002050:	4606      	mov	r6, r0
 8002052:	460f      	mov	r7, r1
                + R_rel[1][2]*acc_in->z;
 8002054:	4650      	mov	r0, sl
 8002056:	4659      	mov	r1, fp
 8002058:	f7fe face 	bl	80005f8 <__aeabi_dmul>
 800205c:	4602      	mov	r2, r0
 800205e:	460b      	mov	r3, r1
    double ay_g = R_rel[1][0]*acc_in->x
 8002060:	4630      	mov	r0, r6
 8002062:	4639      	mov	r1, r7
 8002064:	f7fe f912 	bl	800028c <__adddf3>
    double az_g = R_rel[2][0]*acc_in->x
 8002068:	e9dd 232e 	ldrd	r2, r3, [sp, #184]	@ 0xb8
    double ay_g = R_rel[1][0]*acc_in->x
 800206c:	e9cd 010c 	strd	r0, r1, [sp, #48]	@ 0x30
    double az_g = R_rel[2][0]*acc_in->x
 8002070:	4620      	mov	r0, r4
 8002072:	4629      	mov	r1, r5
 8002074:	f7fe fac0 	bl	80005f8 <__aeabi_dmul>
                + R_rel[2][1]*acc_in->y
 8002078:	e9dd 2330 	ldrd	r2, r3, [sp, #192]	@ 0xc0
    double az_g = R_rel[2][0]*acc_in->x
 800207c:	4604      	mov	r4, r0
 800207e:	460d      	mov	r5, r1
                + R_rel[2][1]*acc_in->y
 8002080:	4640      	mov	r0, r8
 8002082:	4649      	mov	r1, r9
 8002084:	f7fe fab8 	bl	80005f8 <__aeabi_dmul>
 8002088:	4602      	mov	r2, r0
 800208a:	460b      	mov	r3, r1
 800208c:	4620      	mov	r0, r4
 800208e:	4629      	mov	r1, r5
 8002090:	f7fe f8fc 	bl	800028c <__adddf3>
                + R_rel[2][2]*acc_in->z;
 8002094:	e9dd 2332 	ldrd	r2, r3, [sp, #200]	@ 0xc8
                + R_rel[2][1]*acc_in->y
 8002098:	4604      	mov	r4, r0
 800209a:	460d      	mov	r5, r1
                + R_rel[2][2]*acc_in->z;
 800209c:	4650      	mov	r0, sl
 800209e:	4659      	mov	r1, fp
 80020a0:	f7fe faaa 	bl	80005f8 <__aeabi_dmul>
 80020a4:	4602      	mov	r2, r0
 80020a6:	460b      	mov	r3, r1
    double az_g = R_rel[2][0]*acc_in->x
 80020a8:	4620      	mov	r0, r4
 80020aa:	4629      	mov	r1, r5
     *    x(t+dt) = x(t) + v(t)·dt + ½a·dt²  ← 2nd integral
     *
     *  Note: position uses v(t) BEFORE update,
     *        so we update position first, then velocity.
     */
    X_global_translation->x += velocity.x * dt + 0.5 * ax_g * dt * dt;
 80020ac:	4c68      	ldr	r4, [pc, #416]	@ (8002250 <update_IMU_global_position+0x310>)
    double az_g = R_rel[2][0]*acc_in->x
 80020ae:	f7fe f8ed 	bl	800028c <__adddf3>
    X_global_translation->x += velocity.x * dt + 0.5 * ax_g * dt * dt;
 80020b2:	ed94 7b02 	vldr	d7, [r4, #8]
    double az_g = R_rel[2][0]*acc_in->x
 80020b6:	e9cd 010e 	strd	r0, r1, [sp, #56]	@ 0x38
    X_global_translation->x += velocity.x * dt + 0.5 * ax_g * dt * dt;
 80020ba:	4b66      	ldr	r3, [pc, #408]	@ (8002254 <update_IMU_global_position+0x314>)
 80020bc:	e9dd 010a 	ldrd	r0, r1, [sp, #40]	@ 0x28
 80020c0:	2200      	movs	r2, #0
 80020c2:	ed8d 7b02 	vstr	d7, [sp, #8]
 80020c6:	f7fe fa97 	bl	80005f8 <__aeabi_dmul>
 80020ca:	e9dd 2300 	ldrd	r2, r3, [sp]
 80020ce:	f7fe fa93 	bl	80005f8 <__aeabi_dmul>
 80020d2:	e9dd 2300 	ldrd	r2, r3, [sp]
 80020d6:	f7fe fa8f 	bl	80005f8 <__aeabi_dmul>
 80020da:	e9dd 2300 	ldrd	r2, r3, [sp]
 80020de:	4606      	mov	r6, r0
 80020e0:	460f      	mov	r7, r1
 80020e2:	e9dd 0102 	ldrd	r0, r1, [sp, #8]
 80020e6:	f7fe fa87 	bl	80005f8 <__aeabi_dmul>
 80020ea:	4602      	mov	r2, r0
 80020ec:	460b      	mov	r3, r1
 80020ee:	4630      	mov	r0, r6
 80020f0:	4639      	mov	r1, r7
 80020f2:	f7fe f8cb 	bl	800028c <__adddf3>
 80020f6:	9b3f      	ldr	r3, [sp, #252]	@ 0xfc
 80020f8:	e9d3 2302 	ldrd	r2, r3, [r3, #8]
 80020fc:	f7fe f8c6 	bl	800028c <__adddf3>
    X_global_translation->y += velocity.y * dt + 0.5 * ay_g * dt * dt;
 8002100:	ed94 7b04 	vldr	d7, [r4, #16]
    X_global_translation->x += velocity.x * dt + 0.5 * ax_g * dt * dt;
 8002104:	9b3f      	ldr	r3, [sp, #252]	@ 0xfc
 8002106:	4682      	mov	sl, r0
 8002108:	468b      	mov	fp, r1
 800210a:	e9c3 ab02 	strd	sl, fp, [r3, #8]
    X_global_translation->y += velocity.y * dt + 0.5 * ay_g * dt * dt;
 800210e:	e9dd 010c 	ldrd	r0, r1, [sp, #48]	@ 0x30
 8002112:	4b50      	ldr	r3, [pc, #320]	@ (8002254 <update_IMU_global_position+0x314>)
 8002114:	2200      	movs	r2, #0
 8002116:	ed8d 7b06 	vstr	d7, [sp, #24]
 800211a:	f7fe fa6d 	bl	80005f8 <__aeabi_dmul>
 800211e:	e9dd 2300 	ldrd	r2, r3, [sp]
 8002122:	f7fe fa69 	bl	80005f8 <__aeabi_dmul>
 8002126:	e9dd 2300 	ldrd	r2, r3, [sp]
 800212a:	f7fe fa65 	bl	80005f8 <__aeabi_dmul>
 800212e:	e9dd 2300 	ldrd	r2, r3, [sp]
 8002132:	4606      	mov	r6, r0
 8002134:	460f      	mov	r7, r1
 8002136:	e9dd 0106 	ldrd	r0, r1, [sp, #24]
 800213a:	f7fe fa5d 	bl	80005f8 <__aeabi_dmul>
 800213e:	4602      	mov	r2, r0
 8002140:	460b      	mov	r3, r1
 8002142:	4630      	mov	r0, r6
 8002144:	4639      	mov	r1, r7
 8002146:	f7fe f8a1 	bl	800028c <__adddf3>
 800214a:	9b3f      	ldr	r3, [sp, #252]	@ 0xfc
 800214c:	e9d3 2304 	ldrd	r2, r3, [r3, #16]
 8002150:	f7fe f89c 	bl	800028c <__adddf3>
    X_global_translation->z += velocity.z * dt + 0.5 * az_g * dt * dt;
 8002154:	ed94 7b06 	vldr	d7, [r4, #24]
    X_global_translation->y += velocity.y * dt + 0.5 * ay_g * dt * dt;
 8002158:	9b3f      	ldr	r3, [sp, #252]	@ 0xfc
 800215a:	4680      	mov	r8, r0
 800215c:	4689      	mov	r9, r1
 800215e:	e9c3 8904 	strd	r8, r9, [r3, #16]
    X_global_translation->z += velocity.z * dt + 0.5 * az_g * dt * dt;
 8002162:	e9dd 010e 	ldrd	r0, r1, [sp, #56]	@ 0x38
 8002166:	4b3b      	ldr	r3, [pc, #236]	@ (8002254 <update_IMU_global_position+0x314>)
 8002168:	2200      	movs	r2, #0
 800216a:	ed8d 7b08 	vstr	d7, [sp, #32]
 800216e:	f7fe fa43 	bl	80005f8 <__aeabi_dmul>
 8002172:	e9dd 2300 	ldrd	r2, r3, [sp]
 8002176:	f7fe fa3f 	bl	80005f8 <__aeabi_dmul>
 800217a:	e9dd 2300 	ldrd	r2, r3, [sp]
 800217e:	f7fe fa3b 	bl	80005f8 <__aeabi_dmul>
 8002182:	e9dd 2300 	ldrd	r2, r3, [sp]
 8002186:	4606      	mov	r6, r0
 8002188:	460f      	mov	r7, r1
 800218a:	e9dd 0108 	ldrd	r0, r1, [sp, #32]
 800218e:	f7fe fa33 	bl	80005f8 <__aeabi_dmul>
 8002192:	4602      	mov	r2, r0
 8002194:	460b      	mov	r3, r1
 8002196:	4630      	mov	r0, r6
 8002198:	4639      	mov	r1, r7
 800219a:	f7fe f877 	bl	800028c <__adddf3>
 800219e:	9b3f      	ldr	r3, [sp, #252]	@ 0xfc
 80021a0:	e9d3 2306 	ldrd	r2, r3, [r3, #24]
 80021a4:	f7fe f872 	bl	800028c <__adddf3>
 80021a8:	9b3f      	ldr	r3, [sp, #252]	@ 0xfc
 80021aa:	4606      	mov	r6, r0
 80021ac:	460f      	mov	r7, r1
 80021ae:	e9c3 6706 	strd	r6, r7, [r3, #24]

    velocity.x += ax_g * dt;
 80021b2:	e9dd 0100 	ldrd	r0, r1, [sp]
 80021b6:	e9dd 230a 	ldrd	r2, r3, [sp, #40]	@ 0x28
 80021ba:	f7fe fa1d 	bl	80005f8 <__aeabi_dmul>
 80021be:	e9dd 2302 	ldrd	r2, r3, [sp, #8]
 80021c2:	f7fe f863 	bl	800028c <__adddf3>
    velocity.y += ay_g * dt;
 80021c6:	e9dd 230c 	ldrd	r2, r3, [sp, #48]	@ 0x30
    velocity.x += ax_g * dt;
 80021ca:	e9c4 0102 	strd	r0, r1, [r4, #8]
    velocity.y += ay_g * dt;
 80021ce:	e9dd 0100 	ldrd	r0, r1, [sp]
 80021d2:	f7fe fa11 	bl	80005f8 <__aeabi_dmul>
 80021d6:	e9dd 2306 	ldrd	r2, r3, [sp, #24]
 80021da:	f7fe f857 	bl	800028c <__adddf3>
    velocity.z += az_g * dt;
 80021de:	e9dd 230e 	ldrd	r2, r3, [sp, #56]	@ 0x38
    velocity.y += ay_g * dt;
 80021e2:	e9c4 0104 	strd	r0, r1, [r4, #16]
    velocity.z += az_g * dt;
 80021e6:	e9dd 0100 	ldrd	r0, r1, [sp]
 80021ea:	f7fe fa05 	bl	80005f8 <__aeabi_dmul>
 80021ee:	e9dd 2308 	ldrd	r2, r3, [sp, #32]
 80021f2:	f7fe f84b 	bl	800028c <__adddf3>
 80021f6:	e9c4 0106 	strd	r0, r1, [r4, #24]

    /* Apply starting position offset */
    X_global_translation->x += sp[0];
 80021fa:	9905      	ldr	r1, [sp, #20]
 80021fc:	4652      	mov	r2, sl
 80021fe:	e9d1 0100 	ldrd	r0, r1, [r1]
 8002202:	465b      	mov	r3, fp
 8002204:	f7fe f842 	bl	800028c <__adddf3>
 8002208:	9b3f      	ldr	r3, [sp, #252]	@ 0xfc
 800220a:	e9c3 0102 	strd	r0, r1, [r3, #8]
    X_global_translation->y += sp[1];
 800220e:	9905      	ldr	r1, [sp, #20]
 8002210:	4642      	mov	r2, r8
 8002212:	e9d1 0102 	ldrd	r0, r1, [r1, #8]
 8002216:	464b      	mov	r3, r9
 8002218:	f7fe f838 	bl	800028c <__adddf3>
 800221c:	9b3f      	ldr	r3, [sp, #252]	@ 0xfc
 800221e:	e9c3 0104 	strd	r0, r1, [r3, #16]
    X_global_translation->z += sp[2];
 8002222:	9905      	ldr	r1, [sp, #20]
 8002224:	463b      	mov	r3, r7
 8002226:	e9d1 0104 	ldrd	r0, r1, [r1, #16]
 800222a:	4632      	mov	r2, r6
 800222c:	f7fe f82e 	bl	800028c <__adddf3>
 8002230:	9b3f      	ldr	r3, [sp, #252]	@ 0xfc
 8002232:	e9c3 0106 	strd	r0, r1, [r3, #24]
    // Note: offset should only be applied once at init,
    // or stored separately. This is kept for compatibility.

    /* ── 5. Euler angles (gimbal-lock safe) ── */
    *O_global_orientation_euler = rotation_to_euler_safe(R_rel);
 8002236:	9840      	ldr	r0, [sp, #256]	@ 0x100
 8002238:	a922      	add	r1, sp, #136	@ 0x88
 800223a:	f7ff fe19 	bl	8001e70 <rotation_to_euler_safe>
}
 800223e:	b035      	add	sp, #212	@ 0xd4
 8002240:	e8bd 8ff0 	ldmia.w	sp!, {r4, r5, r6, r7, r8, r9, sl, fp, pc}
 8002244:	f3af 8000 	nop.w
	...
 8002250:	20001540 	.word	0x20001540
 8002254:	3fe00000 	.word	0x3fe00000
 8002258:	00000000 	.word	0x00000000
 800225c:	412e8480 	.word	0x412e8480

08002260 <vector_t_moving_average_filter>:

/* ══════════════════════════════════════════
 *  Moving average filter
 * ══════════════════════════════════════════ */
void vector_t_moving_average_filter(vector_t *input, vector_t *output)
{
 8002260:	e92d 4df3 	stmdb	sp!, {r0, r1, r4, r5, r6, r7, r8, sl, fp, lr}
    static vector_t buffer[RUNING_AVG_BUFF];
    static int index = 0;

    buffer[index] = *input;
 8002264:	4604      	mov	r4, r0
 8002266:	f8df c0b8 	ldr.w	ip, [pc, #184]	@ 8002320 <vector_t_moving_average_filter+0xc0>
 800226a:	4f2b      	ldr	r7, [pc, #172]	@ (8002318 <vector_t_moving_average_filter+0xb8>)
 800226c:	f8dc 6000 	ldr.w	r6, [ip]
{
 8002270:	4688      	mov	r8, r1
    buffer[index] = *input;
 8002272:	cc0f      	ldmia	r4!, {r0, r1, r2, r3}
 8002274:	eb07 1546 	add.w	r5, r7, r6, lsl #5
 8002278:	c50f      	stmia	r5!, {r0, r1, r2, r3}
 800227a:	e894 000f 	ldmia.w	r4, {r0, r1, r2, r3}
    index = (index + 1) % RUNING_AVG_BUFF;
 800227e:	2400      	movs	r4, #0
    buffer[index] = *input;
 8002280:	e885 000f 	stmia.w	r5, {r0, r1, r2, r3}
    index = (index + 1) % RUNING_AVG_BUFF;
 8002284:	2500      	movs	r5, #0
 8002286:	3601      	adds	r6, #1
 8002288:	2364      	movs	r3, #100	@ 0x64
 800228a:	e9cd 4500 	strd	r4, r5, [sp]
 800228e:	fb96 f2f3 	sdiv	r2, r6, r3
 8002292:	fb03 6612 	mls	r6, r3, r2, r6
 8002296:	f8cc 6000 	str.w	r6, [ip]

    output->x = 0.0;
    output->y = 0.0;
    output->z = 0.0;

    for (int i = 0; i < RUNING_AVG_BUFF; i++) {
 800229a:	46ba      	mov	sl, r7
    index = (index + 1) % RUNING_AVG_BUFF;
 800229c:	4626      	mov	r6, r4
 800229e:	462f      	mov	r7, r5
    for (int i = 0; i < RUNING_AVG_BUFF; i++) {
 80022a0:	f04f 0b00 	mov.w	fp, #0
        output->x += buffer[i].x;
 80022a4:	e9da 2302 	ldrd	r2, r3, [sl, #8]
 80022a8:	e9dd 0100 	ldrd	r0, r1, [sp]
 80022ac:	f7fd ffee 	bl	800028c <__adddf3>
        output->y += buffer[i].y;
 80022b0:	e9da 2304 	ldrd	r2, r3, [sl, #16]
        output->x += buffer[i].x;
 80022b4:	e9cd 0100 	strd	r0, r1, [sp]
        output->y += buffer[i].y;
 80022b8:	4630      	mov	r0, r6
 80022ba:	4639      	mov	r1, r7
 80022bc:	f7fd ffe6 	bl	800028c <__adddf3>
        output->z += buffer[i].z;
 80022c0:	e9da 2306 	ldrd	r2, r3, [sl, #24]
        output->y += buffer[i].y;
 80022c4:	4606      	mov	r6, r0
 80022c6:	460f      	mov	r7, r1
        output->z += buffer[i].z;
 80022c8:	4620      	mov	r0, r4
 80022ca:	4629      	mov	r1, r5
 80022cc:	f7fd ffde 	bl	800028c <__adddf3>
    for (int i = 0; i < RUNING_AVG_BUFF; i++) {
 80022d0:	f10b 0b01 	add.w	fp, fp, #1
 80022d4:	f1bb 0f64 	cmp.w	fp, #100	@ 0x64
        output->z += buffer[i].z;
 80022d8:	4604      	mov	r4, r0
 80022da:	460d      	mov	r5, r1
    for (int i = 0; i < RUNING_AVG_BUFF; i++) {
 80022dc:	f10a 0a20 	add.w	sl, sl, #32
 80022e0:	d1e0      	bne.n	80022a4 <vector_t_moving_average_filter+0x44>
    }
    output->x /= RUNING_AVG_BUFF;
 80022e2:	e9dd 0100 	ldrd	r0, r1, [sp]
 80022e6:	4b0d      	ldr	r3, [pc, #52]	@ (800231c <vector_t_moving_average_filter+0xbc>)
 80022e8:	2200      	movs	r2, #0
 80022ea:	f7fe faaf 	bl	800084c <__aeabi_ddiv>
    output->y /= RUNING_AVG_BUFF;
 80022ee:	4b0b      	ldr	r3, [pc, #44]	@ (800231c <vector_t_moving_average_filter+0xbc>)
    output->x /= RUNING_AVG_BUFF;
 80022f0:	e9c8 0102 	strd	r0, r1, [r8, #8]
    output->y /= RUNING_AVG_BUFF;
 80022f4:	2200      	movs	r2, #0
 80022f6:	4630      	mov	r0, r6
 80022f8:	4639      	mov	r1, r7
 80022fa:	f7fe faa7 	bl	800084c <__aeabi_ddiv>
    output->z /= RUNING_AVG_BUFF;
 80022fe:	4b07      	ldr	r3, [pc, #28]	@ (800231c <vector_t_moving_average_filter+0xbc>)
    output->y /= RUNING_AVG_BUFF;
 8002300:	e9c8 0104 	strd	r0, r1, [r8, #16]
    output->z /= RUNING_AVG_BUFF;
 8002304:	2200      	movs	r2, #0
 8002306:	4620      	mov	r0, r4
 8002308:	4629      	mov	r1, r5
 800230a:	f7fe fa9f 	bl	800084c <__aeabi_ddiv>
 800230e:	e9c8 0106 	strd	r0, r1, [r8, #24]
}
 8002312:	b002      	add	sp, #8
 8002314:	e8bd 8df0 	ldmia.w	sp!, {r4, r5, r6, r7, r8, sl, fp, pc}
 8002318:	200008b8 	.word	0x200008b8
 800231c:	40590000 	.word	0x40590000
 8002320:	20001538 	.word	0x20001538

08002324 <update_ts>:

/* ══════════════════════════════════════════
 *  Timestamp utility
 * ══════════════════════════════════════════ */
double update_ts(int *last_time, int current_time)
{
 8002324:	b508      	push	{r3, lr}
    int time_step = current_time - *last_time;
 8002326:	6803      	ldr	r3, [r0, #0]
    *last_time = current_time;
 8002328:	6001      	str	r1, [r0, #0]
    return (double)time_step;
 800232a:	1ac8      	subs	r0, r1, r3
 800232c:	f7fe f8fa 	bl	8000524 <__aeabi_i2d>
 8002330:	ec41 0b10 	vmov	d0, r0, r1
 8002334:	bd08      	pop	{r3, pc}
	...

08002338 <HAL_MspInit>:

  /* USER CODE BEGIN MspInit 0 */

  /* USER CODE END MspInit 0 */

  __HAL_RCC_SYSCFG_CLK_ENABLE();
 8002338:	4b0a      	ldr	r3, [pc, #40]	@ (8002364 <HAL_MspInit+0x2c>)
 800233a:	699a      	ldr	r2, [r3, #24]
 800233c:	f042 0201 	orr.w	r2, r2, #1
{
 8002340:	b082      	sub	sp, #8
  __HAL_RCC_SYSCFG_CLK_ENABLE();
 8002342:	619a      	str	r2, [r3, #24]
 8002344:	699a      	ldr	r2, [r3, #24]
 8002346:	f002 0201 	and.w	r2, r2, #1
 800234a:	9200      	str	r2, [sp, #0]
 800234c:	9a00      	ldr	r2, [sp, #0]
  __HAL_RCC_PWR_CLK_ENABLE();
 800234e:	69da      	ldr	r2, [r3, #28]
 8002350:	f042 5280 	orr.w	r2, r2, #268435456	@ 0x10000000
 8002354:	61da      	str	r2, [r3, #28]
 8002356:	69db      	ldr	r3, [r3, #28]
 8002358:	f003 5380 	and.w	r3, r3, #268435456	@ 0x10000000
 800235c:	9301      	str	r3, [sp, #4]
 800235e:	9b01      	ldr	r3, [sp, #4]
  /* System interrupt init*/

  /* USER CODE BEGIN MspInit 1 */

  /* USER CODE END MspInit 1 */
}
 8002360:	b002      	add	sp, #8
 8002362:	4770      	bx	lr
 8002364:	40021000 	.word	0x40021000

08002368 <HAL_CRC_MspInit>:
  * @param hcrc: CRC handle pointer
  * @retval None
  */
void HAL_CRC_MspInit(CRC_HandleTypeDef* hcrc)
{
  if(hcrc->Instance==CRC)
 8002368:	6802      	ldr	r2, [r0, #0]
 800236a:	4b08      	ldr	r3, [pc, #32]	@ (800238c <HAL_CRC_MspInit+0x24>)
 800236c:	429a      	cmp	r2, r3
{
 800236e:	b082      	sub	sp, #8
  if(hcrc->Instance==CRC)
 8002370:	d10a      	bne.n	8002388 <HAL_CRC_MspInit+0x20>
  {
    /* USER CODE BEGIN CRC_MspInit 0 */

    /* USER CODE END CRC_MspInit 0 */
    /* Peripheral clock enable */
    __HAL_RCC_CRC_CLK_ENABLE();
 8002372:	f5a3 5300 	sub.w	r3, r3, #8192	@ 0x2000
 8002376:	695a      	ldr	r2, [r3, #20]
 8002378:	f042 0240 	orr.w	r2, r2, #64	@ 0x40
 800237c:	615a      	str	r2, [r3, #20]
 800237e:	695b      	ldr	r3, [r3, #20]
 8002380:	f003 0340 	and.w	r3, r3, #64	@ 0x40
 8002384:	9301      	str	r3, [sp, #4]
 8002386:	9b01      	ldr	r3, [sp, #4]

    /* USER CODE END CRC_MspInit 1 */

  }

}
 8002388:	b002      	add	sp, #8
 800238a:	4770      	bx	lr
 800238c:	40023000 	.word	0x40023000

08002390 <HAL_I2C_MspInit>:
  * This function configures the hardware resources used in this example
  * @param hi2c: I2C handle pointer
  * @retval None
  */
void HAL_I2C_MspInit(I2C_HandleTypeDef* hi2c)
{
 8002390:	b570      	push	{r4, r5, r6, lr}
 8002392:	4605      	mov	r5, r0
 8002394:	b088      	sub	sp, #32
  GPIO_InitTypeDef GPIO_InitStruct = {0};
 8002396:	2214      	movs	r2, #20
 8002398:	2100      	movs	r1, #0
 800239a:	a803      	add	r0, sp, #12
 800239c:	f007 fe01 	bl	8009fa2 <memset>
  if(hi2c->Instance==I2C1)
 80023a0:	682a      	ldr	r2, [r5, #0]
 80023a2:	4b34      	ldr	r3, [pc, #208]	@ (8002474 <HAL_I2C_MspInit+0xe4>)
 80023a4:	429a      	cmp	r2, r3
 80023a6:	d162      	bne.n	800246e <HAL_I2C_MspInit+0xde>
  {
    /* USER CODE BEGIN I2C1_MspInit 0 */

    /* USER CODE END I2C1_MspInit 0 */

    __HAL_RCC_GPIOB_CLK_ENABLE();
 80023a8:	4c33      	ldr	r4, [pc, #204]	@ (8002478 <HAL_I2C_MspInit+0xe8>)
    __HAL_RCC_I2C1_CLK_ENABLE();

    /* I2C1 DMA Init */
    /* I2C1_RX Init */
    hdma_i2c1_rx.Instance = DMA1_Channel3;
    hdma_i2c1_rx.Init.Direction = DMA_PERIPH_TO_MEMORY;
 80023aa:	4e34      	ldr	r6, [pc, #208]	@ (800247c <HAL_I2C_MspInit+0xec>)
    __HAL_RCC_GPIOB_CLK_ENABLE();
 80023ac:	6963      	ldr	r3, [r4, #20]
 80023ae:	f443 2380 	orr.w	r3, r3, #262144	@ 0x40000
 80023b2:	6163      	str	r3, [r4, #20]
 80023b4:	6963      	ldr	r3, [r4, #20]
 80023b6:	f403 2380 	and.w	r3, r3, #262144	@ 0x40000
 80023ba:	9301      	str	r3, [sp, #4]
 80023bc:	9b01      	ldr	r3, [sp, #4]
    GPIO_InitStruct.Mode = GPIO_MODE_AF_OD;
 80023be:	21c0      	movs	r1, #192	@ 0xc0
 80023c0:	2312      	movs	r3, #18
 80023c2:	e9cd 1303 	strd	r1, r3, [sp, #12]
    GPIO_InitStruct.Alternate = GPIO_AF4_I2C1;
 80023c6:	2003      	movs	r0, #3
 80023c8:	2304      	movs	r3, #4
 80023ca:	e9cd 0306 	strd	r0, r3, [sp, #24]
    HAL_GPIO_Init(GPIOB, &GPIO_InitStruct);
 80023ce:	a903      	add	r1, sp, #12
 80023d0:	482b      	ldr	r0, [pc, #172]	@ (8002480 <HAL_I2C_MspInit+0xf0>)
 80023d2:	f000 fe1f 	bl	8003014 <HAL_GPIO_Init>
    __HAL_RCC_I2C1_CLK_ENABLE();
 80023d6:	69e3      	ldr	r3, [r4, #28]
 80023d8:	f443 1300 	orr.w	r3, r3, #2097152	@ 0x200000
 80023dc:	61e3      	str	r3, [r4, #28]
 80023de:	69e3      	ldr	r3, [r4, #28]
    hdma_i2c1_rx.Instance = DMA1_Channel3;
 80023e0:	4c28      	ldr	r4, [pc, #160]	@ (8002484 <HAL_I2C_MspInit+0xf4>)
    __HAL_RCC_I2C1_CLK_ENABLE();
 80023e2:	f403 1300 	and.w	r3, r3, #2097152	@ 0x200000
 80023e6:	9302      	str	r3, [sp, #8]
 80023e8:	9b02      	ldr	r3, [sp, #8]
    hdma_i2c1_rx.Init.PeriphInc = DMA_PINC_DISABLE;
    hdma_i2c1_rx.Init.MemInc = DMA_MINC_ENABLE;
 80023ea:	2280      	movs	r2, #128	@ 0x80
    hdma_i2c1_rx.Init.Direction = DMA_PERIPH_TO_MEMORY;
 80023ec:	2300      	movs	r3, #0
 80023ee:	e9c4 6300 	strd	r6, r3, [r4]
    hdma_i2c1_rx.Init.PeriphDataAlignment = DMA_PDATAALIGN_BYTE;
 80023f2:	e9c4 2303 	strd	r2, r3, [r4, #12]
    hdma_i2c1_rx.Init.MemDataAlignment = DMA_MDATAALIGN_BYTE;
    hdma_i2c1_rx.Init.Mode = DMA_NORMAL;
 80023f6:	e9c4 3305 	strd	r3, r3, [r4, #20]
    hdma_i2c1_rx.Init.PeriphInc = DMA_PINC_DISABLE;
 80023fa:	60a3      	str	r3, [r4, #8]
    hdma_i2c1_rx.Init.Priority = DMA_PRIORITY_HIGH;
    if (HAL_DMA_Init(&hdma_i2c1_rx) != HAL_OK)
 80023fc:	4620      	mov	r0, r4
    hdma_i2c1_rx.Init.Priority = DMA_PRIORITY_HIGH;
 80023fe:	f44f 5300 	mov.w	r3, #8192	@ 0x2000
 8002402:	61e3      	str	r3, [r4, #28]
    if (HAL_DMA_Init(&hdma_i2c1_rx) != HAL_OK)
 8002404:	f000 fd18 	bl	8002e38 <HAL_DMA_Init>
 8002408:	b108      	cbz	r0, 800240e <HAL_I2C_MspInit+0x7e>
    {
      Error_Handler();
 800240a:	f7ff fae1 	bl	80019d0 <Error_Handler>
    }

    __HAL_DMA_REMAP_CHANNEL_ENABLE(HAL_REMAPDMA_I2C1_RX_DMA1_CH3);
 800240e:	4e1e      	ldr	r6, [pc, #120]	@ (8002488 <HAL_I2C_MspInit+0xf8>)

    __HAL_LINKDMA(hi2c,hdmarx,hdma_i2c1_rx);

    /* I2C1_TX Init */
    hdma_i2c1_tx.Instance = DMA1_Channel2;
    hdma_i2c1_tx.Init.Direction = DMA_MEMORY_TO_PERIPH;
 8002410:	4a1e      	ldr	r2, [pc, #120]	@ (800248c <HAL_I2C_MspInit+0xfc>)
    __HAL_DMA_REMAP_CHANNEL_ENABLE(HAL_REMAPDMA_I2C1_RX_DMA1_CH3);
 8002412:	6d33      	ldr	r3, [r6, #80]	@ 0x50
 8002414:	f043 0310 	orr.w	r3, r3, #16
 8002418:	6533      	str	r3, [r6, #80]	@ 0x50
    __HAL_LINKDMA(hi2c,hdmarx,hdma_i2c1_rx);
 800241a:	63ec      	str	r4, [r5, #60]	@ 0x3c
 800241c:	6265      	str	r5, [r4, #36]	@ 0x24
    hdma_i2c1_tx.Instance = DMA1_Channel2;
 800241e:	4c1c      	ldr	r4, [pc, #112]	@ (8002490 <HAL_I2C_MspInit+0x100>)
    hdma_i2c1_tx.Init.Direction = DMA_MEMORY_TO_PERIPH;
 8002420:	2310      	movs	r3, #16
 8002422:	e9c4 2300 	strd	r2, r3, [r4]
    hdma_i2c1_tx.Init.MemInc = DMA_MINC_ENABLE;
    hdma_i2c1_tx.Init.PeriphDataAlignment = DMA_PDATAALIGN_BYTE;
    hdma_i2c1_tx.Init.MemDataAlignment = DMA_MDATAALIGN_BYTE;
    hdma_i2c1_tx.Init.Mode = DMA_NORMAL;
    hdma_i2c1_tx.Init.Priority = DMA_PRIORITY_LOW;
    if (HAL_DMA_Init(&hdma_i2c1_tx) != HAL_OK)
 8002426:	4620      	mov	r0, r4
    hdma_i2c1_tx.Init.MemInc = DMA_MINC_ENABLE;
 8002428:	2300      	movs	r3, #0
 800242a:	2280      	movs	r2, #128	@ 0x80
 800242c:	e9c4 3202 	strd	r3, r2, [r4, #8]
    hdma_i2c1_tx.Init.MemDataAlignment = DMA_MDATAALIGN_BYTE;
 8002430:	e9c4 3304 	strd	r3, r3, [r4, #16]
    hdma_i2c1_tx.Init.Priority = DMA_PRIORITY_LOW;
 8002434:	e9c4 3306 	strd	r3, r3, [r4, #24]
    if (HAL_DMA_Init(&hdma_i2c1_tx) != HAL_OK)
 8002438:	f000 fcfe 	bl	8002e38 <HAL_DMA_Init>
 800243c:	b108      	cbz	r0, 8002442 <HAL_I2C_MspInit+0xb2>
    {
      Error_Handler();
 800243e:	f7ff fac7 	bl	80019d0 <Error_Handler>
    }

    __HAL_DMA_REMAP_CHANNEL_ENABLE(HAL_REMAPDMA_I2C1_TX_DMA1_CH2);
 8002442:	6d33      	ldr	r3, [r6, #80]	@ 0x50

    __HAL_LINKDMA(hi2c,hdmatx,hdma_i2c1_tx);

    /* I2C1 interrupt Init */
    HAL_NVIC_SetPriority(I2C1_EV_IRQn, 0, 0);
 8002444:	2200      	movs	r2, #0
    __HAL_DMA_REMAP_CHANNEL_ENABLE(HAL_REMAPDMA_I2C1_TX_DMA1_CH2);
 8002446:	f043 0340 	orr.w	r3, r3, #64	@ 0x40
 800244a:	6533      	str	r3, [r6, #80]	@ 0x50
    HAL_NVIC_SetPriority(I2C1_EV_IRQn, 0, 0);
 800244c:	4611      	mov	r1, r2
 800244e:	201f      	movs	r0, #31
    __HAL_LINKDMA(hi2c,hdmatx,hdma_i2c1_tx);
 8002450:	63ac      	str	r4, [r5, #56]	@ 0x38
 8002452:	6265      	str	r5, [r4, #36]	@ 0x24
    HAL_NVIC_SetPriority(I2C1_EV_IRQn, 0, 0);
 8002454:	f000 fbd0 	bl	8002bf8 <HAL_NVIC_SetPriority>
    HAL_NVIC_EnableIRQ(I2C1_EV_IRQn);
 8002458:	201f      	movs	r0, #31
 800245a:	f000 fbff 	bl	8002c5c <HAL_NVIC_EnableIRQ>
    HAL_NVIC_SetPriority(I2C1_ER_IRQn, 0, 0);
 800245e:	2200      	movs	r2, #0
 8002460:	2020      	movs	r0, #32
 8002462:	4611      	mov	r1, r2
 8002464:	f000 fbc8 	bl	8002bf8 <HAL_NVIC_SetPriority>
    HAL_NVIC_EnableIRQ(I2C1_ER_IRQn);
 8002468:	2020      	movs	r0, #32
 800246a:	f000 fbf7 	bl	8002c5c <HAL_NVIC_EnableIRQ>

    /* USER CODE END I2C1_MspInit 1 */

  }

}
 800246e:	b008      	add	sp, #32
 8002470:	bd70      	pop	{r4, r5, r6, pc}
 8002472:	bf00      	nop
 8002474:	40005400 	.word	0x40005400
 8002478:	40021000 	.word	0x40021000
 800247c:	40020030 	.word	0x40020030
 8002480:	48000400 	.word	0x48000400
 8002484:	20000774 	.word	0x20000774
 8002488:	40010000 	.word	0x40010000
 800248c:	4002001c 	.word	0x4002001c
 8002490:	20000730 	.word	0x20000730

08002494 <HAL_UART_MspInit>:
  * This function configures the hardware resources used in this example
  * @param huart: UART handle pointer
  * @retval None
  */
void HAL_UART_MspInit(UART_HandleTypeDef* huart)
{
 8002494:	b5f0      	push	{r4, r5, r6, r7, lr}
  GPIO_InitTypeDef GPIO_InitStruct = {0};
 8002496:	2214      	movs	r2, #20
{
 8002498:	b08b      	sub	sp, #44	@ 0x2c
 800249a:	4605      	mov	r5, r0
  GPIO_InitTypeDef GPIO_InitStruct = {0};
 800249c:	2100      	movs	r1, #0
 800249e:	eb0d 0002 	add.w	r0, sp, r2
 80024a2:	f007 fd7e 	bl	8009fa2 <memset>
  if(huart->Instance==USART1)
 80024a6:	682b      	ldr	r3, [r5, #0]
 80024a8:	4a55      	ldr	r2, [pc, #340]	@ (8002600 <HAL_UART_MspInit+0x16c>)
 80024aa:	4293      	cmp	r3, r2
 80024ac:	d140      	bne.n	8002530 <HAL_UART_MspInit+0x9c>
  {
    /* USER CODE BEGIN USART1_MspInit 0 */

    /* USER CODE END USART1_MspInit 0 */
    /* Peripheral clock enable */
    __HAL_RCC_USART1_CLK_ENABLE();
 80024ae:	4b55      	ldr	r3, [pc, #340]	@ (8002604 <HAL_UART_MspInit+0x170>)
    HAL_GPIO_Init(GPIOA, &GPIO_InitStruct);

    /* USART1 DMA Init */
    /* USART1_RX Init */
    hdma_usart1_rx.Instance = DMA1_Channel5;
    hdma_usart1_rx.Init.Direction = DMA_PERIPH_TO_MEMORY;
 80024b0:	4e55      	ldr	r6, [pc, #340]	@ (8002608 <HAL_UART_MspInit+0x174>)
    __HAL_RCC_USART1_CLK_ENABLE();
 80024b2:	699a      	ldr	r2, [r3, #24]
 80024b4:	f442 4280 	orr.w	r2, r2, #16384	@ 0x4000
 80024b8:	619a      	str	r2, [r3, #24]
 80024ba:	699a      	ldr	r2, [r3, #24]
 80024bc:	f402 4280 	and.w	r2, r2, #16384	@ 0x4000
 80024c0:	9200      	str	r2, [sp, #0]
 80024c2:	9a00      	ldr	r2, [sp, #0]
    __HAL_RCC_GPIOA_CLK_ENABLE();
 80024c4:	695a      	ldr	r2, [r3, #20]
 80024c6:	f442 3200 	orr.w	r2, r2, #131072	@ 0x20000
 80024ca:	615a      	str	r2, [r3, #20]
 80024cc:	695b      	ldr	r3, [r3, #20]
 80024ce:	f403 3300 	and.w	r3, r3, #131072	@ 0x20000
 80024d2:	9301      	str	r3, [sp, #4]
 80024d4:	9b01      	ldr	r3, [sp, #4]
    GPIO_InitStruct.Mode = GPIO_MODE_AF_PP;
 80024d6:	f44f 60c0 	mov.w	r0, #1536	@ 0x600
 80024da:	2302      	movs	r3, #2
 80024dc:	e9cd 0305 	strd	r0, r3, [sp, #20]
    GPIO_InitStruct.Alternate = GPIO_AF7_USART1;
 80024e0:	2403      	movs	r4, #3
 80024e2:	2307      	movs	r3, #7
 80024e4:	e9cd 4308 	strd	r4, r3, [sp, #32]
    HAL_GPIO_Init(GPIOA, &GPIO_InitStruct);
 80024e8:	f04f 4090 	mov.w	r0, #1207959552	@ 0x48000000
    hdma_usart1_rx.Instance = DMA1_Channel5;
 80024ec:	4c47      	ldr	r4, [pc, #284]	@ (800260c <HAL_UART_MspInit+0x178>)
    HAL_GPIO_Init(GPIOA, &GPIO_InitStruct);
 80024ee:	a905      	add	r1, sp, #20
 80024f0:	f000 fd90 	bl	8003014 <HAL_GPIO_Init>
    hdma_usart1_rx.Init.Direction = DMA_PERIPH_TO_MEMORY;
 80024f4:	2300      	movs	r3, #0
    hdma_usart1_rx.Init.PeriphInc = DMA_PINC_DISABLE;
    hdma_usart1_rx.Init.MemInc = DMA_MINC_ENABLE;
 80024f6:	2280      	movs	r2, #128	@ 0x80
    hdma_usart1_rx.Init.Direction = DMA_PERIPH_TO_MEMORY;
 80024f8:	e9c4 6300 	strd	r6, r3, [r4]
    hdma_usart1_rx.Init.PeriphDataAlignment = DMA_PDATAALIGN_BYTE;
 80024fc:	e9c4 2303 	strd	r2, r3, [r4, #12]
    hdma_usart1_rx.Init.MemDataAlignment = DMA_MDATAALIGN_BYTE;
    hdma_usart1_rx.Init.Mode = DMA_NORMAL;
 8002500:	e9c4 3305 	strd	r3, r3, [r4, #20]
    hdma_usart1_rx.Init.PeriphInc = DMA_PINC_DISABLE;
 8002504:	60a3      	str	r3, [r4, #8]
    hdma_usart1_rx.Init.Priority = DMA_PRIORITY_VERY_HIGH;
    if (HAL_DMA_Init(&hdma_usart1_rx) != HAL_OK)
 8002506:	4620      	mov	r0, r4
    hdma_usart1_rx.Init.Priority = DMA_PRIORITY_VERY_HIGH;
 8002508:	f44f 5340 	mov.w	r3, #12288	@ 0x3000
 800250c:	61e3      	str	r3, [r4, #28]
    if (HAL_DMA_Init(&hdma_usart1_rx) != HAL_OK)
 800250e:	f000 fc93 	bl	8002e38 <HAL_DMA_Init>
 8002512:	b108      	cbz	r0, 8002518 <HAL_UART_MspInit+0x84>
    {
      Error_Handler();
 8002514:	f7ff fa5c 	bl	80019d0 <Error_Handler>
    }

    __HAL_LINKDMA(huart,hdmarx,hdma_usart1_rx);

    /* USART1 interrupt Init */
    HAL_NVIC_SetPriority(USART1_IRQn, 0, 0);
 8002518:	2200      	movs	r2, #0
 800251a:	2025      	movs	r0, #37	@ 0x25
    __HAL_LINKDMA(huart,hdmarx,hdma_usart1_rx);
 800251c:	676c      	str	r4, [r5, #116]	@ 0x74
    HAL_NVIC_SetPriority(USART1_IRQn, 0, 0);
 800251e:	4611      	mov	r1, r2
    __HAL_LINKDMA(huart,hdmarx,hdma_usart1_rx);
 8002520:	6265      	str	r5, [r4, #36]	@ 0x24
    HAL_NVIC_SetPriority(USART1_IRQn, 0, 0);
 8002522:	f000 fb69 	bl	8002bf8 <HAL_NVIC_SetPriority>
    HAL_NVIC_EnableIRQ(USART1_IRQn);
 8002526:	2025      	movs	r0, #37	@ 0x25

    __HAL_LINKDMA(huart,hdmarx,hdma_usart2_rx);

    /* USART2 interrupt Init */
    HAL_NVIC_SetPriority(USART2_IRQn, 0, 0);
    HAL_NVIC_EnableIRQ(USART2_IRQn);
 8002528:	f000 fb98 	bl	8002c5c <HAL_NVIC_EnableIRQ>
    /* USER CODE BEGIN USART2_MspInit 1 */

    /* USER CODE END USART2_MspInit 1 */
  }

}
 800252c:	b00b      	add	sp, #44	@ 0x2c
 800252e:	bdf0      	pop	{r4, r5, r6, r7, pc}
  else if(huart->Instance==USART2)
 8002530:	4a37      	ldr	r2, [pc, #220]	@ (8002610 <HAL_UART_MspInit+0x17c>)
 8002532:	4293      	cmp	r3, r2
 8002534:	d1fa      	bne.n	800252c <HAL_UART_MspInit+0x98>
    __HAL_RCC_USART2_CLK_ENABLE();
 8002536:	4b33      	ldr	r3, [pc, #204]	@ (8002604 <HAL_UART_MspInit+0x170>)
 8002538:	69da      	ldr	r2, [r3, #28]
 800253a:	f442 3200 	orr.w	r2, r2, #131072	@ 0x20000
 800253e:	61da      	str	r2, [r3, #28]
 8002540:	69da      	ldr	r2, [r3, #28]
 8002542:	f402 3200 	and.w	r2, r2, #131072	@ 0x20000
 8002546:	9202      	str	r2, [sp, #8]
 8002548:	9a02      	ldr	r2, [sp, #8]
    __HAL_RCC_GPIOA_CLK_ENABLE();
 800254a:	695a      	ldr	r2, [r3, #20]
 800254c:	f442 3200 	orr.w	r2, r2, #131072	@ 0x20000
 8002550:	615a      	str	r2, [r3, #20]
 8002552:	695a      	ldr	r2, [r3, #20]
 8002554:	f402 3200 	and.w	r2, r2, #131072	@ 0x20000
 8002558:	9203      	str	r2, [sp, #12]
 800255a:	9a03      	ldr	r2, [sp, #12]
    __HAL_RCC_GPIOB_CLK_ENABLE();
 800255c:	695a      	ldr	r2, [r3, #20]
 800255e:	f442 2280 	orr.w	r2, r2, #262144	@ 0x40000
 8002562:	615a      	str	r2, [r3, #20]
 8002564:	695b      	ldr	r3, [r3, #20]
 8002566:	f403 2380 	and.w	r3, r3, #262144	@ 0x40000
 800256a:	9304      	str	r3, [sp, #16]
    GPIO_InitStruct.Mode = GPIO_MODE_AF_PP;
 800256c:	2602      	movs	r6, #2
    GPIO_InitStruct.Alternate = GPIO_AF7_USART2;
 800256e:	2407      	movs	r4, #7
    __HAL_RCC_GPIOB_CLK_ENABLE();
 8002570:	9b04      	ldr	r3, [sp, #16]
    GPIO_InitStruct.Alternate = GPIO_AF7_USART2;
 8002572:	2703      	movs	r7, #3
    GPIO_InitStruct.Mode = GPIO_MODE_AF_PP;
 8002574:	f44f 4300 	mov.w	r3, #32768	@ 0x8000
    HAL_GPIO_Init(GPIOA, &GPIO_InitStruct);
 8002578:	a905      	add	r1, sp, #20
 800257a:	f04f 4090 	mov.w	r0, #1207959552	@ 0x48000000
    GPIO_InitStruct.Mode = GPIO_MODE_AF_PP;
 800257e:	e9cd 3605 	strd	r3, r6, [sp, #20]
    GPIO_InitStruct.Alternate = GPIO_AF7_USART2;
 8002582:	e9cd 7408 	strd	r7, r4, [sp, #32]
    HAL_GPIO_Init(GPIOA, &GPIO_InitStruct);
 8002586:	f000 fd45 	bl	8003014 <HAL_GPIO_Init>
    GPIO_InitStruct.Pin = GPIO_PIN_3;
 800258a:	2308      	movs	r3, #8
    GPIO_InitStruct.Mode = GPIO_MODE_AF_PP;
 800258c:	e9cd 3605 	strd	r3, r6, [sp, #20]
    HAL_GPIO_Init(GPIOB, &GPIO_InitStruct);
 8002590:	4820      	ldr	r0, [pc, #128]	@ (8002614 <HAL_UART_MspInit+0x180>)
    GPIO_InitStruct.Alternate = GPIO_AF7_USART2;
 8002592:	9409      	str	r4, [sp, #36]	@ 0x24
    GPIO_InitStruct.Pull = GPIO_NOPULL;
 8002594:	2600      	movs	r6, #0
    HAL_GPIO_Init(GPIOB, &GPIO_InitStruct);
 8002596:	a905      	add	r1, sp, #20
    hdma_usart2_tx.Instance = DMA1_Channel7;
 8002598:	4c1f      	ldr	r4, [pc, #124]	@ (8002618 <HAL_UART_MspInit+0x184>)
    GPIO_InitStruct.Speed = GPIO_SPEED_FREQ_HIGH;
 800259a:	e9cd 6707 	strd	r6, r7, [sp, #28]
    HAL_GPIO_Init(GPIOB, &GPIO_InitStruct);
 800259e:	f000 fd39 	bl	8003014 <HAL_GPIO_Init>
    hdma_usart2_tx.Init.Direction = DMA_MEMORY_TO_PERIPH;
 80025a2:	491e      	ldr	r1, [pc, #120]	@ (800261c <HAL_UART_MspInit+0x188>)
    hdma_usart2_tx.Init.PeriphInc = DMA_PINC_DISABLE;
 80025a4:	60a6      	str	r6, [r4, #8]
    hdma_usart2_tx.Init.Direction = DMA_MEMORY_TO_PERIPH;
 80025a6:	2310      	movs	r3, #16
 80025a8:	e9c4 1300 	strd	r1, r3, [r4]
    if (HAL_DMA_Init(&hdma_usart2_tx) != HAL_OK)
 80025ac:	4620      	mov	r0, r4
    hdma_usart2_tx.Init.MemInc = DMA_MINC_ENABLE;
 80025ae:	2380      	movs	r3, #128	@ 0x80
    hdma_usart2_tx.Init.PeriphDataAlignment = DMA_PDATAALIGN_BYTE;
 80025b0:	e9c4 3603 	strd	r3, r6, [r4, #12]
    hdma_usart2_tx.Init.Mode = DMA_NORMAL;
 80025b4:	e9c4 6605 	strd	r6, r6, [r4, #20]
    hdma_usart2_tx.Init.Priority = DMA_PRIORITY_LOW;
 80025b8:	61e6      	str	r6, [r4, #28]
    if (HAL_DMA_Init(&hdma_usart2_tx) != HAL_OK)
 80025ba:	f000 fc3d 	bl	8002e38 <HAL_DMA_Init>
 80025be:	b108      	cbz	r0, 80025c4 <HAL_UART_MspInit+0x130>
      Error_Handler();
 80025c0:	f7ff fa06 	bl	80019d0 <Error_Handler>
    hdma_usart2_rx.Init.Direction = DMA_PERIPH_TO_MEMORY;
 80025c4:	4a16      	ldr	r2, [pc, #88]	@ (8002620 <HAL_UART_MspInit+0x18c>)
    __HAL_LINKDMA(huart,hdmatx,hdma_usart2_tx);
 80025c6:	672c      	str	r4, [r5, #112]	@ 0x70
 80025c8:	6265      	str	r5, [r4, #36]	@ 0x24
    hdma_usart2_rx.Instance = DMA1_Channel6;
 80025ca:	4c16      	ldr	r4, [pc, #88]	@ (8002624 <HAL_UART_MspInit+0x190>)
    hdma_usart2_rx.Init.Direction = DMA_PERIPH_TO_MEMORY;
 80025cc:	2300      	movs	r3, #0
 80025ce:	e9c4 2300 	strd	r2, r3, [r4]
    if (HAL_DMA_Init(&hdma_usart2_rx) != HAL_OK)
 80025d2:	4620      	mov	r0, r4
    hdma_usart2_rx.Init.MemInc = DMA_MINC_ENABLE;
 80025d4:	2280      	movs	r2, #128	@ 0x80
    hdma_usart2_rx.Init.PeriphDataAlignment = DMA_PDATAALIGN_BYTE;
 80025d6:	e9c4 2303 	strd	r2, r3, [r4, #12]
    hdma_usart2_rx.Init.Mode = DMA_NORMAL;
 80025da:	e9c4 3305 	strd	r3, r3, [r4, #20]
    hdma_usart2_rx.Init.PeriphInc = DMA_PINC_DISABLE;
 80025de:	60a3      	str	r3, [r4, #8]
    hdma_usart2_rx.Init.Priority = DMA_PRIORITY_LOW;
 80025e0:	61e3      	str	r3, [r4, #28]
    if (HAL_DMA_Init(&hdma_usart2_rx) != HAL_OK)
 80025e2:	f000 fc29 	bl	8002e38 <HAL_DMA_Init>
 80025e6:	b108      	cbz	r0, 80025ec <HAL_UART_MspInit+0x158>
      Error_Handler();
 80025e8:	f7ff f9f2 	bl	80019d0 <Error_Handler>
    HAL_NVIC_SetPriority(USART2_IRQn, 0, 0);
 80025ec:	2200      	movs	r2, #0
 80025ee:	2026      	movs	r0, #38	@ 0x26
    __HAL_LINKDMA(huart,hdmarx,hdma_usart2_rx);
 80025f0:	676c      	str	r4, [r5, #116]	@ 0x74
    HAL_NVIC_SetPriority(USART2_IRQn, 0, 0);
 80025f2:	4611      	mov	r1, r2
    __HAL_LINKDMA(huart,hdmarx,hdma_usart2_rx);
 80025f4:	6265      	str	r5, [r4, #36]	@ 0x24
    HAL_NVIC_SetPriority(USART2_IRQn, 0, 0);
 80025f6:	f000 faff 	bl	8002bf8 <HAL_NVIC_SetPriority>
    HAL_NVIC_EnableIRQ(USART2_IRQn);
 80025fa:	2026      	movs	r0, #38	@ 0x26
 80025fc:	e794      	b.n	8002528 <HAL_UART_MspInit+0x94>
 80025fe:	bf00      	nop
 8002600:	40013800 	.word	0x40013800
 8002604:	40021000 	.word	0x40021000
 8002608:	40020058 	.word	0x40020058
 800260c:	200005dc 	.word	0x200005dc
 8002610:	40004400 	.word	0x40004400
 8002614:	48000400 	.word	0x48000400
 8002618:	20000598 	.word	0x20000598
 800261c:	40020080 	.word	0x40020080
 8002620:	4002006c 	.word	0x4002006c
 8002624:	20000554 	.word	0x20000554

08002628 <NMI_Handler>:
{
  /* USER CODE BEGIN NonMaskableInt_IRQn 0 */

  /* USER CODE END NonMaskableInt_IRQn 0 */
  /* USER CODE BEGIN NonMaskableInt_IRQn 1 */
   while (1)
 8002628:	e7fe      	b.n	8002628 <NMI_Handler>

0800262a <HardFault_Handler>:
void HardFault_Handler(void)
{
  /* USER CODE BEGIN HardFault_IRQn 0 */

  /* USER CODE END HardFault_IRQn 0 */
  while (1)
 800262a:	e7fe      	b.n	800262a <HardFault_Handler>

0800262c <MemManage_Handler>:
void MemManage_Handler(void)
{
  /* USER CODE BEGIN MemoryManagement_IRQn 0 */

  /* USER CODE END MemoryManagement_IRQn 0 */
  while (1)
 800262c:	e7fe      	b.n	800262c <MemManage_Handler>

0800262e <BusFault_Handler>:
void BusFault_Handler(void)
{
  /* USER CODE BEGIN BusFault_IRQn 0 */

  /* USER CODE END BusFault_IRQn 0 */
  while (1)
 800262e:	e7fe      	b.n	800262e <BusFault_Handler>

08002630 <UsageFault_Handler>:
void UsageFault_Handler(void)
{
  /* USER CODE BEGIN UsageFault_IRQn 0 */

  /* USER CODE END UsageFault_IRQn 0 */
  while (1)
 8002630:	e7fe      	b.n	8002630 <UsageFault_Handler>

08002632 <SVC_Handler>:

  /* USER CODE END SVCall_IRQn 0 */
  /* USER CODE BEGIN SVCall_IRQn 1 */

  /* USER CODE END SVCall_IRQn 1 */
}
 8002632:	4770      	bx	lr

08002634 <DebugMon_Handler>:

/**
  * @brief This function handles Debug monitor.
  */
void DebugMon_Handler(void)
 8002634:	4770      	bx	lr

08002636 <PendSV_Handler>:
}

/**
  * @brief This function handles Pendable request for system service.
  */
void PendSV_Handler(void)
 8002636:	4770      	bx	lr

08002638 <SysTick_Handler>:
void SysTick_Handler(void)
{
  /* USER CODE BEGIN SysTick_IRQn 0 */

  /* USER CODE END SysTick_IRQn 0 */
  HAL_IncTick();
 8002638:	f000 baa6 	b.w	8002b88 <HAL_IncTick>

0800263c <DMA1_Channel2_IRQHandler>:
void DMA1_Channel2_IRQHandler(void)
{
  /* USER CODE BEGIN DMA1_Channel2_IRQn 0 */

  /* USER CODE END DMA1_Channel2_IRQn 0 */
  HAL_DMA_IRQHandler(&hdma_i2c1_tx);
 800263c:	4801      	ldr	r0, [pc, #4]	@ (8002644 <DMA1_Channel2_IRQHandler+0x8>)
 800263e:	f000 bca0 	b.w	8002f82 <HAL_DMA_IRQHandler>
 8002642:	bf00      	nop
 8002644:	20000730 	.word	0x20000730

08002648 <DMA1_Channel3_IRQHandler>:
void DMA1_Channel3_IRQHandler(void)
{
  /* USER CODE BEGIN DMA1_Channel3_IRQn 0 */

  /* USER CODE END DMA1_Channel3_IRQn 0 */
  HAL_DMA_IRQHandler(&hdma_i2c1_rx);
 8002648:	4801      	ldr	r0, [pc, #4]	@ (8002650 <DMA1_Channel3_IRQHandler+0x8>)
 800264a:	f000 bc9a 	b.w	8002f82 <HAL_DMA_IRQHandler>
 800264e:	bf00      	nop
 8002650:	20000774 	.word	0x20000774

08002654 <DMA1_Channel5_IRQHandler>:
void DMA1_Channel5_IRQHandler(void)
{
  /* USER CODE BEGIN DMA1_Channel5_IRQn 0 */

  /* USER CODE END DMA1_Channel5_IRQn 0 */
  HAL_DMA_IRQHandler(&hdma_usart1_rx);
 8002654:	4801      	ldr	r0, [pc, #4]	@ (800265c <DMA1_Channel5_IRQHandler+0x8>)
 8002656:	f000 bc94 	b.w	8002f82 <HAL_DMA_IRQHandler>
 800265a:	bf00      	nop
 800265c:	200005dc 	.word	0x200005dc

08002660 <DMA1_Channel6_IRQHandler>:
void DMA1_Channel6_IRQHandler(void)
{
  /* USER CODE BEGIN DMA1_Channel6_IRQn 0 */

  /* USER CODE END DMA1_Channel6_IRQn 0 */
  HAL_DMA_IRQHandler(&hdma_usart2_rx);
 8002660:	4801      	ldr	r0, [pc, #4]	@ (8002668 <DMA1_Channel6_IRQHandler+0x8>)
 8002662:	f000 bc8e 	b.w	8002f82 <HAL_DMA_IRQHandler>
 8002666:	bf00      	nop
 8002668:	20000554 	.word	0x20000554

0800266c <DMA1_Channel7_IRQHandler>:
void DMA1_Channel7_IRQHandler(void)
{
  /* USER CODE BEGIN DMA1_Channel7_IRQn 0 */

  /* USER CODE END DMA1_Channel7_IRQn 0 */
  HAL_DMA_IRQHandler(&hdma_usart2_tx);
 800266c:	4801      	ldr	r0, [pc, #4]	@ (8002674 <DMA1_Channel7_IRQHandler+0x8>)
 800266e:	f000 bc88 	b.w	8002f82 <HAL_DMA_IRQHandler>
 8002672:	bf00      	nop
 8002674:	20000598 	.word	0x20000598

08002678 <I2C1_EV_IRQHandler>:
void I2C1_EV_IRQHandler(void)
{
  /* USER CODE BEGIN I2C1_EV_IRQn 0 */

  /* USER CODE END I2C1_EV_IRQn 0 */
  HAL_I2C_EV_IRQHandler(&hi2c1);
 8002678:	4801      	ldr	r0, [pc, #4]	@ (8002680 <I2C1_EV_IRQHandler+0x8>)
 800267a:	f001 bb5b 	b.w	8003d34 <HAL_I2C_EV_IRQHandler>
 800267e:	bf00      	nop
 8002680:	200007b8 	.word	0x200007b8

08002684 <I2C1_ER_IRQHandler>:
void I2C1_ER_IRQHandler(void)
{
  /* USER CODE BEGIN I2C1_ER_IRQn 0 */

  /* USER CODE END I2C1_ER_IRQn 0 */
  HAL_I2C_ER_IRQHandler(&hi2c1);
 8002684:	4801      	ldr	r0, [pc, #4]	@ (800268c <I2C1_ER_IRQHandler+0x8>)
 8002686:	f001 be9e 	b.w	80043c6 <HAL_I2C_ER_IRQHandler>
 800268a:	bf00      	nop
 800268c:	200007b8 	.word	0x200007b8

08002690 <USART1_IRQHandler>:
void USART1_IRQHandler(void)
{
  /* USER CODE BEGIN USART1_IRQn 0 */

  /* USER CODE END USART1_IRQn 0 */
  HAL_UART_IRQHandler(&huart1);
 8002690:	4801      	ldr	r0, [pc, #4]	@ (8002698 <USART1_IRQHandler+0x8>)
 8002692:	f002 bdc5 	b.w	8005220 <HAL_UART_IRQHandler>
 8002696:	bf00      	nop
 8002698:	200006a8 	.word	0x200006a8

0800269c <USART2_IRQHandler>:
void USART2_IRQHandler(void)
{
  /* USER CODE BEGIN USART2_IRQn 0 */

  /* USER CODE END USART2_IRQn 0 */
  HAL_UART_IRQHandler(&huart2);
 800269c:	4801      	ldr	r0, [pc, #4]	@ (80026a4 <USART2_IRQHandler+0x8>)
 800269e:	f002 bdbf 	b.w	8005220 <HAL_UART_IRQHandler>
 80026a2:	bf00      	nop
 80026a4:	20000620 	.word	0x20000620

080026a8 <_getpid>:
}

int _getpid(void)
{
  return 1;
}
 80026a8:	2001      	movs	r0, #1
 80026aa:	4770      	bx	lr

080026ac <_kill>:

int _kill(int pid, int sig)
{
 80026ac:	b508      	push	{r3, lr}
  (void)pid;
  (void)sig;
  errno = EINVAL;
 80026ae:	f007 fced 	bl	800a08c <__errno>
 80026b2:	2316      	movs	r3, #22
 80026b4:	6003      	str	r3, [r0, #0]
  return -1;
}
 80026b6:	f04f 30ff 	mov.w	r0, #4294967295
 80026ba:	bd08      	pop	{r3, pc}

080026bc <_exit>:

void _exit (int status)
{
 80026bc:	b508      	push	{r3, lr}
  errno = EINVAL;
 80026be:	f007 fce5 	bl	800a08c <__errno>
 80026c2:	2316      	movs	r3, #22
 80026c4:	6003      	str	r3, [r0, #0]
  _kill(status, -1);
  while (1) {}    /* Make sure we hang here */
 80026c6:	e7fe      	b.n	80026c6 <_exit+0xa>

080026c8 <_read>:
}

__attribute__((weak)) int _read(int file, char *ptr, int len)
{
 80026c8:	b570      	push	{r4, r5, r6, lr}
 80026ca:	460d      	mov	r5, r1
 80026cc:	4614      	mov	r4, r2
  (void)file;
  int DataIdx;

  for (DataIdx = 0; DataIdx < len; DataIdx++)
 80026ce:	460e      	mov	r6, r1
 80026d0:	1b73      	subs	r3, r6, r5
 80026d2:	429c      	cmp	r4, r3
 80026d4:	dc01      	bgt.n	80026da <_read+0x12>
  {
    *ptr++ = __io_getchar();
  }

  return len;
}
 80026d6:	4620      	mov	r0, r4
 80026d8:	bd70      	pop	{r4, r5, r6, pc}
    *ptr++ = __io_getchar();
 80026da:	f3af 8000 	nop.w
 80026de:	f806 0b01 	strb.w	r0, [r6], #1
  for (DataIdx = 0; DataIdx < len; DataIdx++)
 80026e2:	e7f5      	b.n	80026d0 <_read+0x8>

080026e4 <_write>:

__attribute__((weak)) int _write(int file, char *ptr, int len)
{
 80026e4:	b570      	push	{r4, r5, r6, lr}
 80026e6:	460d      	mov	r5, r1
 80026e8:	4614      	mov	r4, r2
  (void)file;
  int DataIdx;

  for (DataIdx = 0; DataIdx < len; DataIdx++)
 80026ea:	460e      	mov	r6, r1
 80026ec:	1b73      	subs	r3, r6, r5
 80026ee:	429c      	cmp	r4, r3
 80026f0:	dc01      	bgt.n	80026f6 <_write+0x12>
  {
    __io_putchar(*ptr++);
  }
  return len;
}
 80026f2:	4620      	mov	r0, r4
 80026f4:	bd70      	pop	{r4, r5, r6, pc}
    __io_putchar(*ptr++);
 80026f6:	f816 0b01 	ldrb.w	r0, [r6], #1
 80026fa:	f3af 8000 	nop.w
  for (DataIdx = 0; DataIdx < len; DataIdx++)
 80026fe:	e7f5      	b.n	80026ec <_write+0x8>

08002700 <_close>:

int _close(int file)
{
  (void)file;
  return -1;
}
 8002700:	f04f 30ff 	mov.w	r0, #4294967295
 8002704:	4770      	bx	lr

08002706 <_fstat>:


int _fstat(int file, struct stat *st)
{
  (void)file;
  st->st_mode = S_IFCHR;
 8002706:	f44f 5300 	mov.w	r3, #8192	@ 0x2000
 800270a:	604b      	str	r3, [r1, #4]
  return 0;
}
 800270c:	2000      	movs	r0, #0
 800270e:	4770      	bx	lr

08002710 <_isatty>:

int _isatty(int file)
{
  (void)file;
  return 1;
}
 8002710:	2001      	movs	r0, #1
 8002712:	4770      	bx	lr

08002714 <_lseek>:
{
  (void)file;
  (void)ptr;
  (void)dir;
  return 0;
}
 8002714:	2000      	movs	r0, #0
 8002716:	4770      	bx	lr

08002718 <_sbrk>:
  const uint32_t stack_limit = (uint32_t)&_estack - (uint32_t)&_Min_Stack_Size;
  const uint8_t *max_heap = (uint8_t *)stack_limit;
  uint8_t *prev_heap_end;

  /* Initialize heap end at first call */
  if (NULL == __sbrk_heap_end)
 8002718:	4a0b      	ldr	r2, [pc, #44]	@ (8002748 <_sbrk+0x30>)
 800271a:	6811      	ldr	r1, [r2, #0]
{
 800271c:	b510      	push	{r4, lr}
 800271e:	4603      	mov	r3, r0
  if (NULL == __sbrk_heap_end)
 8002720:	b909      	cbnz	r1, 8002726 <_sbrk+0xe>
  {
    __sbrk_heap_end = &_end;
 8002722:	490a      	ldr	r1, [pc, #40]	@ (800274c <_sbrk+0x34>)
 8002724:	6011      	str	r1, [r2, #0]
  }

  /* Protect heap from growing into the reserved MSP stack */
  if (__sbrk_heap_end + incr > max_heap)
 8002726:	6810      	ldr	r0, [r2, #0]
 8002728:	4909      	ldr	r1, [pc, #36]	@ (8002750 <_sbrk+0x38>)
 800272a:	4c0a      	ldr	r4, [pc, #40]	@ (8002754 <_sbrk+0x3c>)
 800272c:	4403      	add	r3, r0
 800272e:	1b09      	subs	r1, r1, r4
 8002730:	428b      	cmp	r3, r1
 8002732:	d906      	bls.n	8002742 <_sbrk+0x2a>
  {
    errno = ENOMEM;
 8002734:	f007 fcaa 	bl	800a08c <__errno>
 8002738:	230c      	movs	r3, #12
 800273a:	6003      	str	r3, [r0, #0]
    return (void *)-1;
 800273c:	f04f 30ff 	mov.w	r0, #4294967295

  prev_heap_end = __sbrk_heap_end;
  __sbrk_heap_end += incr;

  return (void *)prev_heap_end;
}
 8002740:	bd10      	pop	{r4, pc}
  __sbrk_heap_end += incr;
 8002742:	6013      	str	r3, [r2, #0]
  return (void *)prev_heap_end;
 8002744:	e7fc      	b.n	8002740 <_sbrk+0x28>
 8002746:	bf00      	nop
 8002748:	20001640 	.word	0x20001640
 800274c:	20001798 	.word	0x20001798
 8002750:	20003000 	.word	0x20003000
 8002754:	00000400 	.word	0x00000400

08002758 <SystemInit>:
  */
void SystemInit(void)
{
/* FPU settings --------------------------------------------------------------*/
#if (__FPU_PRESENT == 1) && (__FPU_USED == 1)
  SCB->CPACR |= ((3UL << 10*2)|(3UL << 11*2));  /* set CP10 and CP11 Full Access */
 8002758:	4a03      	ldr	r2, [pc, #12]	@ (8002768 <SystemInit+0x10>)
 800275a:	f8d2 3088 	ldr.w	r3, [r2, #136]	@ 0x88
 800275e:	f443 0370 	orr.w	r3, r3, #15728640	@ 0xf00000
 8002762:	f8c2 3088 	str.w	r3, [r2, #136]	@ 0x88

  /* Configure the Vector Table location -------------------------------------*/
#if defined(USER_VECT_TAB_ADDRESS)
  SCB->VTOR = VECT_TAB_BASE_ADDRESS | VECT_TAB_OFFSET; /* Vector Table Relocation in Internal SRAM */
#endif /* USER_VECT_TAB_ADDRESS */
}
 8002766:	4770      	bx	lr
 8002768:	e000ed00 	.word	0xe000ed00
 800276c:	00000000 	.word	0x00000000

08002770 <UBX_ParseNavSolFrame>:
    *lat *= 180.0 / M_PI;
    *lon *= 180.0 / M_PI;
}

/* Parser */
bool UBX_ParseNavSolFrame(uint8_t *buffer, uint16_t bufferLen, UBX_NavSol *solRaw, UBX_NavSolData *solData) {
 8002770:	e92d 47f0 	stmdb	sp!, {r4, r5, r6, r7, r8, r9, sl, lr}
 8002774:	ed2d 8b02 	vpush	{d8}
    if (bufferLen < 8 + NAV_SOL_PAYLOAD_LEN) {
 8002778:	293b      	cmp	r1, #59	@ 0x3b
bool UBX_ParseNavSolFrame(uint8_t *buffer, uint16_t bufferLen, UBX_NavSol *solRaw, UBX_NavSolData *solData) {
 800277a:	b082      	sub	sp, #8
 800277c:	4690      	mov	r8, r2
 800277e:	469a      	mov	sl, r3
    if (bufferLen < 8 + NAV_SOL_PAYLOAD_LEN) {
 8002780:	f240 817d 	bls.w	8002a7e <UBX_ParseNavSolFrame+0x30e>
        return false;
    }

    if (buffer[0] != UBX_SYNC_CHAR1 || buffer[1] != UBX_SYNC_CHAR2) {
 8002784:	7803      	ldrb	r3, [r0, #0]
 8002786:	2bb5      	cmp	r3, #181	@ 0xb5
 8002788:	f040 8179 	bne.w	8002a7e <UBX_ParseNavSolFrame+0x30e>
 800278c:	7843      	ldrb	r3, [r0, #1]
 800278e:	2b62      	cmp	r3, #98	@ 0x62
 8002790:	f040 8175 	bne.w	8002a7e <UBX_ParseNavSolFrame+0x30e>
        return false;
    }

    if (buffer[2] != UBX_CLASS_NAV || buffer[3] != UBX_ID_NAV_SOL) {
 8002794:	7883      	ldrb	r3, [r0, #2]
 8002796:	2b01      	cmp	r3, #1
 8002798:	f040 8171 	bne.w	8002a7e <UBX_ParseNavSolFrame+0x30e>
 800279c:	78c3      	ldrb	r3, [r0, #3]
 800279e:	2b06      	cmp	r3, #6
 80027a0:	f040 816d 	bne.w	8002a7e <UBX_ParseNavSolFrame+0x30e>
        return false;
    }

    uint16_t len = buffer[4] | (buffer[5] << 8);
    if (len != NAV_SOL_PAYLOAD_LEN) {
 80027a4:	8883      	ldrh	r3, [r0, #4]
 80027a6:	2b34      	cmp	r3, #52	@ 0x34
 80027a8:	f040 8169 	bne.w	8002a7e <UBX_ParseNavSolFrame+0x30e>
    *ck_b = 0;
 80027ac:	2300      	movs	r3, #0
 80027ae:	1c44      	adds	r4, r0, #1
 80027b0:	f100 0539 	add.w	r5, r0, #57	@ 0x39
    *ck_a = 0;
 80027b4:	4619      	mov	r1, r3
        *ck_a += data[i];
 80027b6:	f814 2f01 	ldrb.w	r2, [r4, #1]!
 80027ba:	440a      	add	r2, r1
        *ck_b += *ck_a;
 80027bc:	fa53 f382 	uxtab	r3, r3, r2
    for (uint16_t i = 0; i < length; i++) {
 80027c0:	42a5      	cmp	r5, r4
        *ck_a += data[i];
 80027c2:	b2d1      	uxtb	r1, r2
        *ck_b += *ck_a;
 80027c4:	b2db      	uxtb	r3, r3
    for (uint16_t i = 0; i < length; i++) {
 80027c6:	d1f6      	bne.n	80027b6 <UBX_ParseNavSolFrame+0x46>
        return false;
    }

    uint8_t ck_a, ck_b;
    UBX_CalculateChecksum(&buffer[2], 4 + NAV_SOL_PAYLOAD_LEN, &ck_a, &ck_b);
    if (ck_a != buffer[6 + NAV_SOL_PAYLOAD_LEN] || ck_b != buffer[7 + NAV_SOL_PAYLOAD_LEN]) {
 80027c8:	f890 203a 	ldrb.w	r2, [r0, #58]	@ 0x3a
 80027cc:	428a      	cmp	r2, r1
 80027ce:	f040 8156 	bne.w	8002a7e <UBX_ParseNavSolFrame+0x30e>
 80027d2:	f890 203b 	ldrb.w	r2, [r0, #59]	@ 0x3b
 80027d6:	429a      	cmp	r2, r3
 80027d8:	f040 8151 	bne.w	8002a7e <UBX_ParseNavSolFrame+0x30e>
        return false;
    }

    /* Copy into raw struct */
    memcpy(solRaw, &buffer[6], sizeof(UBX_NavSol));
 80027dc:	1d83      	adds	r3, r0, #6
 80027de:	4642      	mov	r2, r8
 80027e0:	303a      	adds	r0, #58	@ 0x3a
 80027e2:	f853 1b04 	ldr.w	r1, [r3], #4
 80027e6:	f842 1b04 	str.w	r1, [r2], #4
 80027ea:	4283      	cmp	r3, r0
 80027ec:	d1f9      	bne.n	80027e2 <UBX_ParseNavSolFrame+0x72>

    /* Fill decoded struct */
    solData->iTOW   = solRaw->iTOW;
 80027ee:	f8d8 3000 	ldr.w	r3, [r8]
 80027f2:	f8ca 3018 	str.w	r3, [sl, #24]
    solData->fTOW   = solRaw->fTOW;
 80027f6:	f8d8 3004 	ldr.w	r3, [r8, #4]
 80027fa:	f8ca 301c 	str.w	r3, [sl, #28]
    solData->week   = solRaw->week;
 80027fe:	f898 2009 	ldrb.w	r2, [r8, #9]
 8002802:	f898 3008 	ldrb.w	r3, [r8, #8]
 8002806:	ea43 2302 	orr.w	r3, r3, r2, lsl #8
 800280a:	f8aa 3020 	strh.w	r3, [sl, #32]
    solData->gpsFix = solRaw->gpsFix;
 800280e:	f898 300a 	ldrb.w	r3, [r8, #10]
 8002812:	f88a 3022 	strb.w	r3, [sl, #34]	@ 0x22
    solData->flags  = solRaw->flags;
 8002816:	f898 300b 	ldrb.w	r3, [r8, #11]
 800281a:	f88a 3023 	strb.w	r3, [sl, #35]	@ 0x23
    solData->numSV  = solRaw->numSV;
 800281e:	f898 302f 	ldrb.w	r3, [r8, #47]	@ 0x2f
 8002822:	f88a 3070 	strb.w	r3, [sl, #112]	@ 0x70

    solData->ecefX_m = solRaw->ecefX / 100.0;
 8002826:	f8d8 000c 	ldr.w	r0, [r8, #12]
 800282a:	f7fd fe7b 	bl	8000524 <__aeabi_i2d>
 800282e:	4ba4      	ldr	r3, [pc, #656]	@ (8002ac0 <UBX_ParseNavSolFrame+0x350>)
 8002830:	2200      	movs	r2, #0
 8002832:	f7fe f80b 	bl	800084c <__aeabi_ddiv>
 8002836:	e9cd 0100 	strd	r0, r1, [sp]
 800283a:	e9ca 010a 	strd	r0, r1, [sl, #40]	@ 0x28
    solData->ecefY_m = solRaw->ecefY / 100.0;
 800283e:	f8d8 0010 	ldr.w	r0, [r8, #16]
 8002842:	f7fd fe6f 	bl	8000524 <__aeabi_i2d>
 8002846:	4b9e      	ldr	r3, [pc, #632]	@ (8002ac0 <UBX_ParseNavSolFrame+0x350>)
 8002848:	2200      	movs	r2, #0
 800284a:	f7fd ffff 	bl	800084c <__aeabi_ddiv>
 800284e:	4604      	mov	r4, r0
 8002850:	460d      	mov	r5, r1
 8002852:	e9ca 450c 	strd	r4, r5, [sl, #48]	@ 0x30
    solData->ecefZ_m = solRaw->ecefZ / 100.0;
 8002856:	f8d8 0014 	ldr.w	r0, [r8, #20]
 800285a:	f7fd fe63 	bl	8000524 <__aeabi_i2d>
 800285e:	4b98      	ldr	r3, [pc, #608]	@ (8002ac0 <UBX_ParseNavSolFrame+0x350>)
 8002860:	2200      	movs	r2, #0
 8002862:	f7fd fff3 	bl	800084c <__aeabi_ddiv>
 8002866:	4606      	mov	r6, r0
 8002868:	460f      	mov	r7, r1
 800286a:	e9ca 670e 	strd	r6, r7, [sl, #56]	@ 0x38
    solData->pAcc_m  = solRaw->pAcc / 100.0;
 800286e:	f8d8 0018 	ldr.w	r0, [r8, #24]
 8002872:	f7fd fe47 	bl	8000504 <__aeabi_ui2d>
 8002876:	4b92      	ldr	r3, [pc, #584]	@ (8002ac0 <UBX_ParseNavSolFrame+0x350>)
 8002878:	2200      	movs	r2, #0
 800287a:	f7fd ffe7 	bl	800084c <__aeabi_ddiv>
 800287e:	e9ca 0110 	strd	r0, r1, [sl, #64]	@ 0x40

    solData->ecefVX_ms = solRaw->ecefVX / 100.0;
 8002882:	f8d8 001c 	ldr.w	r0, [r8, #28]
 8002886:	f7fd fe4d 	bl	8000524 <__aeabi_i2d>
 800288a:	4b8d      	ldr	r3, [pc, #564]	@ (8002ac0 <UBX_ParseNavSolFrame+0x350>)
 800288c:	2200      	movs	r2, #0
 800288e:	f7fd ffdd 	bl	800084c <__aeabi_ddiv>
 8002892:	e9ca 0112 	strd	r0, r1, [sl, #72]	@ 0x48
    solData->ecefVY_ms = solRaw->ecefVY / 100.0;
 8002896:	f8d8 0020 	ldr.w	r0, [r8, #32]
 800289a:	f7fd fe43 	bl	8000524 <__aeabi_i2d>
 800289e:	4b88      	ldr	r3, [pc, #544]	@ (8002ac0 <UBX_ParseNavSolFrame+0x350>)
 80028a0:	2200      	movs	r2, #0
 80028a2:	f7fd ffd3 	bl	800084c <__aeabi_ddiv>
 80028a6:	e9ca 0114 	strd	r0, r1, [sl, #80]	@ 0x50
    solData->ecefVZ_ms = solRaw->ecefVZ / 100.0;
 80028aa:	f8d8 0024 	ldr.w	r0, [r8, #36]	@ 0x24
 80028ae:	f7fd fe39 	bl	8000524 <__aeabi_i2d>
 80028b2:	4b83      	ldr	r3, [pc, #524]	@ (8002ac0 <UBX_ParseNavSolFrame+0x350>)
 80028b4:	2200      	movs	r2, #0
 80028b6:	f7fd ffc9 	bl	800084c <__aeabi_ddiv>
 80028ba:	e9ca 0116 	strd	r0, r1, [sl, #88]	@ 0x58
    solData->sAcc_ms   = solRaw->sAcc / 100.0;
 80028be:	f8d8 0028 	ldr.w	r0, [r8, #40]	@ 0x28
 80028c2:	f7fd fe1f 	bl	8000504 <__aeabi_ui2d>
 80028c6:	4b7e      	ldr	r3, [pc, #504]	@ (8002ac0 <UBX_ParseNavSolFrame+0x350>)
 80028c8:	2200      	movs	r2, #0
 80028ca:	f7fd ffbf 	bl	800084c <__aeabi_ddiv>
 80028ce:	e9ca 0118 	strd	r0, r1, [sl, #96]	@ 0x60

    solData->pDOP = solRaw->pDOP / 100.0;
 80028d2:	f8b8 002c 	ldrh.w	r0, [r8, #44]	@ 0x2c
 80028d6:	f7fd fe25 	bl	8000524 <__aeabi_i2d>
 80028da:	4b79      	ldr	r3, [pc, #484]	@ (8002ac0 <UBX_ParseNavSolFrame+0x350>)
 80028dc:	2200      	movs	r2, #0
 80028de:	f7fd ffb5 	bl	800084c <__aeabi_ddiv>
    double p = sqrt(X*X + Y*Y);
 80028e2:	e9dd 2300 	ldrd	r2, r3, [sp]
    solData->pDOP = solRaw->pDOP / 100.0;
 80028e6:	e9ca 011a 	strd	r0, r1, [sl, #104]	@ 0x68
    double p = sqrt(X*X + Y*Y);
 80028ea:	4610      	mov	r0, r2
 80028ec:	4619      	mov	r1, r3
 80028ee:	f7fd fe83 	bl	80005f8 <__aeabi_dmul>
 80028f2:	4622      	mov	r2, r4
 80028f4:	4680      	mov	r8, r0
 80028f6:	4689      	mov	r9, r1
 80028f8:	462b      	mov	r3, r5
 80028fa:	4620      	mov	r0, r4
 80028fc:	4629      	mov	r1, r5
 80028fe:	f7fd fe7b 	bl	80005f8 <__aeabi_dmul>
 8002902:	4602      	mov	r2, r0
 8002904:	460b      	mov	r3, r1
 8002906:	4640      	mov	r0, r8
 8002908:	4649      	mov	r1, r9
 800290a:	f7fd fcbf 	bl	800028c <__adddf3>
 800290e:	ec41 0b10 	vmov	d0, r0, r1
 8002912:	f003 f903 	bl	8005b1c <sqrt>
 8002916:	ec59 8b10 	vmov	r8, r9, d0
    double th = atan2(a * Z, b * p);
 800291a:	a35b      	add	r3, pc, #364	@ (adr r3, 8002a88 <UBX_ParseNavSolFrame+0x318>)
 800291c:	e9d3 2300 	ldrd	r2, r3, [r3]
 8002920:	4640      	mov	r0, r8
 8002922:	4649      	mov	r1, r9
 8002924:	f7fd fe68 	bl	80005f8 <__aeabi_dmul>
 8002928:	a359      	add	r3, pc, #356	@ (adr r3, 8002a90 <UBX_ParseNavSolFrame+0x320>)
 800292a:	e9d3 2300 	ldrd	r2, r3, [r3]
 800292e:	ec41 0b18 	vmov	d8, r0, r1
 8002932:	4630      	mov	r0, r6
 8002934:	4639      	mov	r1, r7
 8002936:	f7fd fe5f 	bl	80005f8 <__aeabi_dmul>
 800293a:	eeb0 1a48 	vmov.f32	s2, s16
 800293e:	eef0 1a68 	vmov.f32	s3, s17
 8002942:	ec41 0b10 	vmov	d0, r0, r1
 8002946:	f003 f877 	bl	8005a38 <atan2>
    *lon = atan2(Y, X);
 800294a:	ed9d 1b00 	vldr	d1, [sp]
    double th = atan2(a * Z, b * p);
 800294e:	eeb0 8a40 	vmov.f32	s16, s0
 8002952:	eef0 8a60 	vmov.f32	s17, s1
    *lon = atan2(Y, X);
 8002956:	ec45 4b10 	vmov	d0, r4, r5
 800295a:	f003 f86d 	bl	8005a38 <atan2>
 800295e:	ed8d 0b00 	vstr	d0, [sp]
    *lat = atan2(Z + ep*ep*b*pow(sin(th),3), p - e2*a*pow(cos(th),3));
 8002962:	eeb0 0a48 	vmov.f32	s0, s16
 8002966:	eef0 0a68 	vmov.f32	s1, s17
 800296a:	f003 f961 	bl	8005c30 <sin>
 800296e:	ed9f 1b4a 	vldr	d1, [pc, #296]	@ 8002a98 <UBX_ParseNavSolFrame+0x328>
 8002972:	f003 f863 	bl	8005a3c <pow>
 8002976:	ec55 4b10 	vmov	r4, r5, d0
 800297a:	eeb0 0a48 	vmov.f32	s0, s16
 800297e:	eef0 0a68 	vmov.f32	s1, s17
 8002982:	f003 f8f9 	bl	8005b78 <cos>
 8002986:	ed9f 1b44 	vldr	d1, [pc, #272]	@ 8002a98 <UBX_ParseNavSolFrame+0x328>
 800298a:	f003 f857 	bl	8005a3c <pow>
 800298e:	a344      	add	r3, pc, #272	@ (adr r3, 8002aa0 <UBX_ParseNavSolFrame+0x330>)
 8002990:	e9d3 2300 	ldrd	r2, r3, [r3]
 8002994:	ec51 0b10 	vmov	r0, r1, d0
 8002998:	f7fd fe2e 	bl	80005f8 <__aeabi_dmul>
 800299c:	4602      	mov	r2, r0
 800299e:	460b      	mov	r3, r1
 80029a0:	4640      	mov	r0, r8
 80029a2:	4649      	mov	r1, r9
 80029a4:	f7fd fc70 	bl	8000288 <__aeabi_dsub>
 80029a8:	a33f      	add	r3, pc, #252	@ (adr r3, 8002aa8 <UBX_ParseNavSolFrame+0x338>)
 80029aa:	e9d3 2300 	ldrd	r2, r3, [r3]
 80029ae:	ec41 0b18 	vmov	d8, r0, r1
 80029b2:	4620      	mov	r0, r4
 80029b4:	4629      	mov	r1, r5
 80029b6:	f7fd fe1f 	bl	80005f8 <__aeabi_dmul>
 80029ba:	4632      	mov	r2, r6
 80029bc:	463b      	mov	r3, r7
 80029be:	f7fd fc65 	bl	800028c <__adddf3>
 80029c2:	eeb0 1a48 	vmov.f32	s2, s16
 80029c6:	eef0 1a68 	vmov.f32	s3, s17
 80029ca:	ec41 0b10 	vmov	d0, r0, r1
 80029ce:	f003 f833 	bl	8005a38 <atan2>
 80029d2:	eeb0 8a40 	vmov.f32	s16, s0
 80029d6:	eef0 8a60 	vmov.f32	s17, s1
    double N = a / sqrt(1 - e2 * sin(*lat) * sin(*lat));
 80029da:	f003 f929 	bl	8005c30 <sin>
 80029de:	ec55 4b10 	vmov	r4, r5, d0
 80029e2:	a333      	add	r3, pc, #204	@ (adr r3, 8002ab0 <UBX_ParseNavSolFrame+0x340>)
 80029e4:	e9d3 2300 	ldrd	r2, r3, [r3]
 80029e8:	4620      	mov	r0, r4
 80029ea:	4629      	mov	r1, r5
 80029ec:	f7fd fe04 	bl	80005f8 <__aeabi_dmul>
 80029f0:	4622      	mov	r2, r4
 80029f2:	462b      	mov	r3, r5
 80029f4:	f7fd fe00 	bl	80005f8 <__aeabi_dmul>
 80029f8:	4602      	mov	r2, r0
 80029fa:	460b      	mov	r3, r1
 80029fc:	2000      	movs	r0, #0
 80029fe:	4931      	ldr	r1, [pc, #196]	@ (8002ac4 <UBX_ParseNavSolFrame+0x354>)
 8002a00:	f7fd fc42 	bl	8000288 <__aeabi_dsub>
 8002a04:	ec41 0b10 	vmov	d0, r0, r1
 8002a08:	f003 f888 	bl	8005b1c <sqrt>
 8002a0c:	ec55 4b10 	vmov	r4, r5, d0
    *h = p / cos(*lat) - N;
 8002a10:	eeb0 0a48 	vmov.f32	s0, s16
 8002a14:	eef0 0a68 	vmov.f32	s1, s17
 8002a18:	f003 f8ae 	bl	8005b78 <cos>
    *lat *= 180.0 / M_PI;
 8002a1c:	a326      	add	r3, pc, #152	@ (adr r3, 8002ab8 <UBX_ParseNavSolFrame+0x348>)
 8002a1e:	e9d3 2300 	ldrd	r2, r3, [r3]
 8002a22:	ec51 0b18 	vmov	r0, r1, d8
    *h = p / cos(*lat) - N;
 8002a26:	ec57 6b10 	vmov	r6, r7, d0
    *lat *= 180.0 / M_PI;
 8002a2a:	f7fd fde5 	bl	80005f8 <__aeabi_dmul>
    *lon *= 180.0 / M_PI;
 8002a2e:	a322      	add	r3, pc, #136	@ (adr r3, 8002ab8 <UBX_ParseNavSolFrame+0x348>)
 8002a30:	e9d3 2300 	ldrd	r2, r3, [r3]

    /* Convert ECEF → LLA */
    double lat, lon, h;
    ecefToGeodetic(solData->ecefX_m, solData->ecefY_m, solData->ecefZ_m, &lat, &lon, &h);

    solData->latitude_deg  = lat;
 8002a34:	e9ca 0100 	strd	r0, r1, [sl]
    *lon *= 180.0 / M_PI;
 8002a38:	e9dd 0100 	ldrd	r0, r1, [sp]
 8002a3c:	f7fd fddc 	bl	80005f8 <__aeabi_dmul>
    *h = p / cos(*lat) - N;
 8002a40:	4632      	mov	r2, r6
    solData->longitude_deg = lon;
 8002a42:	e9ca 0102 	strd	r0, r1, [sl, #8]
    *h = p / cos(*lat) - N;
 8002a46:	463b      	mov	r3, r7
 8002a48:	4640      	mov	r0, r8
 8002a4a:	4649      	mov	r1, r9
 8002a4c:	f7fd fefe 	bl	800084c <__aeabi_ddiv>
    double N = a / sqrt(1 - e2 * sin(*lat) * sin(*lat));
 8002a50:	4622      	mov	r2, r4
    *h = p / cos(*lat) - N;
 8002a52:	4606      	mov	r6, r0
 8002a54:	460f      	mov	r7, r1
    double N = a / sqrt(1 - e2 * sin(*lat) * sin(*lat));
 8002a56:	462b      	mov	r3, r5
 8002a58:	a10d      	add	r1, pc, #52	@ (adr r1, 8002a90 <UBX_ParseNavSolFrame+0x320>)
 8002a5a:	e9d1 0100 	ldrd	r0, r1, [r1]
 8002a5e:	f7fd fef5 	bl	800084c <__aeabi_ddiv>
 8002a62:	4602      	mov	r2, r0
 8002a64:	460b      	mov	r3, r1
    *h = p / cos(*lat) - N;
 8002a66:	4630      	mov	r0, r6
 8002a68:	4639      	mov	r1, r7
 8002a6a:	f7fd fc0d 	bl	8000288 <__aeabi_dsub>
    solData->height_m      = h;
 8002a6e:	e9ca 0104 	strd	r0, r1, [sl, #16]

    return true;
 8002a72:	2001      	movs	r0, #1
}
 8002a74:	b002      	add	sp, #8
 8002a76:	ecbd 8b02 	vpop	{d8}
 8002a7a:	e8bd 87f0 	ldmia.w	sp!, {r4, r5, r6, r7, r8, r9, sl, pc}
        return false;
 8002a7e:	2000      	movs	r0, #0
 8002a80:	e7f8      	b.n	8002a74 <UBX_ParseNavSolFrame+0x304>
 8002a82:	bf00      	nop
 8002a84:	f3af 8000 	nop.w
 8002a88:	141c97d5 	.word	0x141c97d5
 8002a8c:	41583fc4 	.word	0x41583fc4
 8002a90:	40000000 	.word	0x40000000
 8002a94:	415854a6 	.word	0x415854a6
 8002a98:	00000000 	.word	0x00000000
 8002a9c:	40080000 	.word	0x40080000
 8002aa0:	86d130b5 	.word	0x86d130b5
 8002aa4:	40e4d935 	.word	0x40e4d935
 8002aa8:	f7eac01f 	.word	0xf7eac01f
 8002aac:	40e4eb29 	.word	0x40e4eb29
 8002ab0:	f1fe8f02 	.word	0xf1fe8f02
 8002ab4:	3f7b6b90 	.word	0x3f7b6b90
 8002ab8:	1a63c1f8 	.word	0x1a63c1f8
 8002abc:	404ca5dc 	.word	0x404ca5dc
 8002ac0:	40590000 	.word	0x40590000
 8002ac4:	3ff00000 	.word	0x3ff00000

08002ac8 <Reset_Handler>:

    .section	.text.Reset_Handler
	.weak	Reset_Handler
	.type	Reset_Handler, %function
Reset_Handler:
  ldr   sp, =_estack    /* Atollic update: set stack pointer */
 8002ac8:	f8df d034 	ldr.w	sp, [pc, #52]	@ 8002b00 <LoopForever+0x2>
  
/* Call the clock system initialization function.*/
    bl  SystemInit
 8002acc:	f7ff fe44 	bl	8002758 <SystemInit>

/* Copy the data segment initializers from flash to SRAM */
  ldr r0, =_sdata
 8002ad0:	480c      	ldr	r0, [pc, #48]	@ (8002b04 <LoopForever+0x6>)
  ldr r1, =_edata
 8002ad2:	490d      	ldr	r1, [pc, #52]	@ (8002b08 <LoopForever+0xa>)
  ldr r2, =_sidata
 8002ad4:	4a0d      	ldr	r2, [pc, #52]	@ (8002b0c <LoopForever+0xe>)
  movs r3, #0
 8002ad6:	2300      	movs	r3, #0
  b LoopCopyDataInit
 8002ad8:	e002      	b.n	8002ae0 <LoopCopyDataInit>

08002ada <CopyDataInit>:

CopyDataInit:
  ldr r4, [r2, r3]
 8002ada:	58d4      	ldr	r4, [r2, r3]
  str r4, [r0, r3]
 8002adc:	50c4      	str	r4, [r0, r3]
  adds r3, r3, #4
 8002ade:	3304      	adds	r3, #4

08002ae0 <LoopCopyDataInit>:

LoopCopyDataInit:
  adds r4, r0, r3
 8002ae0:	18c4      	adds	r4, r0, r3
  cmp r4, r1
 8002ae2:	428c      	cmp	r4, r1
  bcc CopyDataInit
 8002ae4:	d3f9      	bcc.n	8002ada <CopyDataInit>
  
/* Zero fill the bss segment. */
  ldr r2, =_sbss
 8002ae6:	4a0a      	ldr	r2, [pc, #40]	@ (8002b10 <LoopForever+0x12>)
  ldr r4, =_ebss
 8002ae8:	4c0a      	ldr	r4, [pc, #40]	@ (8002b14 <LoopForever+0x16>)
  movs r3, #0
 8002aea:	2300      	movs	r3, #0
  b LoopFillZerobss
 8002aec:	e001      	b.n	8002af2 <LoopFillZerobss>

08002aee <FillZerobss>:

FillZerobss:
  str  r3, [r2]
 8002aee:	6013      	str	r3, [r2, #0]
  adds r2, r2, #4
 8002af0:	3204      	adds	r2, #4

08002af2 <LoopFillZerobss>:

LoopFillZerobss:
  cmp r2, r4
 8002af2:	42a2      	cmp	r2, r4
  bcc FillZerobss
 8002af4:	d3fb      	bcc.n	8002aee <FillZerobss>

/* Call static constructors */
    bl __libc_init_array
 8002af6:	f007 facf 	bl	800a098 <__libc_init_array>
/* Call the application's entry point.*/
	bl	main
 8002afa:	f7fe fe1f 	bl	800173c <main>

08002afe <LoopForever>:

LoopForever:
    b LoopForever
 8002afe:	e7fe      	b.n	8002afe <LoopForever>
  ldr   sp, =_estack    /* Atollic update: set stack pointer */
 8002b00:	20003000 	.word	0x20003000
  ldr r0, =_sdata
 8002b04:	20000000 	.word	0x20000000
  ldr r1, =_edata
 8002b08:	2000027c 	.word	0x2000027c
  ldr r2, =_sidata
 8002b0c:	0800cff8 	.word	0x0800cff8
  ldr r2, =_sbss
 8002b10:	20000280 	.word	0x20000280
  ldr r4, =_ebss
 8002b14:	20001794 	.word	0x20001794

08002b18 <ADC1_2_IRQHandler>:
 * @retval : None
*/
    .section	.text.Default_Handler,"ax",%progbits
Default_Handler:
Infinite_Loop:
	b	Infinite_Loop
 8002b18:	e7fe      	b.n	8002b18 <ADC1_2_IRQHandler>
	...

08002b1c <HAL_InitTick>:
  *         implementation  in user file.
  * @param TickPriority Tick interrupt priority.
  * @retval HAL status
  */
__weak HAL_StatusTypeDef HAL_InitTick(uint32_t TickPriority)
{
 8002b1c:	b538      	push	{r3, r4, r5, lr}
  /* Configure the SysTick to have interrupt in 1ms time basis*/
  if (HAL_SYSTICK_Config(SystemCoreClock / (1000U / uwTickFreq)) > 0U)
 8002b1e:	4b0e      	ldr	r3, [pc, #56]	@ (8002b58 <HAL_InitTick+0x3c>)
 8002b20:	781a      	ldrb	r2, [r3, #0]
 8002b22:	f44f 737a 	mov.w	r3, #1000	@ 0x3e8
 8002b26:	fbb3 f3f2 	udiv	r3, r3, r2
 8002b2a:	4a0c      	ldr	r2, [pc, #48]	@ (8002b5c <HAL_InitTick+0x40>)
{
 8002b2c:	4605      	mov	r5, r0
  if (HAL_SYSTICK_Config(SystemCoreClock / (1000U / uwTickFreq)) > 0U)
 8002b2e:	6810      	ldr	r0, [r2, #0]
 8002b30:	fbb0 f0f3 	udiv	r0, r0, r3
 8002b34:	f000 f8a0 	bl	8002c78 <HAL_SYSTICK_Config>
 8002b38:	4604      	mov	r4, r0
 8002b3a:	b958      	cbnz	r0, 8002b54 <HAL_InitTick+0x38>
  {
    return HAL_ERROR;
  }

  /* Configure the SysTick IRQ priority */
  if (TickPriority < (1UL << __NVIC_PRIO_BITS))
 8002b3c:	2d0f      	cmp	r5, #15
 8002b3e:	d809      	bhi.n	8002b54 <HAL_InitTick+0x38>
  {
    HAL_NVIC_SetPriority(SysTick_IRQn, TickPriority, 0U);
 8002b40:	4602      	mov	r2, r0
 8002b42:	4629      	mov	r1, r5
 8002b44:	f04f 30ff 	mov.w	r0, #4294967295
 8002b48:	f000 f856 	bl	8002bf8 <HAL_NVIC_SetPriority>
    uwTickPrio = TickPriority;
 8002b4c:	4b04      	ldr	r3, [pc, #16]	@ (8002b60 <HAL_InitTick+0x44>)
 8002b4e:	4620      	mov	r0, r4
 8002b50:	601d      	str	r5, [r3, #0]
  {
    return HAL_ERROR;
  }
   /* Return function status */
  return HAL_OK;
}
 8002b52:	bd38      	pop	{r3, r4, r5, pc}
    return HAL_ERROR;
 8002b54:	2001      	movs	r0, #1
 8002b56:	e7fc      	b.n	8002b52 <HAL_InitTick+0x36>
 8002b58:	200000ac 	.word	0x200000ac
 8002b5c:	200000a8 	.word	0x200000a8
 8002b60:	200000b0 	.word	0x200000b0

08002b64 <HAL_Init>:
  __HAL_FLASH_PREFETCH_BUFFER_ENABLE();
 8002b64:	4a07      	ldr	r2, [pc, #28]	@ (8002b84 <HAL_Init+0x20>)
{
 8002b66:	b508      	push	{r3, lr}
  __HAL_FLASH_PREFETCH_BUFFER_ENABLE();
 8002b68:	6813      	ldr	r3, [r2, #0]
 8002b6a:	f043 0310 	orr.w	r3, r3, #16
 8002b6e:	6013      	str	r3, [r2, #0]
  HAL_NVIC_SetPriorityGrouping(NVIC_PRIORITYGROUP_4);
 8002b70:	2003      	movs	r0, #3
 8002b72:	f000 f82f 	bl	8002bd4 <HAL_NVIC_SetPriorityGrouping>
  HAL_InitTick(TICK_INT_PRIORITY);
 8002b76:	2000      	movs	r0, #0
 8002b78:	f7ff ffd0 	bl	8002b1c <HAL_InitTick>
  HAL_MspInit();
 8002b7c:	f7ff fbdc 	bl	8002338 <HAL_MspInit>
}
 8002b80:	2000      	movs	r0, #0
 8002b82:	bd08      	pop	{r3, pc}
 8002b84:	40022000 	.word	0x40022000

08002b88 <HAL_IncTick>:
  *         implementations  in user file.
  * @retval None
  */
__weak void HAL_IncTick(void)
{
  uwTick += uwTickFreq;
 8002b88:	4a03      	ldr	r2, [pc, #12]	@ (8002b98 <HAL_IncTick+0x10>)
 8002b8a:	4b04      	ldr	r3, [pc, #16]	@ (8002b9c <HAL_IncTick+0x14>)
 8002b8c:	6811      	ldr	r1, [r2, #0]
 8002b8e:	781b      	ldrb	r3, [r3, #0]
 8002b90:	440b      	add	r3, r1
 8002b92:	6013      	str	r3, [r2, #0]
}
 8002b94:	4770      	bx	lr
 8002b96:	bf00      	nop
 8002b98:	20001644 	.word	0x20001644
 8002b9c:	200000ac 	.word	0x200000ac

08002ba0 <HAL_GetTick>:
  *         implementations  in user file.
  * @retval tick value
  */
__weak uint32_t HAL_GetTick(void)
{
  return uwTick;  
 8002ba0:	4b01      	ldr	r3, [pc, #4]	@ (8002ba8 <HAL_GetTick+0x8>)
 8002ba2:	6818      	ldr	r0, [r3, #0]
}
 8002ba4:	4770      	bx	lr
 8002ba6:	bf00      	nop
 8002ba8:	20001644 	.word	0x20001644

08002bac <HAL_Delay>:
  *         implementations  in user file.
  * @param  Delay specifies the delay time length, in milliseconds.
  * @retval None
  */
__weak void HAL_Delay(uint32_t Delay)
{
 8002bac:	b538      	push	{r3, r4, r5, lr}
 8002bae:	4604      	mov	r4, r0
  uint32_t tickstart = HAL_GetTick();
 8002bb0:	f7ff fff6 	bl	8002ba0 <HAL_GetTick>
  uint32_t wait = Delay;
  
  /* Add freq to guarantee minimum wait */
  if (wait < HAL_MAX_DELAY)
 8002bb4:	1c63      	adds	r3, r4, #1
  {
    wait += (uint32_t)(uwTickFreq);
 8002bb6:	bf1c      	itt	ne
 8002bb8:	4b05      	ldrne	r3, [pc, #20]	@ (8002bd0 <HAL_Delay+0x24>)
 8002bba:	781b      	ldrbne	r3, [r3, #0]
  uint32_t tickstart = HAL_GetTick();
 8002bbc:	4605      	mov	r5, r0
    wait += (uint32_t)(uwTickFreq);
 8002bbe:	bf18      	it	ne
 8002bc0:	18e4      	addne	r4, r4, r3
  }
  
  while((HAL_GetTick() - tickstart) < wait)
 8002bc2:	f7ff ffed 	bl	8002ba0 <HAL_GetTick>
 8002bc6:	1b43      	subs	r3, r0, r5
 8002bc8:	42a3      	cmp	r3, r4
 8002bca:	d3fa      	bcc.n	8002bc2 <HAL_Delay+0x16>
  {
  }
}
 8002bcc:	bd38      	pop	{r3, r4, r5, pc}
 8002bce:	bf00      	nop
 8002bd0:	200000ac 	.word	0x200000ac

08002bd4 <HAL_NVIC_SetPriorityGrouping>:
__STATIC_INLINE void __NVIC_SetPriorityGrouping(uint32_t PriorityGroup)
{
  uint32_t reg_value;
  uint32_t PriorityGroupTmp = (PriorityGroup & (uint32_t)0x07UL);             /* only values 0..7 are used          */

  reg_value  =  SCB->AIRCR;                                                   /* read old register configuration    */
 8002bd4:	4907      	ldr	r1, [pc, #28]	@ (8002bf4 <HAL_NVIC_SetPriorityGrouping+0x20>)
 8002bd6:	68ca      	ldr	r2, [r1, #12]
  reg_value &= ~((uint32_t)(SCB_AIRCR_VECTKEY_Msk | SCB_AIRCR_PRIGROUP_Msk)); /* clear bits to change               */
 8002bd8:	f422 62e0 	bic.w	r2, r2, #1792	@ 0x700
  reg_value  =  (reg_value                                   |
                ((uint32_t)0x5FAUL << SCB_AIRCR_VECTKEY_Pos) |
                (PriorityGroupTmp << SCB_AIRCR_PRIGROUP_Pos)  );              /* Insert write key and priority group */
 8002bdc:	0203      	lsls	r3, r0, #8
  reg_value &= ~((uint32_t)(SCB_AIRCR_VECTKEY_Msk | SCB_AIRCR_PRIGROUP_Msk)); /* clear bits to change               */
 8002bde:	0412      	lsls	r2, r2, #16
                (PriorityGroupTmp << SCB_AIRCR_PRIGROUP_Pos)  );              /* Insert write key and priority group */
 8002be0:	f403 63e0 	and.w	r3, r3, #1792	@ 0x700
  reg_value &= ~((uint32_t)(SCB_AIRCR_VECTKEY_Msk | SCB_AIRCR_PRIGROUP_Msk)); /* clear bits to change               */
 8002be4:	0c12      	lsrs	r2, r2, #16
                ((uint32_t)0x5FAUL << SCB_AIRCR_VECTKEY_Pos) |
 8002be6:	4313      	orrs	r3, r2
  reg_value  =  (reg_value                                   |
 8002be8:	f043 63bf 	orr.w	r3, r3, #100139008	@ 0x5f80000
 8002bec:	f443 3300 	orr.w	r3, r3, #131072	@ 0x20000
  SCB->AIRCR =  reg_value;
 8002bf0:	60cb      	str	r3, [r1, #12]
  /* Check the parameters */
  assert_param(IS_NVIC_PRIORITY_GROUP(PriorityGroup));

  /* Set the PRIGROUP[10:8] bits according to the PriorityGroup parameter value */
  NVIC_SetPriorityGrouping(PriorityGroup);
}
 8002bf2:	4770      	bx	lr
 8002bf4:	e000ed00 	.word	0xe000ed00

08002bf8 <HAL_NVIC_SetPriority>:
  \details Reads the priority grouping field from the NVIC Interrupt Controller.
  \return                Priority grouping field (SCB->AIRCR [10:8] PRIGROUP field).
 */
__STATIC_INLINE uint32_t __NVIC_GetPriorityGrouping(void)
{
  return ((uint32_t)((SCB->AIRCR & SCB_AIRCR_PRIGROUP_Msk) >> SCB_AIRCR_PRIGROUP_Pos));
 8002bf8:	4b16      	ldr	r3, [pc, #88]	@ (8002c54 <HAL_NVIC_SetPriority+0x5c>)
  *         This parameter can be a value between 0 and 15 as described in the table CORTEX_NVIC_Priority_Table
  *         A lower priority value indicates a higher priority.
  * @retval None
  */
void HAL_NVIC_SetPriority(IRQn_Type IRQn, uint32_t PreemptPriority, uint32_t SubPriority)
{
 8002bfa:	b530      	push	{r4, r5, lr}
 8002bfc:	68dc      	ldr	r4, [r3, #12]
 8002bfe:	f3c4 2402 	ubfx	r4, r4, #8, #3
{
  uint32_t PriorityGroupTmp = (PriorityGroup & (uint32_t)0x07UL);   /* only values 0..7 are used          */
  uint32_t PreemptPriorityBits;
  uint32_t SubPriorityBits;

  PreemptPriorityBits = ((7UL - PriorityGroupTmp) > (uint32_t)(__NVIC_PRIO_BITS)) ? (uint32_t)(__NVIC_PRIO_BITS) : (uint32_t)(7UL - PriorityGroupTmp);
 8002c02:	f1c4 0307 	rsb	r3, r4, #7
  SubPriorityBits     = ((PriorityGroupTmp + (uint32_t)(__NVIC_PRIO_BITS)) < (uint32_t)7UL) ? (uint32_t)0UL : (uint32_t)((PriorityGroupTmp - 7UL) + (uint32_t)(__NVIC_PRIO_BITS));
 8002c06:	1d25      	adds	r5, r4, #4
  PreemptPriorityBits = ((7UL - PriorityGroupTmp) > (uint32_t)(__NVIC_PRIO_BITS)) ? (uint32_t)(__NVIC_PRIO_BITS) : (uint32_t)(7UL - PriorityGroupTmp);
 8002c08:	2b04      	cmp	r3, #4
 8002c0a:	bf28      	it	cs
 8002c0c:	2304      	movcs	r3, #4
  SubPriorityBits     = ((PriorityGroupTmp + (uint32_t)(__NVIC_PRIO_BITS)) < (uint32_t)7UL) ? (uint32_t)0UL : (uint32_t)((PriorityGroupTmp - 7UL) + (uint32_t)(__NVIC_PRIO_BITS));
 8002c0e:	2d06      	cmp	r5, #6

  return (
           ((PreemptPriority & (uint32_t)((1UL << (PreemptPriorityBits)) - 1UL)) << SubPriorityBits) |
 8002c10:	f04f 35ff 	mov.w	r5, #4294967295
  SubPriorityBits     = ((PriorityGroupTmp + (uint32_t)(__NVIC_PRIO_BITS)) < (uint32_t)7UL) ? (uint32_t)0UL : (uint32_t)((PriorityGroupTmp - 7UL) + (uint32_t)(__NVIC_PRIO_BITS));
 8002c14:	bf8c      	ite	hi
 8002c16:	3c03      	subhi	r4, #3
 8002c18:	2400      	movls	r4, #0
           ((PreemptPriority & (uint32_t)((1UL << (PreemptPriorityBits)) - 1UL)) << SubPriorityBits) |
 8002c1a:	fa05 f303 	lsl.w	r3, r5, r3
 8002c1e:	ea21 0303 	bic.w	r3, r1, r3
           ((SubPriority     & (uint32_t)((1UL << (SubPriorityBits    )) - 1UL)))
 8002c22:	40a5      	lsls	r5, r4
 8002c24:	ea22 0205 	bic.w	r2, r2, r5
           ((PreemptPriority & (uint32_t)((1UL << (PreemptPriorityBits)) - 1UL)) << SubPriorityBits) |
 8002c28:	40a3      	lsls	r3, r4
  if ((int32_t)(IRQn) >= 0)
 8002c2a:	2800      	cmp	r0, #0
           ((PreemptPriority & (uint32_t)((1UL << (PreemptPriorityBits)) - 1UL)) << SubPriorityBits) |
 8002c2c:	ea43 0302 	orr.w	r3, r3, r2
    NVIC->IP[((uint32_t)IRQn)]               = (uint8_t)((priority << (8U - __NVIC_PRIO_BITS)) & (uint32_t)0xFFUL);
 8002c30:	bfac      	ite	ge
 8002c32:	f100 4060 	addge.w	r0, r0, #3758096384	@ 0xe0000000
    SCB->SHP[(((uint32_t)IRQn) & 0xFUL)-4UL] = (uint8_t)((priority << (8U - __NVIC_PRIO_BITS)) & (uint32_t)0xFFUL);
 8002c36:	4a08      	ldrlt	r2, [pc, #32]	@ (8002c58 <HAL_NVIC_SetPriority+0x60>)
    NVIC->IP[((uint32_t)IRQn)]               = (uint8_t)((priority << (8U - __NVIC_PRIO_BITS)) & (uint32_t)0xFFUL);
 8002c38:	ea4f 1303 	mov.w	r3, r3, lsl #4
    SCB->SHP[(((uint32_t)IRQn) & 0xFUL)-4UL] = (uint8_t)((priority << (8U - __NVIC_PRIO_BITS)) & (uint32_t)0xFFUL);
 8002c3c:	bfb8      	it	lt
 8002c3e:	f000 000f 	andlt.w	r0, r0, #15
    NVIC->IP[((uint32_t)IRQn)]               = (uint8_t)((priority << (8U - __NVIC_PRIO_BITS)) & (uint32_t)0xFFUL);
 8002c42:	b2db      	uxtb	r3, r3
 8002c44:	bfaa      	itet	ge
 8002c46:	f500 4061 	addge.w	r0, r0, #57600	@ 0xe100
    SCB->SHP[(((uint32_t)IRQn) & 0xFUL)-4UL] = (uint8_t)((priority << (8U - __NVIC_PRIO_BITS)) & (uint32_t)0xFFUL);
 8002c4a:	5413      	strblt	r3, [r2, r0]
    NVIC->IP[((uint32_t)IRQn)]               = (uint8_t)((priority << (8U - __NVIC_PRIO_BITS)) & (uint32_t)0xFFUL);
 8002c4c:	f880 3300 	strbge.w	r3, [r0, #768]	@ 0x300
  assert_param(IS_NVIC_PREEMPTION_PRIORITY(PreemptPriority));
  
  prioritygroup = NVIC_GetPriorityGrouping();
  
  NVIC_SetPriority(IRQn, NVIC_EncodePriority(prioritygroup, PreemptPriority, SubPriority));
}
 8002c50:	bd30      	pop	{r4, r5, pc}
 8002c52:	bf00      	nop
 8002c54:	e000ed00 	.word	0xe000ed00
 8002c58:	e000ed14 	.word	0xe000ed14

08002c5c <HAL_NVIC_EnableIRQ>:
  if ((int32_t)(IRQn) >= 0)
 8002c5c:	2800      	cmp	r0, #0
 8002c5e:	db07      	blt.n	8002c70 <HAL_NVIC_EnableIRQ+0x14>
    NVIC->ISER[(((uint32_t)IRQn) >> 5UL)] = (uint32_t)(1UL << (((uint32_t)IRQn) & 0x1FUL));
 8002c60:	0941      	lsrs	r1, r0, #5
 8002c62:	4a04      	ldr	r2, [pc, #16]	@ (8002c74 <HAL_NVIC_EnableIRQ+0x18>)
 8002c64:	f000 001f 	and.w	r0, r0, #31
 8002c68:	2301      	movs	r3, #1
 8002c6a:	4083      	lsls	r3, r0
 8002c6c:	f842 3021 	str.w	r3, [r2, r1, lsl #2]
  /* Check the parameters */
  assert_param(IS_NVIC_DEVICE_IRQ(IRQn));
  
  /* Enable interrupt */
  NVIC_EnableIRQ(IRQn);
}
 8002c70:	4770      	bx	lr
 8002c72:	bf00      	nop
 8002c74:	e000e100 	.word	0xe000e100

08002c78 <HAL_SYSTICK_Config>:
           function <b>SysTick_Config</b> is not included. In this case, the file <b><i>device</i>.h</b>
           must contain a vendor-specific implementation of this function.
 */
__STATIC_INLINE uint32_t SysTick_Config(uint32_t ticks)
{
  if ((ticks - 1UL) > SysTick_LOAD_RELOAD_Msk)
 8002c78:	3801      	subs	r0, #1
 8002c7a:	f1b0 7f80 	cmp.w	r0, #16777216	@ 0x1000000
 8002c7e:	d20b      	bcs.n	8002c98 <HAL_SYSTICK_Config+0x20>
  {
    return (1UL);                                                   /* Reload value impossible */
  }

  SysTick->LOAD  = (uint32_t)(ticks - 1UL);                         /* set reload register */
 8002c80:	f04f 23e0 	mov.w	r3, #3758153728	@ 0xe000e000
    SCB->SHP[(((uint32_t)IRQn) & 0xFUL)-4UL] = (uint8_t)((priority << (8U - __NVIC_PRIO_BITS)) & (uint32_t)0xFFUL);
 8002c84:	4a05      	ldr	r2, [pc, #20]	@ (8002c9c <HAL_SYSTICK_Config+0x24>)
  SysTick->LOAD  = (uint32_t)(ticks - 1UL);                         /* set reload register */
 8002c86:	6158      	str	r0, [r3, #20]
    SCB->SHP[(((uint32_t)IRQn) & 0xFUL)-4UL] = (uint8_t)((priority << (8U - __NVIC_PRIO_BITS)) & (uint32_t)0xFFUL);
 8002c88:	21f0      	movs	r1, #240	@ 0xf0
 8002c8a:	f882 1023 	strb.w	r1, [r2, #35]	@ 0x23
  NVIC_SetPriority (SysTick_IRQn, (1UL << __NVIC_PRIO_BITS) - 1UL); /* set Priority for Systick Interrupt */
  SysTick->VAL   = 0UL;                                             /* Load the SysTick Counter Value */
 8002c8e:	2000      	movs	r0, #0
  SysTick->CTRL  = SysTick_CTRL_CLKSOURCE_Msk |
 8002c90:	2207      	movs	r2, #7
  SysTick->VAL   = 0UL;                                             /* Load the SysTick Counter Value */
 8002c92:	6198      	str	r0, [r3, #24]
  SysTick->CTRL  = SysTick_CTRL_CLKSOURCE_Msk |
 8002c94:	611a      	str	r2, [r3, #16]
                   SysTick_CTRL_TICKINT_Msk   |
                   SysTick_CTRL_ENABLE_Msk;                         /* Enable SysTick IRQ and SysTick Timer */
  return (0UL);                                                     /* Function successful */
 8002c96:	4770      	bx	lr
    return (1UL);                                                   /* Reload value impossible */
 8002c98:	2001      	movs	r0, #1
  *                  - 1  Function failed.
  */
uint32_t HAL_SYSTICK_Config(uint32_t TicksNumb)
{
   return SysTick_Config(TicksNumb);
}
 8002c9a:	4770      	bx	lr
 8002c9c:	e000ed00 	.word	0xe000ed00

08002ca0 <CRC_Handle_8>:
  * @param  pBuffer pointer to the input data buffer
  * @param  BufferLength input data buffer length
  * @retval uint32_t CRC (returned value LSBs for CRC shorter than 32 bits)
  */
static uint32_t CRC_Handle_8(CRC_HandleTypeDef *hcrc, uint8_t pBuffer[], uint32_t BufferLength)
{
 8002ca0:	b5f0      	push	{r4, r5, r6, r7, lr}
 8002ca2:	f022 0603 	bic.w	r6, r2, #3
  /* Processing time optimization: 4 bytes are entered in a row with a single word write,
   * last bytes must be carefully fed to the CRC calculator to ensure a correct type
   * handling by the peripheral */
  for (i = 0U; i < (BufferLength / 4U); i++)
  {
    hcrc->Instance->DR = ((uint32_t)pBuffer[4U * i] << 24U) | \
 8002ca6:	6805      	ldr	r5, [r0, #0]
 8002ca8:	460b      	mov	r3, r1
  for (i = 0U; i < (BufferLength / 4U); i++)
 8002caa:	0897      	lsrs	r7, r2, #2
 8002cac:	440e      	add	r6, r1
 8002cae:	42b3      	cmp	r3, r6
 8002cb0:	d10a      	bne.n	8002cc8 <CRC_Handle_8+0x28>
                         ((uint32_t)pBuffer[(4U * i) + 1U] << 16U) | \
                         ((uint32_t)pBuffer[(4U * i) + 2U] << 8U)  | \
                         (uint32_t)pBuffer[(4U * i) + 3U];
  }
  /* last bytes specific handling */
  if ((BufferLength % 4U) != 0U)
 8002cb2:	f012 0203 	ands.w	r2, r2, #3
 8002cb6:	d004      	beq.n	8002cc2 <CRC_Handle_8+0x22>
  {
    if ((BufferLength % 4U) == 1U)
 8002cb8:	2a01      	cmp	r2, #1
    hcrc->Instance->DR = ((uint32_t)pBuffer[4U * i] << 24U) | \
 8002cba:	f811 4027 	ldrb.w	r4, [r1, r7, lsl #2]
    if ((BufferLength % 4U) == 1U)
 8002cbe:	d114      	bne.n	8002cea <CRC_Handle_8+0x4a>
    {
      *(__IO uint8_t *)(__IO void *)(&hcrc->Instance->DR) = pBuffer[4U * i];         /* Derogation MisraC2012 R.11.5 */
 8002cc0:	702c      	strb	r4, [r5, #0]
      *(__IO uint8_t *)(__IO void *)(&hcrc->Instance->DR) = pBuffer[(4U * i) + 2U];  /* Derogation MisraC2012 R.11.5 */
    }
  }

  /* Return the CRC computed value */
  return hcrc->Instance->DR;
 8002cc2:	6803      	ldr	r3, [r0, #0]
 8002cc4:	6818      	ldr	r0, [r3, #0]
}
 8002cc6:	bdf0      	pop	{r4, r5, r6, r7, pc}
                         ((uint32_t)pBuffer[(4U * i) + 1U] << 16U) | \
 8002cc8:	785c      	ldrb	r4, [r3, #1]
    hcrc->Instance->DR = ((uint32_t)pBuffer[4U * i] << 24U) | \
 8002cca:	f893 c000 	ldrb.w	ip, [r3]
                         ((uint32_t)pBuffer[(4U * i) + 1U] << 16U) | \
 8002cce:	0424      	lsls	r4, r4, #16
                         ((uint32_t)pBuffer[(4U * i) + 2U] << 8U)  | \
 8002cd0:	ea44 640c 	orr.w	r4, r4, ip, lsl #24
                         (uint32_t)pBuffer[(4U * i) + 3U];
 8002cd4:	f893 c003 	ldrb.w	ip, [r3, #3]
                         ((uint32_t)pBuffer[(4U * i) + 2U] << 8U)  | \
 8002cd8:	ea44 040c 	orr.w	r4, r4, ip
 8002cdc:	f893 c002 	ldrb.w	ip, [r3, #2]
 8002ce0:	ea44 240c 	orr.w	r4, r4, ip, lsl #8
    hcrc->Instance->DR = ((uint32_t)pBuffer[4U * i] << 24U) | \
 8002ce4:	602c      	str	r4, [r5, #0]
  for (i = 0U; i < (BufferLength / 4U); i++)
 8002ce6:	3304      	adds	r3, #4
 8002ce8:	e7e1      	b.n	8002cae <CRC_Handle_8+0xe>
      data = ((uint16_t)(pBuffer[4U * i]) << 8U) | (uint16_t)pBuffer[(4U * i) + 1U];
 8002cea:	7859      	ldrb	r1, [r3, #1]
 8002cec:	ea41 2104 	orr.w	r1, r1, r4, lsl #8
      *pReg = data;
 8002cf0:	8029      	strh	r1, [r5, #0]
    if ((BufferLength % 4U) == 2U)
 8002cf2:	2a02      	cmp	r2, #2
      *(__IO uint8_t *)(__IO void *)(&hcrc->Instance->DR) = pBuffer[(4U * i) + 2U];  /* Derogation MisraC2012 R.11.5 */
 8002cf4:	bf1c      	itt	ne
 8002cf6:	789b      	ldrbne	r3, [r3, #2]
 8002cf8:	702b      	strbne	r3, [r5, #0]
 8002cfa:	e7e2      	b.n	8002cc2 <CRC_Handle_8+0x22>

08002cfc <CRC_Handle_16>:
  /* Processing time optimization: 2 HalfWords are entered in a row with a single word write,
   * in case of odd length, last HalfWord must be carefully fed to the CRC calculator to ensure
   * a correct type handling by the peripheral */
  for (i = 0U; i < (BufferLength / 2U); i++)
  {
    hcrc->Instance->DR = ((uint32_t)pBuffer[2U * i] << 16U) | (uint32_t)pBuffer[(2U * i) + 1U];
 8002cfc:	6800      	ldr	r0, [r0, #0]
{
 8002cfe:	b5f0      	push	{r4, r5, r6, r7, lr}
  for (i = 0U; i < (BufferLength / 2U); i++)
 8002d00:	2300      	movs	r3, #0
 8002d02:	0855      	lsrs	r5, r2, #1
    hcrc->Instance->DR = ((uint32_t)pBuffer[2U * i] << 16U) | (uint32_t)pBuffer[(2U * i) + 1U];
 8002d04:	1c8e      	adds	r6, r1, #2
  for (i = 0U; i < (BufferLength / 2U); i++)
 8002d06:	429d      	cmp	r5, r3
 8002d08:	d106      	bne.n	8002d18 <CRC_Handle_16+0x1c>
  }
  if ((BufferLength % 2U) != 0U)
 8002d0a:	07d3      	lsls	r3, r2, #31
  {
    pReg = (__IO uint16_t *)(__IO void *)(&hcrc->Instance->DR);                 /* Derogation MisraC2012 R.11.5 */
    *pReg = pBuffer[2U * i];
 8002d0c:	bf44      	itt	mi
 8002d0e:	f831 3025 	ldrhmi.w	r3, [r1, r5, lsl #2]
 8002d12:	8003      	strhmi	r3, [r0, #0]
  }

  /* Return the CRC computed value */
  return hcrc->Instance->DR;
 8002d14:	6800      	ldr	r0, [r0, #0]
}
 8002d16:	bdf0      	pop	{r4, r5, r6, r7, pc}
    hcrc->Instance->DR = ((uint32_t)pBuffer[2U * i] << 16U) | (uint32_t)pBuffer[(2U * i) + 1U];
 8002d18:	f831 7023 	ldrh.w	r7, [r1, r3, lsl #2]
 8002d1c:	f836 4023 	ldrh.w	r4, [r6, r3, lsl #2]
 8002d20:	ea44 4407 	orr.w	r4, r4, r7, lsl #16
 8002d24:	6004      	str	r4, [r0, #0]
  for (i = 0U; i < (BufferLength / 2U); i++)
 8002d26:	3301      	adds	r3, #1
 8002d28:	e7ed      	b.n	8002d06 <CRC_Handle_16+0xa>
	...

08002d2c <HAL_CRC_Init>:
{
 8002d2c:	b510      	push	{r4, lr}
  if (hcrc == NULL)
 8002d2e:	4604      	mov	r4, r0
 8002d30:	b908      	cbnz	r0, 8002d36 <HAL_CRC_Init+0xa>
    return HAL_ERROR;
 8002d32:	2001      	movs	r0, #1
}
 8002d34:	bd10      	pop	{r4, pc}
  if (hcrc->State == HAL_CRC_STATE_RESET)
 8002d36:	7f43      	ldrb	r3, [r0, #29]
 8002d38:	f003 02ff 	and.w	r2, r3, #255	@ 0xff
 8002d3c:	b913      	cbnz	r3, 8002d44 <HAL_CRC_Init+0x18>
    hcrc->Lock = HAL_UNLOCKED;
 8002d3e:	7702      	strb	r2, [r0, #28]
    HAL_CRC_MspInit(hcrc);
 8002d40:	f7ff fb12 	bl	8002368 <HAL_CRC_MspInit>
  hcrc->State = HAL_CRC_STATE_BUSY;
 8002d44:	2302      	movs	r3, #2
 8002d46:	7763      	strb	r3, [r4, #29]
  if (hcrc->Init.DefaultPolynomialUse == DEFAULT_POLYNOMIAL_ENABLE)
 8002d48:	7923      	ldrb	r3, [r4, #4]
 8002d4a:	b9e3      	cbnz	r3, 8002d86 <HAL_CRC_Init+0x5a>
    WRITE_REG(hcrc->Instance->POL, DEFAULT_CRC32_POLY);
 8002d4c:	6823      	ldr	r3, [r4, #0]
 8002d4e:	4a13      	ldr	r2, [pc, #76]	@ (8002d9c <HAL_CRC_Init+0x70>)
 8002d50:	615a      	str	r2, [r3, #20]
    MODIFY_REG(hcrc->Instance->CR, CRC_CR_POLYSIZE, CRC_POLYLENGTH_32B);
 8002d52:	689a      	ldr	r2, [r3, #8]
 8002d54:	f022 0218 	bic.w	r2, r2, #24
 8002d58:	609a      	str	r2, [r3, #8]
  if (hcrc->Init.DefaultInitValueUse == DEFAULT_INIT_VALUE_ENABLE)
 8002d5a:	7962      	ldrb	r2, [r4, #5]
    WRITE_REG(hcrc->Instance->INIT, DEFAULT_CRC_INITVALUE);
 8002d5c:	6823      	ldr	r3, [r4, #0]
  if (hcrc->Init.DefaultInitValueUse == DEFAULT_INIT_VALUE_ENABLE)
 8002d5e:	b9d2      	cbnz	r2, 8002d96 <HAL_CRC_Init+0x6a>
    WRITE_REG(hcrc->Instance->INIT, DEFAULT_CRC_INITVALUE);
 8002d60:	f04f 32ff 	mov.w	r2, #4294967295
    WRITE_REG(hcrc->Instance->INIT, hcrc->Init.InitValue);
 8002d64:	611a      	str	r2, [r3, #16]
  MODIFY_REG(hcrc->Instance->CR, CRC_CR_REV_IN, hcrc->Init.InputDataInversionMode);
 8002d66:	689a      	ldr	r2, [r3, #8]
 8002d68:	6961      	ldr	r1, [r4, #20]
 8002d6a:	f022 0260 	bic.w	r2, r2, #96	@ 0x60
 8002d6e:	430a      	orrs	r2, r1
 8002d70:	609a      	str	r2, [r3, #8]
  MODIFY_REG(hcrc->Instance->CR, CRC_CR_REV_OUT, hcrc->Init.OutputDataInversionMode);
 8002d72:	689a      	ldr	r2, [r3, #8]
 8002d74:	69a1      	ldr	r1, [r4, #24]
 8002d76:	f022 0280 	bic.w	r2, r2, #128	@ 0x80
 8002d7a:	430a      	orrs	r2, r1
 8002d7c:	609a      	str	r2, [r3, #8]
  hcrc->State = HAL_CRC_STATE_READY;
 8002d7e:	2301      	movs	r3, #1
 8002d80:	7763      	strb	r3, [r4, #29]
  return HAL_OK;
 8002d82:	2000      	movs	r0, #0
 8002d84:	e7d6      	b.n	8002d34 <HAL_CRC_Init+0x8>
    if (HAL_CRCEx_Polynomial_Set(hcrc, hcrc->Init.GeneratingPolynomial, hcrc->Init.CRCLength) != HAL_OK)
 8002d86:	e9d4 1202 	ldrd	r1, r2, [r4, #8]
 8002d8a:	4620      	mov	r0, r4
 8002d8c:	f000 f82c 	bl	8002de8 <HAL_CRCEx_Polynomial_Set>
 8002d90:	2800      	cmp	r0, #0
 8002d92:	d0e2      	beq.n	8002d5a <HAL_CRC_Init+0x2e>
 8002d94:	e7cd      	b.n	8002d32 <HAL_CRC_Init+0x6>
    WRITE_REG(hcrc->Instance->INIT, hcrc->Init.InitValue);
 8002d96:	6922      	ldr	r2, [r4, #16]
 8002d98:	e7e4      	b.n	8002d64 <HAL_CRC_Init+0x38>
 8002d9a:	bf00      	nop
 8002d9c:	04c11db7 	.word	0x04c11db7

08002da0 <HAL_CRC_Calculate>:
{
 8002da0:	b5f8      	push	{r3, r4, r5, r6, r7, lr}
  hcrc->State = HAL_CRC_STATE_BUSY;
 8002da2:	2602      	movs	r6, #2
 8002da4:	7746      	strb	r6, [r0, #29]
  __HAL_CRC_DR_RESET(hcrc);
 8002da6:	6806      	ldr	r6, [r0, #0]
 8002da8:	68b7      	ldr	r7, [r6, #8]
 8002daa:	f047 0701 	orr.w	r7, r7, #1
 8002dae:	60b7      	str	r7, [r6, #8]
  switch (hcrc->InputDataFormat)
 8002db0:	6a07      	ldr	r7, [r0, #32]
 8002db2:	2f02      	cmp	r7, #2
{
 8002db4:	4604      	mov	r4, r0
  switch (hcrc->InputDataFormat)
 8002db6:	d014      	beq.n	8002de2 <HAL_CRC_Calculate+0x42>
 8002db8:	2f03      	cmp	r7, #3
 8002dba:	d005      	beq.n	8002dc8 <HAL_CRC_Calculate+0x28>
 8002dbc:	2f01      	cmp	r7, #1
 8002dbe:	d00d      	beq.n	8002ddc <HAL_CRC_Calculate+0x3c>
 8002dc0:	2000      	movs	r0, #0
  hcrc->State = HAL_CRC_STATE_READY;
 8002dc2:	2301      	movs	r3, #1
 8002dc4:	7763      	strb	r3, [r4, #29]
}
 8002dc6:	bdf8      	pop	{r3, r4, r5, r6, r7, pc}
 8002dc8:	eb01 0582 	add.w	r5, r1, r2, lsl #2
      for (index = 0U; index < BufferLength; index++)
 8002dcc:	42a9      	cmp	r1, r5
 8002dce:	d101      	bne.n	8002dd4 <HAL_CRC_Calculate+0x34>
      temp = hcrc->Instance->DR;
 8002dd0:	6830      	ldr	r0, [r6, #0]
      break;
 8002dd2:	e7f6      	b.n	8002dc2 <HAL_CRC_Calculate+0x22>
        hcrc->Instance->DR = pBuffer[index];
 8002dd4:	f851 3b04 	ldr.w	r3, [r1], #4
 8002dd8:	6033      	str	r3, [r6, #0]
      for (index = 0U; index < BufferLength; index++)
 8002dda:	e7f7      	b.n	8002dcc <HAL_CRC_Calculate+0x2c>
      temp = CRC_Handle_8(hcrc, (uint8_t *)pBuffer, BufferLength);
 8002ddc:	f7ff ff60 	bl	8002ca0 <CRC_Handle_8>
      break;
 8002de0:	e7ef      	b.n	8002dc2 <HAL_CRC_Calculate+0x22>
      temp = CRC_Handle_16(hcrc, (uint16_t *)(void *)pBuffer, BufferLength);    /* Derogation MisraC2012 R.11.5 */
 8002de2:	f7ff ff8b 	bl	8002cfc <CRC_Handle_16>
      break;
 8002de6:	e7ec      	b.n	8002dc2 <HAL_CRC_Calculate+0x22>

08002de8 <HAL_CRCEx_Polynomial_Set>:

  /* Check the parameters */
  assert_param(IS_CRC_POL_LENGTH(PolyLength));

  /* Ensure that the generating polynomial is odd */
  if ((Pol & (uint32_t)(0x1U)) ==  0U)
 8002de8:	07cb      	lsls	r3, r1, #31
{
 8002dea:	b510      	push	{r4, lr}
  if ((Pol & (uint32_t)(0x1U)) ==  0U)
 8002dec:	d50d      	bpl.n	8002e0a <HAL_CRCEx_Polynomial_Set+0x22>
  uint32_t msb = 31U; /* polynomial degree is 32 at most, so msb is initialized to max value */
 8002dee:	231f      	movs	r3, #31
     * definition. HAL_ERROR is reported if Pol degree is
     * larger than that indicated by PolyLength.
     * Look for MSB position: msb will contain the degree of
     *  the second to the largest polynomial member. E.g., for
     *  X^7 + X^6 + X^5 + X^2 + 1, msb = 6. */
    while ((msb-- > 0U) && ((Pol & ((uint32_t)(0x1U) << (msb & 0x1FU))) == 0U))
 8002df0:	3b01      	subs	r3, #1
 8002df2:	d31d      	bcc.n	8002e30 <HAL_CRCEx_Polynomial_Set+0x48>
 8002df4:	fa21 f403 	lsr.w	r4, r1, r3
 8002df8:	07e4      	lsls	r4, r4, #31
 8002dfa:	d5f9      	bpl.n	8002df0 <HAL_CRCEx_Polynomial_Set+0x8>
    {
    }

    switch (PolyLength)
 8002dfc:	2a10      	cmp	r2, #16
 8002dfe:	d013      	beq.n	8002e28 <HAL_CRCEx_Polynomial_Set+0x40>
 8002e00:	2a10      	cmp	r2, #16
 8002e02:	d804      	bhi.n	8002e0e <HAL_CRCEx_Polynomial_Set+0x26>
 8002e04:	b13a      	cbz	r2, 8002e16 <HAL_CRCEx_Polynomial_Set+0x2e>
 8002e06:	2a08      	cmp	r2, #8
 8002e08:	d010      	beq.n	8002e2c <HAL_CRCEx_Polynomial_Set+0x44>
    {

      case CRC_POLYLENGTH_7B:
        if (msb >= HAL_CRC_LENGTH_7B)
        {
          status =   HAL_ERROR;
 8002e0a:	2001      	movs	r0, #1

    /* set generating polynomial size */
    MODIFY_REG(hcrc->Instance->CR, CRC_CR_POLYSIZE, PolyLength);
  }
  /* Return function status */
  return status;
 8002e0c:	e00b      	b.n	8002e26 <HAL_CRCEx_Polynomial_Set+0x3e>
    switch (PolyLength)
 8002e0e:	2a18      	cmp	r2, #24
 8002e10:	d1fb      	bne.n	8002e0a <HAL_CRCEx_Polynomial_Set+0x22>
        if (msb >= HAL_CRC_LENGTH_7B)
 8002e12:	2b06      	cmp	r3, #6
        if (msb >= HAL_CRC_LENGTH_16B)
 8002e14:	d8f9      	bhi.n	8002e0a <HAL_CRCEx_Polynomial_Set+0x22>
    WRITE_REG(hcrc->Instance->POL, Pol);
 8002e16:	6800      	ldr	r0, [r0, #0]
 8002e18:	6141      	str	r1, [r0, #20]
    MODIFY_REG(hcrc->Instance->CR, CRC_CR_POLYSIZE, PolyLength);
 8002e1a:	6883      	ldr	r3, [r0, #8]
 8002e1c:	f023 0318 	bic.w	r3, r3, #24
 8002e20:	4313      	orrs	r3, r2
 8002e22:	6083      	str	r3, [r0, #8]
 8002e24:	2000      	movs	r0, #0
}
 8002e26:	bd10      	pop	{r4, pc}
        if (msb >= HAL_CRC_LENGTH_8B)
 8002e28:	2b07      	cmp	r3, #7
 8002e2a:	e7f3      	b.n	8002e14 <HAL_CRCEx_Polynomial_Set+0x2c>
        if (msb >= HAL_CRC_LENGTH_16B)
 8002e2c:	2b0f      	cmp	r3, #15
 8002e2e:	e7f1      	b.n	8002e14 <HAL_CRCEx_Polynomial_Set+0x2c>
    switch (PolyLength)
 8002e30:	2a10      	cmp	r2, #16
 8002e32:	d1e5      	bne.n	8002e00 <HAL_CRCEx_Polynomial_Set+0x18>
 8002e34:	e7e9      	b.n	8002e0a <HAL_CRCEx_Polynomial_Set+0x22>
	...

08002e38 <HAL_DMA_Init>:
  * @param  hdma Pointer to a DMA_HandleTypeDef structure that contains
  *               the configuration information for the specified DMA Channel.
  * @retval HAL status
  */
HAL_StatusTypeDef HAL_DMA_Init(DMA_HandleTypeDef *hdma)
{
 8002e38:	b510      	push	{r4, lr}
  uint32_t tmp = 0U;

  /* Check the DMA handle allocation */
  if(NULL == hdma)
 8002e3a:	4603      	mov	r3, r0
 8002e3c:	b308      	cbz	r0, 8002e82 <HAL_DMA_Init+0x4a>
  tmp &= ((uint32_t)~(DMA_CCR_PL    | DMA_CCR_MSIZE  | DMA_CCR_PSIZE  | \
                      DMA_CCR_MINC  | DMA_CCR_PINC   | DMA_CCR_CIRC   | \
                      DMA_CCR_DIR));

  /* Prepare the DMA Channel configuration */
  tmp |=  hdma->Init.Direction        |
 8002e3e:	e9d3 2401 	ldrd	r2, r4, [r3, #4]
 8002e42:	4322      	orrs	r2, r4
          hdma->Init.PeriphInc           | hdma->Init.MemInc           |
 8002e44:	68dc      	ldr	r4, [r3, #12]
  tmp = hdma->Instance->CCR;
 8002e46:	6801      	ldr	r1, [r0, #0]
          hdma->Init.PeriphInc           | hdma->Init.MemInc           |
 8002e48:	4322      	orrs	r2, r4
 8002e4a:	691c      	ldr	r4, [r3, #16]
  tmp = hdma->Instance->CCR;
 8002e4c:	6808      	ldr	r0, [r1, #0]
          hdma->Init.PeriphInc           | hdma->Init.MemInc           |
 8002e4e:	4322      	orrs	r2, r4
          hdma->Init.PeriphDataAlignment | hdma->Init.MemDataAlignment |
 8002e50:	695c      	ldr	r4, [r3, #20]
 8002e52:	4322      	orrs	r2, r4
 8002e54:	699c      	ldr	r4, [r3, #24]
 8002e56:	4322      	orrs	r2, r4
          hdma->Init.Mode                | hdma->Init.Priority;
 8002e58:	69dc      	ldr	r4, [r3, #28]
  tmp &= ((uint32_t)~(DMA_CCR_PL    | DMA_CCR_MSIZE  | DMA_CCR_PSIZE  | \
 8002e5a:	f36f 100d 	bfc	r0, #4, #10
          hdma->Init.Mode                | hdma->Init.Priority;
 8002e5e:	4322      	orrs	r2, r4
  tmp |=  hdma->Init.Direction        |
 8002e60:	4302      	orrs	r2, r0

  /* Write to DMA Channel CR register */
  hdma->Instance->CCR = tmp;
 8002e62:	600a      	str	r2, [r1, #0]
    hdma->DmaBaseAddress = DMA2;
  }
#else
  /* calculation of the channel index */
  /* DMA1 */
  hdma->ChannelIndex = (((uint32_t)hdma->Instance - (uint32_t)DMA1_Channel1) / ((uint32_t)DMA1_Channel2 - (uint32_t)DMA1_Channel1)) << 2U;
 8002e64:	4a08      	ldr	r2, [pc, #32]	@ (8002e88 <HAL_DMA_Init+0x50>)
 8002e66:	440a      	add	r2, r1
 8002e68:	2114      	movs	r1, #20
 8002e6a:	fbb2 f2f1 	udiv	r2, r2, r1
 8002e6e:	0092      	lsls	r2, r2, #2
 8002e70:	641a      	str	r2, [r3, #64]	@ 0x40
  hdma->DmaBaseAddress = DMA1;
 8002e72:	4a06      	ldr	r2, [pc, #24]	@ (8002e8c <HAL_DMA_Init+0x54>)
 8002e74:	63da      	str	r2, [r3, #60]	@ 0x3c
  hdma->ErrorCode = HAL_DMA_ERROR_NONE;
 8002e76:	2000      	movs	r0, #0
  hdma->Lock = HAL_UNLOCKED;
 8002e78:	f44f 7280 	mov.w	r2, #256	@ 0x100
  hdma->ErrorCode = HAL_DMA_ERROR_NONE;
 8002e7c:	6398      	str	r0, [r3, #56]	@ 0x38
  hdma->Lock = HAL_UNLOCKED;
 8002e7e:	841a      	strh	r2, [r3, #32]
}
 8002e80:	bd10      	pop	{r4, pc}
    return HAL_ERROR;
 8002e82:	2001      	movs	r0, #1
 8002e84:	e7fc      	b.n	8002e80 <HAL_DMA_Init+0x48>
 8002e86:	bf00      	nop
 8002e88:	bffdfff8 	.word	0xbffdfff8
 8002e8c:	40020000 	.word	0x40020000

08002e90 <HAL_DMA_Start_IT>:
{
 8002e90:	b5f0      	push	{r4, r5, r6, r7, lr}
  __HAL_LOCK(hdma);
 8002e92:	f890 4020 	ldrb.w	r4, [r0, #32]
 8002e96:	2c01      	cmp	r4, #1
 8002e98:	d033      	beq.n	8002f02 <HAL_DMA_Start_IT+0x72>
  if(HAL_DMA_STATE_READY == hdma->State)
 8002e9a:	f890 5021 	ldrb.w	r5, [r0, #33]	@ 0x21
  __HAL_LOCK(hdma);
 8002e9e:	2401      	movs	r4, #1
  if(HAL_DMA_STATE_READY == hdma->State)
 8002ea0:	42a5      	cmp	r5, r4
  __HAL_LOCK(hdma);
 8002ea2:	f880 4020 	strb.w	r4, [r0, #32]
  if(HAL_DMA_STATE_READY == hdma->State)
 8002ea6:	f04f 0400 	mov.w	r4, #0
 8002eaa:	d128      	bne.n	8002efe <HAL_DMA_Start_IT+0x6e>
    hdma->ErrorCode = HAL_DMA_ERROR_NONE;
 8002eac:	6384      	str	r4, [r0, #56]	@ 0x38
    hdma->State = HAL_DMA_STATE_BUSY;
 8002eae:	2602      	movs	r6, #2
    hdma->Instance->CCR &= ~DMA_CCR_EN;
 8002eb0:	6804      	ldr	r4, [r0, #0]
    hdma->State = HAL_DMA_STATE_BUSY;
 8002eb2:	f880 6021 	strb.w	r6, [r0, #33]	@ 0x21
    hdma->Instance->CCR &= ~DMA_CCR_EN;
 8002eb6:	6826      	ldr	r6, [r4, #0]
 8002eb8:	f026 0601 	bic.w	r6, r6, #1
 8002ebc:	6026      	str	r6, [r4, #0]
  hdma->DmaBaseAddress->IFCR  = (DMA_FLAG_GL1 << hdma->ChannelIndex);
 8002ebe:	e9d0 670f 	ldrd	r6, r7, [r0, #60]	@ 0x3c
 8002ec2:	40bd      	lsls	r5, r7
 8002ec4:	6075      	str	r5, [r6, #4]
  hdma->Instance->CNDTR = DataLength;
 8002ec6:	6063      	str	r3, [r4, #4]
  if((hdma->Init.Direction) == DMA_MEMORY_TO_PERIPH)
 8002ec8:	6843      	ldr	r3, [r0, #4]
 8002eca:	2b10      	cmp	r3, #16
    if(NULL != hdma->XferHalfCpltCallback )
 8002ecc:	6ac3      	ldr	r3, [r0, #44]	@ 0x2c
    hdma->Instance->CPAR = DstAddress;
 8002ece:	bf0b      	itete	eq
 8002ed0:	60a2      	streq	r2, [r4, #8]
    hdma->Instance->CPAR = SrcAddress;
 8002ed2:	60a1      	strne	r1, [r4, #8]
    hdma->Instance->CMAR = SrcAddress;
 8002ed4:	60e1      	streq	r1, [r4, #12]
    hdma->Instance->CMAR = DstAddress;
 8002ed6:	60e2      	strne	r2, [r4, #12]
    if(NULL != hdma->XferHalfCpltCallback )
 8002ed8:	b14b      	cbz	r3, 8002eee <HAL_DMA_Start_IT+0x5e>
      hdma->Instance->CCR |= (DMA_IT_TC | DMA_IT_HT | DMA_IT_TE);
 8002eda:	6823      	ldr	r3, [r4, #0]
 8002edc:	f043 030e 	orr.w	r3, r3, #14
      hdma->Instance->CCR &= ~DMA_IT_HT;
 8002ee0:	6023      	str	r3, [r4, #0]
    hdma->Instance->CCR |= DMA_CCR_EN;
 8002ee2:	6823      	ldr	r3, [r4, #0]
 8002ee4:	f043 0301 	orr.w	r3, r3, #1
 8002ee8:	6023      	str	r3, [r4, #0]
  HAL_StatusTypeDef status = HAL_OK;
 8002eea:	2000      	movs	r0, #0
}
 8002eec:	bdf0      	pop	{r4, r5, r6, r7, pc}
      hdma->Instance->CCR |= (DMA_IT_TC | DMA_IT_TE);
 8002eee:	6823      	ldr	r3, [r4, #0]
 8002ef0:	f043 030a 	orr.w	r3, r3, #10
 8002ef4:	6023      	str	r3, [r4, #0]
      hdma->Instance->CCR &= ~DMA_IT_HT;
 8002ef6:	6823      	ldr	r3, [r4, #0]
 8002ef8:	f023 0304 	bic.w	r3, r3, #4
 8002efc:	e7f0      	b.n	8002ee0 <HAL_DMA_Start_IT+0x50>
    __HAL_UNLOCK(hdma);
 8002efe:	f880 4020 	strb.w	r4, [r0, #32]
  __HAL_LOCK(hdma);
 8002f02:	2002      	movs	r0, #2
 8002f04:	e7f2      	b.n	8002eec <HAL_DMA_Start_IT+0x5c>

08002f06 <HAL_DMA_Abort>:
  if(NULL == hdma)
 8002f06:	b140      	cbz	r0, 8002f1a <HAL_DMA_Abort+0x14>
  if(hdma->State != HAL_DMA_STATE_BUSY)
 8002f08:	f890 3021 	ldrb.w	r3, [r0, #33]	@ 0x21
 8002f0c:	2b02      	cmp	r3, #2
 8002f0e:	d006      	beq.n	8002f1e <HAL_DMA_Abort+0x18>
    hdma->ErrorCode = HAL_DMA_ERROR_NO_XFER;
 8002f10:	2304      	movs	r3, #4
 8002f12:	6383      	str	r3, [r0, #56]	@ 0x38
    __HAL_UNLOCK(hdma);
 8002f14:	2300      	movs	r3, #0
 8002f16:	f880 3020 	strb.w	r3, [r0, #32]
    return HAL_ERROR;
 8002f1a:	2001      	movs	r0, #1
 8002f1c:	4770      	bx	lr
    hdma->Instance->CCR &= ~(DMA_IT_TC | DMA_IT_HT | DMA_IT_TE);
 8002f1e:	6803      	ldr	r3, [r0, #0]
 8002f20:	681a      	ldr	r2, [r3, #0]
 8002f22:	f022 020e 	bic.w	r2, r2, #14
 8002f26:	601a      	str	r2, [r3, #0]
    hdma->Instance->CCR &= ~DMA_CCR_EN;
 8002f28:	681a      	ldr	r2, [r3, #0]
 8002f2a:	f022 0201 	bic.w	r2, r2, #1
 8002f2e:	601a      	str	r2, [r3, #0]
    hdma->DmaBaseAddress->IFCR = (DMA_FLAG_GL1 << hdma->ChannelIndex);
 8002f30:	e9d0 210f 	ldrd	r2, r1, [r0, #60]	@ 0x3c
 8002f34:	2301      	movs	r3, #1
 8002f36:	408b      	lsls	r3, r1
 8002f38:	6053      	str	r3, [r2, #4]
  __HAL_UNLOCK(hdma);
 8002f3a:	f44f 7380 	mov.w	r3, #256	@ 0x100
 8002f3e:	8403      	strh	r3, [r0, #32]
  return HAL_OK;
 8002f40:	2000      	movs	r0, #0
}
 8002f42:	4770      	bx	lr

08002f44 <HAL_DMA_Abort_IT>:
{
 8002f44:	b510      	push	{r4, lr}
  if(HAL_DMA_STATE_BUSY != hdma->State)
 8002f46:	f890 2021 	ldrb.w	r2, [r0, #33]	@ 0x21
 8002f4a:	2a02      	cmp	r2, #2
 8002f4c:	d003      	beq.n	8002f56 <HAL_DMA_Abort_IT+0x12>
    hdma->ErrorCode = HAL_DMA_ERROR_NO_XFER;
 8002f4e:	2204      	movs	r2, #4
 8002f50:	6382      	str	r2, [r0, #56]	@ 0x38
    status = HAL_ERROR;
 8002f52:	2001      	movs	r0, #1
}
 8002f54:	bd10      	pop	{r4, pc}
    hdma->Instance->CCR &= ~(DMA_IT_TC | DMA_IT_HT | DMA_IT_TE);
 8002f56:	6802      	ldr	r2, [r0, #0]
    if(hdma->XferAbortCallback != NULL)
 8002f58:	6b43      	ldr	r3, [r0, #52]	@ 0x34
    hdma->Instance->CCR &= ~(DMA_IT_TC | DMA_IT_HT | DMA_IT_TE);
 8002f5a:	6811      	ldr	r1, [r2, #0]
 8002f5c:	f021 010e 	bic.w	r1, r1, #14
 8002f60:	6011      	str	r1, [r2, #0]
    hdma->Instance->CCR &= ~DMA_CCR_EN;
 8002f62:	6811      	ldr	r1, [r2, #0]
 8002f64:	f021 0101 	bic.w	r1, r1, #1
 8002f68:	6011      	str	r1, [r2, #0]
    hdma->DmaBaseAddress->IFCR = DMA_FLAG_GL1 << hdma->ChannelIndex;
 8002f6a:	e9d0 140f 	ldrd	r1, r4, [r0, #60]	@ 0x3c
 8002f6e:	2201      	movs	r2, #1
 8002f70:	40a2      	lsls	r2, r4
 8002f72:	604a      	str	r2, [r1, #4]
    __HAL_UNLOCK(hdma);
 8002f74:	f44f 7280 	mov.w	r2, #256	@ 0x100
 8002f78:	8402      	strh	r2, [r0, #32]
    if(hdma->XferAbortCallback != NULL)
 8002f7a:	b103      	cbz	r3, 8002f7e <HAL_DMA_Abort_IT+0x3a>
      hdma->XferAbortCallback(hdma);
 8002f7c:	4798      	blx	r3
  HAL_StatusTypeDef status = HAL_OK;
 8002f7e:	2000      	movs	r0, #0
 8002f80:	e7e8      	b.n	8002f54 <HAL_DMA_Abort_IT+0x10>

08002f82 <HAL_DMA_IRQHandler>:
  uint32_t flag_it = hdma->DmaBaseAddress->ISR;
 8002f82:	6bc1      	ldr	r1, [r0, #60]	@ 0x3c
  if ((RESET != (flag_it & (DMA_FLAG_HT1 << hdma->ChannelIndex))) && (RESET != (source_it & DMA_IT_HT)))
 8002f84:	6c02      	ldr	r2, [r0, #64]	@ 0x40
  uint32_t source_it = hdma->Instance->CCR;
 8002f86:	6803      	ldr	r3, [r0, #0]
{
 8002f88:	b470      	push	{r4, r5, r6}
  uint32_t flag_it = hdma->DmaBaseAddress->ISR;
 8002f8a:	680e      	ldr	r6, [r1, #0]
  uint32_t source_it = hdma->Instance->CCR;
 8002f8c:	681d      	ldr	r5, [r3, #0]
  if ((RESET != (flag_it & (DMA_FLAG_HT1 << hdma->ChannelIndex))) && (RESET != (source_it & DMA_IT_HT)))
 8002f8e:	2404      	movs	r4, #4
 8002f90:	4094      	lsls	r4, r2
 8002f92:	4234      	tst	r4, r6
 8002f94:	d00e      	beq.n	8002fb4 <HAL_DMA_IRQHandler+0x32>
 8002f96:	f015 0f04 	tst.w	r5, #4
 8002f9a:	d00b      	beq.n	8002fb4 <HAL_DMA_IRQHandler+0x32>
    if((hdma->Instance->CCR & DMA_CCR_CIRC) == 0U)
 8002f9c:	681a      	ldr	r2, [r3, #0]
 8002f9e:	0692      	lsls	r2, r2, #26
      hdma->Instance->CCR &= ~DMA_IT_HT;
 8002fa0:	bf5e      	ittt	pl
 8002fa2:	681a      	ldrpl	r2, [r3, #0]
 8002fa4:	f022 0204 	bicpl.w	r2, r2, #4
 8002fa8:	601a      	strpl	r2, [r3, #0]
    if(hdma->XferHalfCpltCallback != NULL)
 8002faa:	6ac3      	ldr	r3, [r0, #44]	@ 0x2c
    hdma->DmaBaseAddress->IFCR = DMA_FLAG_HT1 << hdma->ChannelIndex;
 8002fac:	604c      	str	r4, [r1, #4]
    if(hdma->XferErrorCallback != NULL)
 8002fae:	b363      	cbz	r3, 800300a <HAL_DMA_IRQHandler+0x88>
}
 8002fb0:	bc70      	pop	{r4, r5, r6}
      hdma->XferErrorCallback(hdma);
 8002fb2:	4718      	bx	r3
  else if ((RESET != (flag_it & (DMA_FLAG_TC1 << hdma->ChannelIndex))) && (RESET != (source_it & DMA_IT_TC)))
 8002fb4:	2402      	movs	r4, #2
 8002fb6:	4094      	lsls	r4, r2
 8002fb8:	4234      	tst	r4, r6
 8002fba:	d012      	beq.n	8002fe2 <HAL_DMA_IRQHandler+0x60>
 8002fbc:	f015 0f02 	tst.w	r5, #2
 8002fc0:	d00f      	beq.n	8002fe2 <HAL_DMA_IRQHandler+0x60>
    if((hdma->Instance->CCR & DMA_CCR_CIRC) == 0U)
 8002fc2:	681a      	ldr	r2, [r3, #0]
 8002fc4:	0695      	lsls	r5, r2, #26
 8002fc6:	d406      	bmi.n	8002fd6 <HAL_DMA_IRQHandler+0x54>
      hdma->Instance->CCR &= ~(DMA_IT_TC | DMA_IT_TE);
 8002fc8:	681a      	ldr	r2, [r3, #0]
 8002fca:	f022 020a 	bic.w	r2, r2, #10
 8002fce:	601a      	str	r2, [r3, #0]
      hdma->State = HAL_DMA_STATE_READY;
 8002fd0:	2301      	movs	r3, #1
 8002fd2:	f880 3021 	strb.w	r3, [r0, #33]	@ 0x21
    __HAL_UNLOCK(hdma);
 8002fd6:	2300      	movs	r3, #0
    hdma->DmaBaseAddress->IFCR = DMA_FLAG_TC1 << hdma->ChannelIndex;
 8002fd8:	604c      	str	r4, [r1, #4]
    __HAL_UNLOCK(hdma);
 8002fda:	f880 3020 	strb.w	r3, [r0, #32]
    if(hdma->XferCpltCallback != NULL)
 8002fde:	6a83      	ldr	r3, [r0, #40]	@ 0x28
 8002fe0:	e7e5      	b.n	8002fae <HAL_DMA_IRQHandler+0x2c>
  else if (( RESET != (flag_it & (DMA_FLAG_TE1 << hdma->ChannelIndex))) && (RESET != (source_it & DMA_IT_TE)))
 8002fe2:	2408      	movs	r4, #8
 8002fe4:	4094      	lsls	r4, r2
 8002fe6:	4234      	tst	r4, r6
 8002fe8:	d00f      	beq.n	800300a <HAL_DMA_IRQHandler+0x88>
 8002fea:	072c      	lsls	r4, r5, #28
 8002fec:	d50d      	bpl.n	800300a <HAL_DMA_IRQHandler+0x88>
    hdma->Instance->CCR &= ~(DMA_IT_TC | DMA_IT_HT | DMA_IT_TE);
 8002fee:	681c      	ldr	r4, [r3, #0]
 8002ff0:	f024 040e 	bic.w	r4, r4, #14
 8002ff4:	601c      	str	r4, [r3, #0]
    hdma->DmaBaseAddress->IFCR = DMA_FLAG_GL1 << hdma->ChannelIndex;
 8002ff6:	2301      	movs	r3, #1
 8002ff8:	fa03 f202 	lsl.w	r2, r3, r2
 8002ffc:	604a      	str	r2, [r1, #4]
    hdma->ErrorCode = HAL_DMA_ERROR_TE;
 8002ffe:	6383      	str	r3, [r0, #56]	@ 0x38
    __HAL_UNLOCK(hdma);
 8003000:	f44f 7380 	mov.w	r3, #256	@ 0x100
 8003004:	8403      	strh	r3, [r0, #32]
    if(hdma->XferErrorCallback != NULL)
 8003006:	6b03      	ldr	r3, [r0, #48]	@ 0x30
 8003008:	e7d1      	b.n	8002fae <HAL_DMA_IRQHandler+0x2c>
}
 800300a:	bc70      	pop	{r4, r5, r6}
 800300c:	4770      	bx	lr

0800300e <HAL_DMA_GetState>:
}
 800300e:	f890 0021 	ldrb.w	r0, [r0, #33]	@ 0x21
 8003012:	4770      	bx	lr

08003014 <HAL_GPIO_Init>:
  * @param  GPIO_Init pointer to a GPIO_InitTypeDef structure that contains
  *         the configuration information for the specified GPIO peripheral.
  * @retval None
  */
void HAL_GPIO_Init(GPIO_TypeDef  *GPIOx, GPIO_InitTypeDef *GPIO_Init)
{
 8003014:	e92d 4ff7 	stmdb	sp!, {r0, r1, r2, r4, r5, r6, r7, r8, r9, sl, fp, lr}
      /*--------------------- EXTI Mode Configuration ------------------------*/
      /* Configure the External Interrupt or event for the current IO */
      if((GPIO_Init->Mode & EXTI_MODE) != 0x00u)
      {
        /* Enable SYSCFG Clock */
        __HAL_RCC_SYSCFG_CLK_ENABLE();
 8003018:	f8df 9170 	ldr.w	r9, [pc, #368]	@ 800318c <HAL_GPIO_Init+0x178>
        temp &= ~(0x0FuL << (4u * (position & 0x03u)));
        temp |= (GPIO_GET_INDEX(GPIOx) << (4u * (position & 0x03u)));
        SYSCFG->EXTICR[position >> 2u] = temp;

        /* Clear Rising Falling edge configuration */
        temp = EXTI->RTSR;
 800301c:	4c59      	ldr	r4, [pc, #356]	@ (8003184 <HAL_GPIO_Init+0x170>)
  uint32_t position = 0x00u;
 800301e:	2300      	movs	r3, #0
  while (((GPIO_Init->Pin) >> position) != 0x00u)
 8003020:	680a      	ldr	r2, [r1, #0]
 8003022:	fa32 f503 	lsrs.w	r5, r2, r3
 8003026:	d102      	bne.n	800302e <HAL_GPIO_Init+0x1a>
      }
    }

    position++;
  }
}
 8003028:	b003      	add	sp, #12
 800302a:	e8bd 8ff0 	ldmia.w	sp!, {r4, r5, r6, r7, r8, r9, sl, fp, pc}
    iocurrent = (GPIO_Init->Pin) & (1uL << position);
 800302e:	2501      	movs	r5, #1
 8003030:	fa05 f803 	lsl.w	r8, r5, r3
    if (iocurrent != 0x00u)
 8003034:	ea18 0202 	ands.w	r2, r8, r2
 8003038:	f000 809c 	beq.w	8003174 <HAL_GPIO_Init+0x160>
      if(((GPIO_Init->Mode & GPIO_MODE) == MODE_OUTPUT) || ((GPIO_Init->Mode & GPIO_MODE) == MODE_AF))
 800303c:	684e      	ldr	r6, [r1, #4]
        temp &= ~(GPIO_OSPEEDER_OSPEEDR0 << (position * 2u));
 800303e:	2703      	movs	r7, #3
      if(((GPIO_Init->Mode & GPIO_MODE) == MODE_OUTPUT) || ((GPIO_Init->Mode & GPIO_MODE) == MODE_AF))
 8003040:	f006 0503 	and.w	r5, r6, #3
 8003044:	ea4f 0e43 	mov.w	lr, r3, lsl #1
        temp &= ~(GPIO_OSPEEDER_OSPEEDR0 << (position * 2u));
 8003048:	fa07 fc0e 	lsl.w	ip, r7, lr
      if(((GPIO_Init->Mode & GPIO_MODE) == MODE_OUTPUT) || ((GPIO_Init->Mode & GPIO_MODE) == MODE_AF))
 800304c:	1e6f      	subs	r7, r5, #1
 800304e:	2f01      	cmp	r7, #1
        temp &= ~(GPIO_OSPEEDER_OSPEEDR0 << (position * 2u));
 8003050:	ea6f 0c0c 	mvn.w	ip, ip
      if(((GPIO_Init->Mode & GPIO_MODE) == MODE_OUTPUT) || ((GPIO_Init->Mode & GPIO_MODE) == MODE_AF))
 8003054:	d834      	bhi.n	80030c0 <HAL_GPIO_Init+0xac>
        temp = GPIOx->OSPEEDR;
 8003056:	6887      	ldr	r7, [r0, #8]
        temp &= ~(GPIO_OSPEEDER_OSPEEDR0 << (position * 2u));
 8003058:	ea07 0a0c 	and.w	sl, r7, ip
        temp |= (GPIO_Init->Speed << (position * 2u));
 800305c:	68cf      	ldr	r7, [r1, #12]
 800305e:	fa07 f70e 	lsl.w	r7, r7, lr
 8003062:	ea47 070a 	orr.w	r7, r7, sl
        GPIOx->OSPEEDR = temp;
 8003066:	6087      	str	r7, [r0, #8]
        temp = GPIOx->OTYPER;
 8003068:	6847      	ldr	r7, [r0, #4]
        temp &= ~(GPIO_OTYPER_OT_0 << position) ;
 800306a:	ea27 0808 	bic.w	r8, r7, r8
        temp |= (((GPIO_Init->Mode & OUTPUT_TYPE) >> OUTPUT_TYPE_Pos) << position);
 800306e:	f3c6 1700 	ubfx	r7, r6, #4, #1
 8003072:	409f      	lsls	r7, r3
 8003074:	ea47 0708 	orr.w	r7, r7, r8
        GPIOx->OTYPER = temp;
 8003078:	6047      	str	r7, [r0, #4]
        temp = GPIOx->PUPDR;
 800307a:	68c7      	ldr	r7, [r0, #12]
        temp &= ~(GPIO_PUPDR_PUPDR0 << (position * 2u));
 800307c:	ea07 080c 	and.w	r8, r7, ip
        temp |= ((GPIO_Init->Pull) << (position * 2u));
 8003080:	688f      	ldr	r7, [r1, #8]
 8003082:	fa07 f70e 	lsl.w	r7, r7, lr
 8003086:	ea47 0708 	orr.w	r7, r7, r8
      if((GPIO_Init->Mode & GPIO_MODE) == MODE_AF)
 800308a:	2d02      	cmp	r5, #2
        GPIOx->PUPDR = temp;
 800308c:	60c7      	str	r7, [r0, #12]
      if((GPIO_Init->Mode & GPIO_MODE) == MODE_AF)
 800308e:	d119      	bne.n	80030c4 <HAL_GPIO_Init+0xb0>
        temp = GPIOx->AFR[position >> 3u];
 8003090:	ea4f 08d3 	mov.w	r8, r3, lsr #3
 8003094:	eb00 0888 	add.w	r8, r0, r8, lsl #2
        temp &= ~(0xFu << ((position & 0x07u) * 4u));
 8003098:	f003 0a07 	and.w	sl, r3, #7
        temp = GPIOx->AFR[position >> 3u];
 800309c:	f8d8 7020 	ldr.w	r7, [r8, #32]
        temp &= ~(0xFu << ((position & 0x07u) * 4u));
 80030a0:	ea4f 0a8a 	mov.w	sl, sl, lsl #2
 80030a4:	f04f 0b0f 	mov.w	fp, #15
 80030a8:	fa0b fb0a 	lsl.w	fp, fp, sl
 80030ac:	ea27 0b0b 	bic.w	fp, r7, fp
        temp |= ((GPIO_Init->Alternate) << ((position & 0x07u) * 4u));
 80030b0:	690f      	ldr	r7, [r1, #16]
 80030b2:	fa07 f70a 	lsl.w	r7, r7, sl
 80030b6:	ea47 070b 	orr.w	r7, r7, fp
        GPIOx->AFR[position >> 3u] = temp;
 80030ba:	f8c8 7020 	str.w	r7, [r8, #32]
 80030be:	e001      	b.n	80030c4 <HAL_GPIO_Init+0xb0>
      if((GPIO_Init->Mode & GPIO_MODE) != MODE_ANALOG)
 80030c0:	2d03      	cmp	r5, #3
 80030c2:	d1da      	bne.n	800307a <HAL_GPIO_Init+0x66>
      temp = GPIOx->MODER;
 80030c4:	6807      	ldr	r7, [r0, #0]
      temp |= ((GPIO_Init->Mode & GPIO_MODE) << (position * 2u));
 80030c6:	fa05 f50e 	lsl.w	r5, r5, lr
      temp &= ~(GPIO_MODER_MODER0 << (position * 2u));
 80030ca:	ea07 070c 	and.w	r7, r7, ip
      temp |= ((GPIO_Init->Mode & GPIO_MODE) << (position * 2u));
 80030ce:	433d      	orrs	r5, r7
      if((GPIO_Init->Mode & EXTI_MODE) != 0x00u)
 80030d0:	f416 3f40 	tst.w	r6, #196608	@ 0x30000
      GPIOx->MODER = temp;
 80030d4:	6005      	str	r5, [r0, #0]
      if((GPIO_Init->Mode & EXTI_MODE) != 0x00u)
 80030d6:	d04d      	beq.n	8003174 <HAL_GPIO_Init+0x160>
        __HAL_RCC_SYSCFG_CLK_ENABLE();
 80030d8:	f8d9 5018 	ldr.w	r5, [r9, #24]
 80030dc:	f045 0501 	orr.w	r5, r5, #1
 80030e0:	f8c9 5018 	str.w	r5, [r9, #24]
 80030e4:	f8d9 5018 	ldr.w	r5, [r9, #24]
 80030e8:	f023 0703 	bic.w	r7, r3, #3
 80030ec:	f107 4780 	add.w	r7, r7, #1073741824	@ 0x40000000
 80030f0:	f005 0501 	and.w	r5, r5, #1
 80030f4:	f507 3780 	add.w	r7, r7, #65536	@ 0x10000
 80030f8:	9501      	str	r5, [sp, #4]
        temp &= ~(0x0FuL << (4u * (position & 0x03u)));
 80030fa:	f003 0c03 	and.w	ip, r3, #3
        __HAL_RCC_SYSCFG_CLK_ENABLE();
 80030fe:	9d01      	ldr	r5, [sp, #4]
        temp = SYSCFG->EXTICR[position >> 2u];
 8003100:	68bd      	ldr	r5, [r7, #8]
        temp &= ~(0x0FuL << (4u * (position & 0x03u)));
 8003102:	ea4f 0c8c 	mov.w	ip, ip, lsl #2
 8003106:	f04f 0e0f 	mov.w	lr, #15
 800310a:	fa0e fe0c 	lsl.w	lr, lr, ip
        temp |= (GPIO_GET_INDEX(GPIOx) << (4u * (position & 0x03u)));
 800310e:	f1b0 4f90 	cmp.w	r0, #1207959552	@ 0x48000000
        temp &= ~(0x0FuL << (4u * (position & 0x03u)));
 8003112:	ea25 0e0e 	bic.w	lr, r5, lr
        temp |= (GPIO_GET_INDEX(GPIOx) << (4u * (position & 0x03u)));
 8003116:	d02f      	beq.n	8003178 <HAL_GPIO_Init+0x164>
 8003118:	4d1b      	ldr	r5, [pc, #108]	@ (8003188 <HAL_GPIO_Init+0x174>)
 800311a:	42a8      	cmp	r0, r5
 800311c:	d02e      	beq.n	800317c <HAL_GPIO_Init+0x168>
 800311e:	f505 6580 	add.w	r5, r5, #1024	@ 0x400
 8003122:	42a8      	cmp	r0, r5
 8003124:	d02c      	beq.n	8003180 <HAL_GPIO_Init+0x16c>
 8003126:	f505 6580 	add.w	r5, r5, #1024	@ 0x400
 800312a:	42a8      	cmp	r0, r5
 800312c:	bf14      	ite	ne
 800312e:	2505      	movne	r5, #5
 8003130:	2503      	moveq	r5, #3
 8003132:	fa05 f50c 	lsl.w	r5, r5, ip
 8003136:	ea45 050e 	orr.w	r5, r5, lr
        SYSCFG->EXTICR[position >> 2u] = temp;
 800313a:	60bd      	str	r5, [r7, #8]
        temp = EXTI->RTSR;
 800313c:	68a5      	ldr	r5, [r4, #8]
        temp &= ~(iocurrent);
 800313e:	43d7      	mvns	r7, r2
        if((GPIO_Init->Mode & TRIGGER_RISING) != 0x00u)
 8003140:	f416 1f80 	tst.w	r6, #1048576	@ 0x100000
        temp &= ~(iocurrent);
 8003144:	bf0c      	ite	eq
 8003146:	403d      	andeq	r5, r7
          temp |= iocurrent;
 8003148:	4315      	orrne	r5, r2
        EXTI->RTSR = temp;
 800314a:	60a5      	str	r5, [r4, #8]
        temp = EXTI->FTSR;
 800314c:	68e5      	ldr	r5, [r4, #12]
        if((GPIO_Init->Mode & TRIGGER_FALLING) != 0x00u)
 800314e:	f416 1f00 	tst.w	r6, #2097152	@ 0x200000
        temp &= ~(iocurrent);
 8003152:	bf0c      	ite	eq
 8003154:	403d      	andeq	r5, r7
          temp |= iocurrent;
 8003156:	4315      	orrne	r5, r2
        EXTI->FTSR = temp;
 8003158:	60e5      	str	r5, [r4, #12]
        temp = EXTI->EMR;
 800315a:	6865      	ldr	r5, [r4, #4]
        if((GPIO_Init->Mode & EXTI_EVT) != 0x00u)
 800315c:	f416 3f00 	tst.w	r6, #131072	@ 0x20000
        temp &= ~(iocurrent);
 8003160:	bf0c      	ite	eq
 8003162:	403d      	andeq	r5, r7
          temp |= iocurrent;
 8003164:	4315      	orrne	r5, r2
        EXTI->EMR = temp;
 8003166:	6065      	str	r5, [r4, #4]
        temp = EXTI->IMR;
 8003168:	6825      	ldr	r5, [r4, #0]
        if((GPIO_Init->Mode & EXTI_IT) != 0x00u)
 800316a:	03f6      	lsls	r6, r6, #15
        temp &= ~(iocurrent);
 800316c:	bf54      	ite	pl
 800316e:	403d      	andpl	r5, r7
          temp |= iocurrent;
 8003170:	4315      	orrmi	r5, r2
        EXTI->IMR = temp;
 8003172:	6025      	str	r5, [r4, #0]
    position++;
 8003174:	3301      	adds	r3, #1
 8003176:	e753      	b.n	8003020 <HAL_GPIO_Init+0xc>
        temp |= (GPIO_GET_INDEX(GPIOx) << (4u * (position & 0x03u)));
 8003178:	2500      	movs	r5, #0
 800317a:	e7da      	b.n	8003132 <HAL_GPIO_Init+0x11e>
 800317c:	2501      	movs	r5, #1
 800317e:	e7d8      	b.n	8003132 <HAL_GPIO_Init+0x11e>
 8003180:	2502      	movs	r5, #2
 8003182:	e7d6      	b.n	8003132 <HAL_GPIO_Init+0x11e>
 8003184:	40010400 	.word	0x40010400
 8003188:	48000400 	.word	0x48000400
 800318c:	40021000 	.word	0x40021000

08003190 <I2C_Flush_TXDR>:
  */
static void I2C_Flush_TXDR(I2C_HandleTypeDef *hi2c)
{
  /* If a pending TXIS flag is set */
  /* Write a dummy data in TXDR to clear it */
  if (__HAL_I2C_GET_FLAG(hi2c, I2C_FLAG_TXIS) != RESET)
 8003190:	6803      	ldr	r3, [r0, #0]
 8003192:	699a      	ldr	r2, [r3, #24]
 8003194:	0791      	lsls	r1, r2, #30
  {
    hi2c->Instance->TXDR = 0x00U;
 8003196:	bf44      	itt	mi
 8003198:	2200      	movmi	r2, #0
 800319a:	629a      	strmi	r2, [r3, #40]	@ 0x28
  }

  /* Flush TX register if not empty */
  if (__HAL_I2C_GET_FLAG(hi2c, I2C_FLAG_TXE) == RESET)
 800319c:	699a      	ldr	r2, [r3, #24]
 800319e:	07d2      	lsls	r2, r2, #31
  {
    __HAL_I2C_CLEAR_FLAG(hi2c, I2C_FLAG_TXE);
 80031a0:	bf5e      	ittt	pl
 80031a2:	699a      	ldrpl	r2, [r3, #24]
 80031a4:	f042 0201 	orrpl.w	r2, r2, #1
 80031a8:	619a      	strpl	r2, [r3, #24]
  }
}
 80031aa:	4770      	bx	lr

080031ac <I2C_TransferConfig>:
  *     @arg @ref I2C_GENERATE_START_WRITE Generate Restart for write request.
  * @retval None
  */
static void I2C_TransferConfig(I2C_HandleTypeDef *hi2c, uint16_t DevAddress, uint8_t Size, uint32_t Mode,
                               uint32_t Request)
{
 80031ac:	b530      	push	{r4, r5, lr}
 80031ae:	9d03      	ldr	r5, [sp, #12]
  uint32_t tmp = ((uint32_t)(((uint32_t)DevAddress & I2C_CR2_SADD) | \
                             (((uint32_t)Size << I2C_CR2_NBYTES_Pos) & I2C_CR2_NBYTES) | \
                             (uint32_t)Mode | (uint32_t)Request) & (~0x80000000U));

  /* update CR2 register */
  MODIFY_REG(hi2c->Instance->CR2, \
 80031b0:	6804      	ldr	r4, [r0, #0]
  uint32_t tmp = ((uint32_t)(((uint32_t)DevAddress & I2C_CR2_SADD) | \
 80031b2:	432b      	orrs	r3, r5
 80031b4:	ea43 4302 	orr.w	r3, r3, r2, lsl #16
  MODIFY_REG(hi2c->Instance->CR2, \
 80031b8:	4a06      	ldr	r2, [pc, #24]	@ (80031d4 <I2C_TransferConfig+0x28>)
 80031ba:	6860      	ldr	r0, [r4, #4]
  uint32_t tmp = ((uint32_t)(((uint32_t)DevAddress & I2C_CR2_SADD) | \
 80031bc:	f3c1 0109 	ubfx	r1, r1, #0, #10
 80031c0:	430b      	orrs	r3, r1
  MODIFY_REG(hi2c->Instance->CR2, \
 80031c2:	ea42 5255 	orr.w	r2, r2, r5, lsr #21
  uint32_t tmp = ((uint32_t)(((uint32_t)DevAddress & I2C_CR2_SADD) | \
 80031c6:	f023 4300 	bic.w	r3, r3, #2147483648	@ 0x80000000
  MODIFY_REG(hi2c->Instance->CR2, \
 80031ca:	ea20 0002 	bic.w	r0, r0, r2
 80031ce:	4303      	orrs	r3, r0
 80031d0:	6063      	str	r3, [r4, #4]
             ((I2C_CR2_SADD | I2C_CR2_NBYTES | I2C_CR2_RELOAD | I2C_CR2_AUTOEND | \
               (I2C_CR2_RD_WRN & (uint32_t)(Request >> (31U - I2C_CR2_RD_WRN_Pos))) | \
               I2C_CR2_START | I2C_CR2_STOP)), tmp);
}
 80031d2:	bd30      	pop	{r4, r5, pc}
 80031d4:	03ff63ff 	.word	0x03ff63ff

080031d8 <I2C_Enable_IRQ>:
  */
static void I2C_Enable_IRQ(I2C_HandleTypeDef *hi2c, uint16_t InterruptRequest)
{
  uint32_t tmpisr = 0U;

  if ((hi2c->XferISR != I2C_Master_ISR_DMA) && \
 80031d8:	4b20      	ldr	r3, [pc, #128]	@ (800325c <I2C_Enable_IRQ+0x84>)
 80031da:	6b42      	ldr	r2, [r0, #52]	@ 0x34
 80031dc:	429a      	cmp	r2, r3
{
 80031de:	b570      	push	{r4, r5, r6, lr}
 80031e0:	f001 0301 	and.w	r3, r1, #1
      (hi2c->XferISR != I2C_Slave_ISR_DMA) && \
      (hi2c->XferISR != I2C_Mem_ISR_DMA))
  {
    if ((InterruptRequest & I2C_XFER_LISTEN_IT) == I2C_XFER_LISTEN_IT)
 80031e4:	b20d      	sxth	r5, r1
 80031e6:	f001 0402 	and.w	r4, r1, #2
  if ((hi2c->XferISR != I2C_Master_ISR_DMA) && \
 80031ea:	d01f      	beq.n	800322c <I2C_Enable_IRQ+0x54>
 80031ec:	4e1c      	ldr	r6, [pc, #112]	@ (8003260 <I2C_Enable_IRQ+0x88>)
 80031ee:	42b2      	cmp	r2, r6
 80031f0:	d01c      	beq.n	800322c <I2C_Enable_IRQ+0x54>
      (hi2c->XferISR != I2C_Slave_ISR_DMA) && \
 80031f2:	4e1c      	ldr	r6, [pc, #112]	@ (8003264 <I2C_Enable_IRQ+0x8c>)
 80031f4:	42b2      	cmp	r2, r6
 80031f6:	d019      	beq.n	800322c <I2C_Enable_IRQ+0x54>
  uint32_t tmpisr = 0U;
 80031f8:	2d00      	cmp	r5, #0
    {
      /* Enable ERR, STOP, NACK and ADDR interrupts */
      tmpisr |= I2C_IT_ADDRI | I2C_IT_STOPI | I2C_IT_NACKI | I2C_IT_ERRI;
    }

    if ((InterruptRequest & I2C_XFER_TX_IT) == I2C_XFER_TX_IT)
 80031fa:	f1c3 0300 	rsb	r3, r3, #0
  uint32_t tmpisr = 0U;
 80031fe:	bfb4      	ite	lt
 8003200:	22b8      	movlt	r2, #184	@ 0xb8
 8003202:	2200      	movge	r2, #0
    if ((InterruptRequest & I2C_XFER_TX_IT) == I2C_XFER_TX_IT)
 8003204:	f003 03f2 	and.w	r3, r3, #242	@ 0xf2
 8003208:	4313      	orrs	r3, r2
    {
      /* Enable ERR, TC, STOP, NACK and TXI interrupts */
      tmpisr |= I2C_IT_ERRI | I2C_IT_TCI | I2C_IT_STOPI | I2C_IT_NACKI | I2C_IT_TXI;
    }

    if ((InterruptRequest & I2C_XFER_RX_IT) == I2C_XFER_RX_IT)
 800320a:	b10c      	cbz	r4, 8003210 <I2C_Enable_IRQ+0x38>
    {
      /* Enable ERR, TC, STOP, NACK and RXI interrupts */
      tmpisr |= I2C_IT_ERRI | I2C_IT_TCI | I2C_IT_STOPI | I2C_IT_NACKI | I2C_IT_RXI;
 800320c:	f043 03f4 	orr.w	r3, r3, #244	@ 0xf4
    }

    if (InterruptRequest == I2C_XFER_ERROR_IT)
 8003210:	2910      	cmp	r1, #16
 8003212:	d102      	bne.n	800321a <I2C_Enable_IRQ+0x42>
    }

    if (InterruptRequest == I2C_XFER_ERROR_IT)
    {
      /* Enable ERR and NACK interrupts */
      tmpisr |= I2C_IT_ERRI | I2C_IT_NACKI;
 8003214:	f043 0390 	orr.w	r3, r3, #144	@ 0x90
    {
      /* Enable STOP interrupts */
      tmpisr |= (I2C_IT_STOPI | I2C_IT_TCI);
    }

    if (InterruptRequest == I2C_XFER_RELOAD_IT)
 8003218:	e003      	b.n	8003222 <I2C_Enable_IRQ+0x4a>
    if (InterruptRequest == I2C_XFER_CPLT_IT)
 800321a:	2920      	cmp	r1, #32
 800321c:	d101      	bne.n	8003222 <I2C_Enable_IRQ+0x4a>
      tmpisr |= I2C_IT_STOPI;
 800321e:	f043 0320 	orr.w	r3, r3, #32
  }

  /* Enable interrupts only at the end */
  /* to avoid the risk of I2C interrupt handle execution before */
  /* all interrupts requested done */
  __HAL_I2C_ENABLE_IT(hi2c, tmpisr);
 8003222:	6801      	ldr	r1, [r0, #0]
 8003224:	680a      	ldr	r2, [r1, #0]
 8003226:	4313      	orrs	r3, r2
 8003228:	600b      	str	r3, [r1, #0]
}
 800322a:	bd70      	pop	{r4, r5, r6, pc}
  uint32_t tmpisr = 0U;
 800322c:	2d00      	cmp	r5, #0
    if ((InterruptRequest & I2C_XFER_TX_IT) == I2C_XFER_TX_IT)
 800322e:	f1c3 0300 	rsb	r3, r3, #0
  uint32_t tmpisr = 0U;
 8003232:	bfb4      	ite	lt
 8003234:	22b8      	movlt	r2, #184	@ 0xb8
 8003236:	2200      	movge	r2, #0
    if ((InterruptRequest & I2C_XFER_TX_IT) == I2C_XFER_TX_IT)
 8003238:	f003 03f2 	and.w	r3, r3, #242	@ 0xf2
 800323c:	4313      	orrs	r3, r2
    if ((InterruptRequest & I2C_XFER_RX_IT) == I2C_XFER_RX_IT)
 800323e:	b10c      	cbz	r4, 8003244 <I2C_Enable_IRQ+0x6c>
      tmpisr |= I2C_IT_ERRI | I2C_IT_TCI | I2C_IT_STOPI | I2C_IT_NACKI | I2C_IT_RXI;
 8003240:	f043 03f4 	orr.w	r3, r3, #244	@ 0xf4
    if (InterruptRequest == I2C_XFER_ERROR_IT)
 8003244:	2910      	cmp	r1, #16
 8003246:	d0e5      	beq.n	8003214 <I2C_Enable_IRQ+0x3c>
    if (InterruptRequest == I2C_XFER_CPLT_IT)
 8003248:	2920      	cmp	r1, #32
 800324a:	d102      	bne.n	8003252 <I2C_Enable_IRQ+0x7a>
      tmpisr |= (I2C_IT_STOPI | I2C_IT_TCI);
 800324c:	f043 0360 	orr.w	r3, r3, #96	@ 0x60
    if (InterruptRequest == I2C_XFER_RELOAD_IT)
 8003250:	e7e7      	b.n	8003222 <I2C_Enable_IRQ+0x4a>
 8003252:	2940      	cmp	r1, #64	@ 0x40
      tmpisr |= I2C_IT_TCI;
 8003254:	bf08      	it	eq
 8003256:	f043 0340 	orreq.w	r3, r3, #64	@ 0x40
 800325a:	e7e2      	b.n	8003222 <I2C_Enable_IRQ+0x4a>
 800325c:	08004249 	.word	0x08004249
 8003260:	080045dd 	.word	0x080045dd
 8003264:	08004109 	.word	0x08004109

08003268 <I2C_Disable_IRQ>:
  */
static void I2C_Disable_IRQ(I2C_HandleTypeDef *hi2c, uint16_t InterruptRequest)
{
  uint32_t tmpisr = 0U;

  if ((InterruptRequest & I2C_XFER_TX_IT) == I2C_XFER_TX_IT)
 8003268:	f011 0301 	ands.w	r3, r1, #1
 800326c:	d007      	beq.n	800327e <I2C_Disable_IRQ+0x16>
  {
    /* Disable TC and TXI interrupts */
    tmpisr |= I2C_IT_TCI | I2C_IT_TXI;

    if (((uint32_t)hi2c->State & (uint32_t)HAL_I2C_STATE_LISTEN) != (uint32_t)HAL_I2C_STATE_LISTEN)
 800326e:	f890 3041 	ldrb.w	r3, [r0, #65]	@ 0x41
 8003272:	f003 0328 	and.w	r3, r3, #40	@ 0x28
    tmpisr |= I2C_IT_TCI | I2C_IT_TXI;
 8003276:	2b28      	cmp	r3, #40	@ 0x28
 8003278:	bf14      	ite	ne
 800327a:	23f2      	movne	r3, #242	@ 0xf2
 800327c:	2342      	moveq	r3, #66	@ 0x42
      /* Disable NACK and STOP interrupts */
      tmpisr |= I2C_IT_STOPI | I2C_IT_NACKI | I2C_IT_ERRI;
    }
  }

  if ((InterruptRequest & I2C_XFER_RX_IT) == I2C_XFER_RX_IT)
 800327e:	078a      	lsls	r2, r1, #30
 8003280:	d509      	bpl.n	8003296 <I2C_Disable_IRQ+0x2e>
  {
    /* Disable TC and RXI interrupts */
    tmpisr |= I2C_IT_TCI | I2C_IT_RXI;

    if (((uint32_t)hi2c->State & (uint32_t)HAL_I2C_STATE_LISTEN) != (uint32_t)HAL_I2C_STATE_LISTEN)
 8003282:	f890 2041 	ldrb.w	r2, [r0, #65]	@ 0x41
 8003286:	f002 0228 	and.w	r2, r2, #40	@ 0x28
 800328a:	2a28      	cmp	r2, #40	@ 0x28
    tmpisr |= I2C_IT_TCI | I2C_IT_RXI;
 800328c:	bf0c      	ite	eq
 800328e:	f043 0344 	orreq.w	r3, r3, #68	@ 0x44
    {
      /* Disable NACK and STOP interrupts */
      tmpisr |= I2C_IT_STOPI | I2C_IT_NACKI | I2C_IT_ERRI;
 8003292:	f043 03f4 	orrne.w	r3, r3, #244	@ 0xf4
    }
  }

  if ((InterruptRequest & I2C_XFER_LISTEN_IT) == I2C_XFER_LISTEN_IT)
 8003296:	040a      	lsls	r2, r1, #16
  }

  /* Disable interrupts only at the end */
  /* to avoid a breaking situation like at "t" time */
  /* all disable interrupts request are not done */
  __HAL_I2C_DISABLE_IT(hi2c, tmpisr);
 8003298:	6801      	ldr	r1, [r0, #0]
 800329a:	680a      	ldr	r2, [r1, #0]
    tmpisr |= I2C_IT_ADDRI | I2C_IT_STOPI | I2C_IT_NACKI | I2C_IT_ERRI;
 800329c:	bf48      	it	mi
 800329e:	f043 03b8 	orrmi.w	r3, r3, #184	@ 0xb8
  __HAL_I2C_DISABLE_IT(hi2c, tmpisr);
 80032a2:	ea22 0303 	bic.w	r3, r2, r3
 80032a6:	600b      	str	r3, [r1, #0]
}
 80032a8:	4770      	bx	lr

080032aa <I2C_IsErrorOccurred>:
  uint32_t itflag   = hi2c->Instance->ISR;
 80032aa:	6803      	ldr	r3, [r0, #0]
{
 80032ac:	e92d 41f0 	stmdb	sp!, {r4, r5, r6, r7, r8, lr}
  uint32_t itflag   = hi2c->Instance->ISR;
 80032b0:	699c      	ldr	r4, [r3, #24]
  if (HAL_IS_BIT_SET(itflag, I2C_FLAG_AF))
 80032b2:	f014 0410 	ands.w	r4, r4, #16
{
 80032b6:	4605      	mov	r5, r0
 80032b8:	460f      	mov	r7, r1
 80032ba:	4616      	mov	r6, r2
  if (HAL_IS_BIT_SET(itflag, I2C_FLAG_AF))
 80032bc:	d06f      	beq.n	800339e <I2C_IsErrorOccurred+0xf4>
    __HAL_I2C_CLEAR_FLAG(hi2c, I2C_FLAG_AF);
 80032be:	2210      	movs	r2, #16
  uint32_t error_code = 0;
 80032c0:	2400      	movs	r4, #0
    __HAL_I2C_CLEAR_FLAG(hi2c, I2C_FLAG_AF);
 80032c2:	61da      	str	r2, [r3, #28]
  HAL_StatusTypeDef status = HAL_OK;
 80032c4:	46a0      	mov	r8, r4
    while ((__HAL_I2C_GET_FLAG(hi2c, I2C_FLAG_STOPF) == RESET) && (status == HAL_OK))
 80032c6:	682b      	ldr	r3, [r5, #0]
 80032c8:	699a      	ldr	r2, [r3, #24]
 80032ca:	0690      	lsls	r0, r2, #26
 80032cc:	d461      	bmi.n	8003392 <I2C_IsErrorOccurred+0xe8>
 80032ce:	f1b8 0f00 	cmp.w	r8, #0
 80032d2:	d035      	beq.n	8003340 <I2C_IsErrorOccurred+0x96>
    error_code |= HAL_I2C_ERROR_AF;
 80032d4:	f044 0404 	orr.w	r4, r4, #4
    status = HAL_ERROR;
 80032d8:	2001      	movs	r0, #1
  itflag = hi2c->Instance->ISR;
 80032da:	682e      	ldr	r6, [r5, #0]
 80032dc:	69b3      	ldr	r3, [r6, #24]
  if (HAL_IS_BIT_SET(itflag, I2C_FLAG_BERR))
 80032de:	05d9      	lsls	r1, r3, #23
    __HAL_I2C_CLEAR_FLAG(hi2c, I2C_FLAG_BERR);
 80032e0:	bf41      	itttt	mi
 80032e2:	f44f 7280 	movmi.w	r2, #256	@ 0x100
 80032e6:	61f2      	strmi	r2, [r6, #28]
    error_code |= HAL_I2C_ERROR_BERR;
 80032e8:	f044 0401 	orrmi.w	r4, r4, #1
    status = HAL_ERROR;
 80032ec:	2001      	movmi	r0, #1
  if (HAL_IS_BIT_SET(itflag, I2C_FLAG_OVR))
 80032ee:	055a      	lsls	r2, r3, #21
    __HAL_I2C_CLEAR_FLAG(hi2c, I2C_FLAG_OVR);
 80032f0:	bf41      	itttt	mi
 80032f2:	f44f 6280 	movmi.w	r2, #1024	@ 0x400
    error_code |= HAL_I2C_ERROR_OVR;
 80032f6:	f044 0408 	orrmi.w	r4, r4, #8
    __HAL_I2C_CLEAR_FLAG(hi2c, I2C_FLAG_OVR);
 80032fa:	61f2      	strmi	r2, [r6, #28]
    status = HAL_ERROR;
 80032fc:	2001      	movmi	r0, #1
  if (HAL_IS_BIT_SET(itflag, I2C_FLAG_ARLO))
 80032fe:	059b      	lsls	r3, r3, #22
 8003300:	d54f      	bpl.n	80033a2 <I2C_IsErrorOccurred+0xf8>
    __HAL_I2C_CLEAR_FLAG(hi2c, I2C_FLAG_ARLO);
 8003302:	f44f 7300 	mov.w	r3, #512	@ 0x200
    error_code |= HAL_I2C_ERROR_ARLO;
 8003306:	f044 0402 	orr.w	r4, r4, #2
    __HAL_I2C_CLEAR_FLAG(hi2c, I2C_FLAG_ARLO);
 800330a:	61f3      	str	r3, [r6, #28]
    I2C_Flush_TXDR(hi2c);
 800330c:	4628      	mov	r0, r5
 800330e:	f7ff ff3f 	bl	8003190 <I2C_Flush_TXDR>
    I2C_RESET_CR2(hi2c);
 8003312:	6873      	ldr	r3, [r6, #4]
 8003314:	f023 73ff 	bic.w	r3, r3, #33423360	@ 0x1fe0000
 8003318:	f423 338b 	bic.w	r3, r3, #71168	@ 0x11600
 800331c:	f423 73ff 	bic.w	r3, r3, #510	@ 0x1fe
 8003320:	f023 0301 	bic.w	r3, r3, #1
 8003324:	6073      	str	r3, [r6, #4]
    hi2c->ErrorCode |= error_code;
 8003326:	6c6b      	ldr	r3, [r5, #68]	@ 0x44
 8003328:	4323      	orrs	r3, r4
 800332a:	646b      	str	r3, [r5, #68]	@ 0x44
    hi2c->State = HAL_I2C_STATE_READY;
 800332c:	2320      	movs	r3, #32
 800332e:	f885 3041 	strb.w	r3, [r5, #65]	@ 0x41
    hi2c->Mode = HAL_I2C_MODE_NONE;
 8003332:	2300      	movs	r3, #0
 8003334:	f885 3042 	strb.w	r3, [r5, #66]	@ 0x42
    __HAL_UNLOCK(hi2c);
 8003338:	f885 3040 	strb.w	r3, [r5, #64]	@ 0x40
 800333c:	2001      	movs	r0, #1
 800333e:	e032      	b.n	80033a6 <I2C_IsErrorOccurred+0xfc>
      if (Timeout != HAL_MAX_DELAY)
 8003340:	1c7a      	adds	r2, r7, #1
 8003342:	d0c1      	beq.n	80032c8 <I2C_IsErrorOccurred+0x1e>
        if (((HAL_GetTick() - tickstart) > Timeout) || (Timeout == 0U))
 8003344:	f7ff fc2c 	bl	8002ba0 <HAL_GetTick>
 8003348:	1b80      	subs	r0, r0, r6
 800334a:	42b8      	cmp	r0, r7
 800334c:	d801      	bhi.n	8003352 <I2C_IsErrorOccurred+0xa8>
 800334e:	2f00      	cmp	r7, #0
 8003350:	d1b9      	bne.n	80032c6 <I2C_IsErrorOccurred+0x1c>
          tmp1 = (uint32_t)(hi2c->Instance->CR2 & I2C_CR2_STOP);
 8003352:	682b      	ldr	r3, [r5, #0]
 8003354:	6859      	ldr	r1, [r3, #4]
          tmp2 = hi2c->Mode;
 8003356:	f895 2042 	ldrb.w	r2, [r5, #66]	@ 0x42
          if ((__HAL_I2C_GET_FLAG(hi2c, I2C_FLAG_BUSY) != RESET) && \
 800335a:	6998      	ldr	r0, [r3, #24]
 800335c:	0400      	lsls	r0, r0, #16
          tmp2 = hi2c->Mode;
 800335e:	b2d2      	uxtb	r2, r2
          if ((__HAL_I2C_GET_FLAG(hi2c, I2C_FLAG_BUSY) != RESET) && \
 8003360:	d50a      	bpl.n	8003378 <I2C_IsErrorOccurred+0xce>
 8003362:	0449      	lsls	r1, r1, #17
 8003364:	d408      	bmi.n	8003378 <I2C_IsErrorOccurred+0xce>
              (tmp1 != I2C_CR2_STOP) && \
 8003366:	2a20      	cmp	r2, #32
 8003368:	d006      	beq.n	8003378 <I2C_IsErrorOccurred+0xce>
            hi2c->Instance->CR2 |= I2C_CR2_STOP;
 800336a:	685a      	ldr	r2, [r3, #4]
 800336c:	f442 4280 	orr.w	r2, r2, #16384	@ 0x4000
 8003370:	605a      	str	r2, [r3, #4]
            tickstart = HAL_GetTick();
 8003372:	f7ff fc15 	bl	8002ba0 <HAL_GetTick>
 8003376:	4606      	mov	r6, r0
          while (__HAL_I2C_GET_FLAG(hi2c, I2C_FLAG_STOPF) == RESET)
 8003378:	682b      	ldr	r3, [r5, #0]
 800337a:	699b      	ldr	r3, [r3, #24]
 800337c:	069b      	lsls	r3, r3, #26
 800337e:	d4a2      	bmi.n	80032c6 <I2C_IsErrorOccurred+0x1c>
            if ((HAL_GetTick() - tickstart) > I2C_TIMEOUT_STOPF)
 8003380:	f7ff fc0e 	bl	8002ba0 <HAL_GetTick>
 8003384:	1b80      	subs	r0, r0, r6
 8003386:	2819      	cmp	r0, #25
 8003388:	d9f6      	bls.n	8003378 <I2C_IsErrorOccurred+0xce>
              error_code |= HAL_I2C_ERROR_TIMEOUT;
 800338a:	2420      	movs	r4, #32
              status = HAL_ERROR;
 800338c:	f04f 0801 	mov.w	r8, #1
 8003390:	e799      	b.n	80032c6 <I2C_IsErrorOccurred+0x1c>
    if (status == HAL_OK)
 8003392:	f1b8 0f00 	cmp.w	r8, #0
 8003396:	d19d      	bne.n	80032d4 <I2C_IsErrorOccurred+0x2a>
      __HAL_I2C_CLEAR_FLAG(hi2c, I2C_FLAG_STOPF);
 8003398:	2220      	movs	r2, #32
 800339a:	61da      	str	r2, [r3, #28]
 800339c:	e79a      	b.n	80032d4 <I2C_IsErrorOccurred+0x2a>
  HAL_StatusTypeDef status = HAL_OK;
 800339e:	4620      	mov	r0, r4
 80033a0:	e79b      	b.n	80032da <I2C_IsErrorOccurred+0x30>
  if (status != HAL_OK)
 80033a2:	2800      	cmp	r0, #0
 80033a4:	d1b2      	bne.n	800330c <I2C_IsErrorOccurred+0x62>
}
 80033a6:	e8bd 81f0 	ldmia.w	sp!, {r4, r5, r6, r7, r8, pc}

080033aa <I2C_WaitOnTXISFlagUntilTimeout>:
{
 80033aa:	b570      	push	{r4, r5, r6, lr}
 80033ac:	4604      	mov	r4, r0
 80033ae:	460d      	mov	r5, r1
 80033b0:	4616      	mov	r6, r2
  while (__HAL_I2C_GET_FLAG(hi2c, I2C_FLAG_TXIS) == RESET)
 80033b2:	6823      	ldr	r3, [r4, #0]
 80033b4:	699b      	ldr	r3, [r3, #24]
 80033b6:	079b      	lsls	r3, r3, #30
 80033b8:	d501      	bpl.n	80033be <I2C_WaitOnTXISFlagUntilTimeout+0x14>
  return HAL_OK;
 80033ba:	2000      	movs	r0, #0
 80033bc:	e01f      	b.n	80033fe <I2C_WaitOnTXISFlagUntilTimeout+0x54>
    if (I2C_IsErrorOccurred(hi2c, Timeout, Tickstart) != HAL_OK)
 80033be:	4632      	mov	r2, r6
 80033c0:	4629      	mov	r1, r5
 80033c2:	4620      	mov	r0, r4
 80033c4:	f7ff ff71 	bl	80032aa <I2C_IsErrorOccurred>
 80033c8:	b9c0      	cbnz	r0, 80033fc <I2C_WaitOnTXISFlagUntilTimeout+0x52>
    if (Timeout != HAL_MAX_DELAY)
 80033ca:	1c6a      	adds	r2, r5, #1
 80033cc:	d0f1      	beq.n	80033b2 <I2C_WaitOnTXISFlagUntilTimeout+0x8>
      if (((HAL_GetTick() - Tickstart) > Timeout) || (Timeout == 0U))
 80033ce:	f7ff fbe7 	bl	8002ba0 <HAL_GetTick>
 80033d2:	1b80      	subs	r0, r0, r6
 80033d4:	42a8      	cmp	r0, r5
 80033d6:	d801      	bhi.n	80033dc <I2C_WaitOnTXISFlagUntilTimeout+0x32>
 80033d8:	2d00      	cmp	r5, #0
 80033da:	d1ea      	bne.n	80033b2 <I2C_WaitOnTXISFlagUntilTimeout+0x8>
        if ((__HAL_I2C_GET_FLAG(hi2c, I2C_FLAG_TXIS) == RESET))
 80033dc:	6823      	ldr	r3, [r4, #0]
 80033de:	699b      	ldr	r3, [r3, #24]
 80033e0:	f013 0302 	ands.w	r3, r3, #2
 80033e4:	d1e5      	bne.n	80033b2 <I2C_WaitOnTXISFlagUntilTimeout+0x8>
          hi2c->ErrorCode |= HAL_I2C_ERROR_TIMEOUT;
 80033e6:	6c62      	ldr	r2, [r4, #68]	@ 0x44
          __HAL_UNLOCK(hi2c);
 80033e8:	f884 3040 	strb.w	r3, [r4, #64]	@ 0x40
          hi2c->ErrorCode |= HAL_I2C_ERROR_TIMEOUT;
 80033ec:	f042 0220 	orr.w	r2, r2, #32
 80033f0:	6462      	str	r2, [r4, #68]	@ 0x44
          hi2c->State = HAL_I2C_STATE_READY;
 80033f2:	2220      	movs	r2, #32
 80033f4:	f884 2041 	strb.w	r2, [r4, #65]	@ 0x41
          hi2c->Mode = HAL_I2C_MODE_NONE;
 80033f8:	f884 3042 	strb.w	r3, [r4, #66]	@ 0x42
      return HAL_ERROR;
 80033fc:	2001      	movs	r0, #1
}
 80033fe:	bd70      	pop	{r4, r5, r6, pc}

08003400 <I2C_WaitOnFlagUntilTimeout>:
{
 8003400:	e92d 41f0 	stmdb	sp!, {r4, r5, r6, r7, r8, lr}
 8003404:	f8dd 8018 	ldr.w	r8, [sp, #24]
 8003408:	4604      	mov	r4, r0
 800340a:	460f      	mov	r7, r1
 800340c:	4616      	mov	r6, r2
 800340e:	461d      	mov	r5, r3
  while (__HAL_I2C_GET_FLAG(hi2c, Flag) == Status)
 8003410:	6823      	ldr	r3, [r4, #0]
 8003412:	699b      	ldr	r3, [r3, #24]
 8003414:	ea37 0303 	bics.w	r3, r7, r3
 8003418:	bf0c      	ite	eq
 800341a:	2301      	moveq	r3, #1
 800341c:	2300      	movne	r3, #0
 800341e:	42b3      	cmp	r3, r6
 8003420:	d001      	beq.n	8003426 <I2C_WaitOnFlagUntilTimeout+0x26>
  return HAL_OK;
 8003422:	2000      	movs	r0, #0
 8003424:	e025      	b.n	8003472 <I2C_WaitOnFlagUntilTimeout+0x72>
    if (I2C_IsErrorOccurred(hi2c, Timeout, Tickstart) != HAL_OK)
 8003426:	4642      	mov	r2, r8
 8003428:	4629      	mov	r1, r5
 800342a:	4620      	mov	r0, r4
 800342c:	f7ff ff3d 	bl	80032aa <I2C_IsErrorOccurred>
 8003430:	b9f0      	cbnz	r0, 8003470 <I2C_WaitOnFlagUntilTimeout+0x70>
    if (Timeout != HAL_MAX_DELAY)
 8003432:	1c6b      	adds	r3, r5, #1
 8003434:	d0ec      	beq.n	8003410 <I2C_WaitOnFlagUntilTimeout+0x10>
      if (((HAL_GetTick() - Tickstart) > Timeout) || (Timeout == 0U))
 8003436:	f7ff fbb3 	bl	8002ba0 <HAL_GetTick>
 800343a:	eba0 0008 	sub.w	r0, r0, r8
 800343e:	42a8      	cmp	r0, r5
 8003440:	d801      	bhi.n	8003446 <I2C_WaitOnFlagUntilTimeout+0x46>
 8003442:	2d00      	cmp	r5, #0
 8003444:	d1e4      	bne.n	8003410 <I2C_WaitOnFlagUntilTimeout+0x10>
        if ((__HAL_I2C_GET_FLAG(hi2c, Flag) == Status))
 8003446:	6823      	ldr	r3, [r4, #0]
 8003448:	699b      	ldr	r3, [r3, #24]
 800344a:	ea37 0303 	bics.w	r3, r7, r3
 800344e:	bf0c      	ite	eq
 8003450:	2301      	moveq	r3, #1
 8003452:	2300      	movne	r3, #0
 8003454:	42b3      	cmp	r3, r6
 8003456:	d1db      	bne.n	8003410 <I2C_WaitOnFlagUntilTimeout+0x10>
          hi2c->ErrorCode |= HAL_I2C_ERROR_TIMEOUT;
 8003458:	6c63      	ldr	r3, [r4, #68]	@ 0x44
 800345a:	f043 0320 	orr.w	r3, r3, #32
 800345e:	6463      	str	r3, [r4, #68]	@ 0x44
          hi2c->State = HAL_I2C_STATE_READY;
 8003460:	2320      	movs	r3, #32
 8003462:	f884 3041 	strb.w	r3, [r4, #65]	@ 0x41
          hi2c->Mode = HAL_I2C_MODE_NONE;
 8003466:	2300      	movs	r3, #0
 8003468:	f884 3042 	strb.w	r3, [r4, #66]	@ 0x42
          __HAL_UNLOCK(hi2c);
 800346c:	f884 3040 	strb.w	r3, [r4, #64]	@ 0x40
      return HAL_ERROR;
 8003470:	2001      	movs	r0, #1
}
 8003472:	e8bd 81f0 	ldmia.w	sp!, {r4, r5, r6, r7, r8, pc}

08003476 <I2C_WaitOnSTOPFlagUntilTimeout>:
{
 8003476:	b570      	push	{r4, r5, r6, lr}
 8003478:	4604      	mov	r4, r0
 800347a:	460d      	mov	r5, r1
 800347c:	4616      	mov	r6, r2
  while (__HAL_I2C_GET_FLAG(hi2c, I2C_FLAG_STOPF) == RESET)
 800347e:	6823      	ldr	r3, [r4, #0]
 8003480:	699b      	ldr	r3, [r3, #24]
 8003482:	069b      	lsls	r3, r3, #26
 8003484:	d501      	bpl.n	800348a <I2C_WaitOnSTOPFlagUntilTimeout+0x14>
  return HAL_OK;
 8003486:	2000      	movs	r0, #0
 8003488:	e01d      	b.n	80034c6 <I2C_WaitOnSTOPFlagUntilTimeout+0x50>
    if (I2C_IsErrorOccurred(hi2c, Timeout, Tickstart) != HAL_OK)
 800348a:	4632      	mov	r2, r6
 800348c:	4629      	mov	r1, r5
 800348e:	4620      	mov	r0, r4
 8003490:	f7ff ff0b 	bl	80032aa <I2C_IsErrorOccurred>
 8003494:	b9b0      	cbnz	r0, 80034c4 <I2C_WaitOnSTOPFlagUntilTimeout+0x4e>
    if (((HAL_GetTick() - Tickstart) > Timeout) || (Timeout == 0U))
 8003496:	f7ff fb83 	bl	8002ba0 <HAL_GetTick>
 800349a:	1b80      	subs	r0, r0, r6
 800349c:	42a8      	cmp	r0, r5
 800349e:	d801      	bhi.n	80034a4 <I2C_WaitOnSTOPFlagUntilTimeout+0x2e>
 80034a0:	2d00      	cmp	r5, #0
 80034a2:	d1ec      	bne.n	800347e <I2C_WaitOnSTOPFlagUntilTimeout+0x8>
      if ((__HAL_I2C_GET_FLAG(hi2c, I2C_FLAG_STOPF) == RESET))
 80034a4:	6823      	ldr	r3, [r4, #0]
 80034a6:	699b      	ldr	r3, [r3, #24]
 80034a8:	f013 0320 	ands.w	r3, r3, #32
 80034ac:	d1e7      	bne.n	800347e <I2C_WaitOnSTOPFlagUntilTimeout+0x8>
        hi2c->ErrorCode |= HAL_I2C_ERROR_TIMEOUT;
 80034ae:	6c62      	ldr	r2, [r4, #68]	@ 0x44
        __HAL_UNLOCK(hi2c);
 80034b0:	f884 3040 	strb.w	r3, [r4, #64]	@ 0x40
        hi2c->ErrorCode |= HAL_I2C_ERROR_TIMEOUT;
 80034b4:	f042 0220 	orr.w	r2, r2, #32
 80034b8:	6462      	str	r2, [r4, #68]	@ 0x44
        hi2c->State = HAL_I2C_STATE_READY;
 80034ba:	2220      	movs	r2, #32
 80034bc:	f884 2041 	strb.w	r2, [r4, #65]	@ 0x41
        hi2c->Mode = HAL_I2C_MODE_NONE;
 80034c0:	f884 3042 	strb.w	r3, [r4, #66]	@ 0x42
      return HAL_ERROR;
 80034c4:	2001      	movs	r0, #1
}
 80034c6:	bd70      	pop	{r4, r5, r6, pc}

080034c8 <I2C_WaitOnRXNEFlagUntilTimeout>:
{
 80034c8:	e92d 43f8 	stmdb	sp!, {r3, r4, r5, r6, r7, r8, r9, lr}
        I2C_RESET_CR2(hi2c);
 80034cc:	f8df 9098 	ldr.w	r9, [pc, #152]	@ 8003568 <I2C_WaitOnRXNEFlagUntilTimeout+0xa0>
{
 80034d0:	4605      	mov	r5, r0
 80034d2:	460e      	mov	r6, r1
 80034d4:	4617      	mov	r7, r2
  HAL_StatusTypeDef status = HAL_OK;
 80034d6:	2400      	movs	r4, #0
        __HAL_I2C_CLEAR_FLAG(hi2c, I2C_FLAG_AF);
 80034d8:	f04f 0810 	mov.w	r8, #16
  while ((__HAL_I2C_GET_FLAG(hi2c, I2C_FLAG_RXNE) == RESET) && (status == HAL_OK))
 80034dc:	682b      	ldr	r3, [r5, #0]
 80034de:	699b      	ldr	r3, [r3, #24]
 80034e0:	075b      	lsls	r3, r3, #29
 80034e2:	d400      	bmi.n	80034e6 <I2C_WaitOnRXNEFlagUntilTimeout+0x1e>
 80034e4:	b114      	cbz	r4, 80034ec <I2C_WaitOnRXNEFlagUntilTimeout+0x24>
}
 80034e6:	4620      	mov	r0, r4
 80034e8:	e8bd 83f8 	ldmia.w	sp!, {r3, r4, r5, r6, r7, r8, r9, pc}
    if (I2C_IsErrorOccurred(hi2c, Timeout, Tickstart) != HAL_OK)
 80034ec:	463a      	mov	r2, r7
 80034ee:	4631      	mov	r1, r6
 80034f0:	4628      	mov	r0, r5
 80034f2:	f7ff feda 	bl	80032aa <I2C_IsErrorOccurred>
    if ((__HAL_I2C_GET_FLAG(hi2c, I2C_FLAG_STOPF) == SET) && (status == HAL_OK))
 80034f6:	682b      	ldr	r3, [r5, #0]
 80034f8:	699a      	ldr	r2, [r3, #24]
    if (I2C_IsErrorOccurred(hi2c, Timeout, Tickstart) != HAL_OK)
 80034fa:	4604      	mov	r4, r0
    if ((__HAL_I2C_GET_FLAG(hi2c, I2C_FLAG_STOPF) == SET) && (status == HAL_OK))
 80034fc:	0690      	lsls	r0, r2, #26
 80034fe:	d40c      	bmi.n	800351a <I2C_WaitOnRXNEFlagUntilTimeout+0x52>
    if (I2C_IsErrorOccurred(hi2c, Timeout, Tickstart) != HAL_OK)
 8003500:	3c00      	subs	r4, #0
 8003502:	bf18      	it	ne
 8003504:	2401      	movne	r4, #1
    if ((((HAL_GetTick() - Tickstart) > Timeout) || (Timeout == 0U)) && (status == HAL_OK))
 8003506:	f7ff fb4b 	bl	8002ba0 <HAL_GetTick>
 800350a:	1bc0      	subs	r0, r0, r7
 800350c:	42b0      	cmp	r0, r6
 800350e:	d801      	bhi.n	8003514 <I2C_WaitOnRXNEFlagUntilTimeout+0x4c>
 8003510:	2e00      	cmp	r6, #0
 8003512:	d1e3      	bne.n	80034dc <I2C_WaitOnRXNEFlagUntilTimeout+0x14>
 8003514:	b1d4      	cbz	r4, 800354c <I2C_WaitOnRXNEFlagUntilTimeout+0x84>
{
 8003516:	2401      	movs	r4, #1
 8003518:	e7e0      	b.n	80034dc <I2C_WaitOnRXNEFlagUntilTimeout+0x14>
    if ((__HAL_I2C_GET_FLAG(hi2c, I2C_FLAG_STOPF) == SET) && (status == HAL_OK))
 800351a:	b99c      	cbnz	r4, 8003544 <I2C_WaitOnRXNEFlagUntilTimeout+0x7c>
      if ((__HAL_I2C_GET_FLAG(hi2c, I2C_FLAG_RXNE) == SET) && (hi2c->XferSize > 0U))
 800351c:	699a      	ldr	r2, [r3, #24]
      if (__HAL_I2C_GET_FLAG(hi2c, I2C_FLAG_AF) == SET)
 800351e:	699a      	ldr	r2, [r3, #24]
 8003520:	06d1      	lsls	r1, r2, #27
 8003522:	d511      	bpl.n	8003548 <I2C_WaitOnRXNEFlagUntilTimeout+0x80>
        hi2c->ErrorCode = HAL_I2C_ERROR_AF;
 8003524:	2204      	movs	r2, #4
        __HAL_I2C_CLEAR_FLAG(hi2c, I2C_FLAG_STOPF);
 8003526:	2120      	movs	r1, #32
        __HAL_I2C_CLEAR_FLAG(hi2c, I2C_FLAG_AF);
 8003528:	f8c3 801c 	str.w	r8, [r3, #28]
        hi2c->ErrorCode = HAL_I2C_ERROR_AF;
 800352c:	646a      	str	r2, [r5, #68]	@ 0x44
        __HAL_I2C_CLEAR_FLAG(hi2c, I2C_FLAG_STOPF);
 800352e:	61d9      	str	r1, [r3, #28]
        I2C_RESET_CR2(hi2c);
 8003530:	685a      	ldr	r2, [r3, #4]
 8003532:	ea02 0209 	and.w	r2, r2, r9
 8003536:	605a      	str	r2, [r3, #4]
        hi2c->State = HAL_I2C_STATE_READY;
 8003538:	f885 1041 	strb.w	r1, [r5, #65]	@ 0x41
        __HAL_UNLOCK(hi2c);
 800353c:	f885 4040 	strb.w	r4, [r5, #64]	@ 0x40
        hi2c->Mode = HAL_I2C_MODE_NONE;
 8003540:	f885 4042 	strb.w	r4, [r5, #66]	@ 0x42
{
 8003544:	2401      	movs	r4, #1
 8003546:	e7de      	b.n	8003506 <I2C_WaitOnRXNEFlagUntilTimeout+0x3e>
        hi2c->ErrorCode = HAL_I2C_ERROR_NONE;
 8003548:	646c      	str	r4, [r5, #68]	@ 0x44
 800354a:	e7dc      	b.n	8003506 <I2C_WaitOnRXNEFlagUntilTimeout+0x3e>
      if ((__HAL_I2C_GET_FLAG(hi2c, I2C_FLAG_RXNE) == RESET))
 800354c:	682b      	ldr	r3, [r5, #0]
 800354e:	699b      	ldr	r3, [r3, #24]
 8003550:	075a      	lsls	r2, r3, #29
 8003552:	d4c3      	bmi.n	80034dc <I2C_WaitOnRXNEFlagUntilTimeout+0x14>
        hi2c->ErrorCode |= HAL_I2C_ERROR_TIMEOUT;
 8003554:	6c6b      	ldr	r3, [r5, #68]	@ 0x44
        __HAL_UNLOCK(hi2c);
 8003556:	f885 4040 	strb.w	r4, [r5, #64]	@ 0x40
        hi2c->ErrorCode |= HAL_I2C_ERROR_TIMEOUT;
 800355a:	f043 0320 	orr.w	r3, r3, #32
 800355e:	646b      	str	r3, [r5, #68]	@ 0x44
        hi2c->State = HAL_I2C_STATE_READY;
 8003560:	2320      	movs	r3, #32
 8003562:	f885 3041 	strb.w	r3, [r5, #65]	@ 0x41
        status = HAL_ERROR;
 8003566:	e7d6      	b.n	8003516 <I2C_WaitOnRXNEFlagUntilTimeout+0x4e>
 8003568:	fe00e800 	.word	0xfe00e800

0800356c <HAL_I2C_Init>:
{
 800356c:	b510      	push	{r4, lr}
  if (hi2c == NULL)
 800356e:	4604      	mov	r4, r0
 8003570:	2800      	cmp	r0, #0
 8003572:	d04e      	beq.n	8003612 <HAL_I2C_Init+0xa6>
  if (hi2c->State == HAL_I2C_STATE_RESET)
 8003574:	f890 3041 	ldrb.w	r3, [r0, #65]	@ 0x41
 8003578:	f003 02ff 	and.w	r2, r3, #255	@ 0xff
 800357c:	b91b      	cbnz	r3, 8003586 <HAL_I2C_Init+0x1a>
    hi2c->Lock = HAL_UNLOCKED;
 800357e:	f880 2040 	strb.w	r2, [r0, #64]	@ 0x40
    HAL_I2C_MspInit(hi2c);
 8003582:	f7fe ff05 	bl	8002390 <HAL_I2C_MspInit>
  hi2c->State = HAL_I2C_STATE_BUSY;
 8003586:	2324      	movs	r3, #36	@ 0x24
 8003588:	f884 3041 	strb.w	r3, [r4, #65]	@ 0x41
  __HAL_I2C_DISABLE(hi2c);
 800358c:	6823      	ldr	r3, [r4, #0]
 800358e:	681a      	ldr	r2, [r3, #0]
 8003590:	f022 0201 	bic.w	r2, r2, #1
 8003594:	601a      	str	r2, [r3, #0]
  hi2c->Instance->TIMINGR = hi2c->Init.Timing & TIMING_CLEAR_MASK;
 8003596:	6862      	ldr	r2, [r4, #4]
 8003598:	f022 6270 	bic.w	r2, r2, #251658240	@ 0xf000000
 800359c:	611a      	str	r2, [r3, #16]
  hi2c->Instance->OAR1 &= ~I2C_OAR1_OA1EN;
 800359e:	689a      	ldr	r2, [r3, #8]
 80035a0:	f422 4200 	bic.w	r2, r2, #32768	@ 0x8000
 80035a4:	609a      	str	r2, [r3, #8]
    hi2c->Instance->OAR1 = (I2C_OAR1_OA1EN | hi2c->Init.OwnAddress1);
 80035a6:	e9d4 2102 	ldrd	r2, r1, [r4, #8]
  if (hi2c->Init.AddressingMode == I2C_ADDRESSINGMODE_7BIT)
 80035aa:	2901      	cmp	r1, #1
 80035ac:	d106      	bne.n	80035bc <HAL_I2C_Init+0x50>
    hi2c->Instance->OAR1 = (I2C_OAR1_OA1EN | hi2c->Init.OwnAddress1);
 80035ae:	f442 4200 	orr.w	r2, r2, #32768	@ 0x8000
 80035b2:	609a      	str	r2, [r3, #8]
    CLEAR_BIT(hi2c->Instance->CR2, I2C_CR2_ADD10);
 80035b4:	685a      	ldr	r2, [r3, #4]
 80035b6:	f422 6200 	bic.w	r2, r2, #2048	@ 0x800
 80035ba:	e007      	b.n	80035cc <HAL_I2C_Init+0x60>
    hi2c->Instance->OAR1 = (I2C_OAR1_OA1EN | I2C_OAR1_OA1MODE | hi2c->Init.OwnAddress1);
 80035bc:	f442 4204 	orr.w	r2, r2, #33792	@ 0x8400
  if (hi2c->Init.AddressingMode == I2C_ADDRESSINGMODE_10BIT)
 80035c0:	2902      	cmp	r1, #2
    hi2c->Instance->OAR1 = (I2C_OAR1_OA1EN | I2C_OAR1_OA1MODE | hi2c->Init.OwnAddress1);
 80035c2:	609a      	str	r2, [r3, #8]
  if (hi2c->Init.AddressingMode == I2C_ADDRESSINGMODE_10BIT)
 80035c4:	d1f6      	bne.n	80035b4 <HAL_I2C_Init+0x48>
    SET_BIT(hi2c->Instance->CR2, I2C_CR2_ADD10);
 80035c6:	685a      	ldr	r2, [r3, #4]
 80035c8:	f442 6200 	orr.w	r2, r2, #2048	@ 0x800
    CLEAR_BIT(hi2c->Instance->CR2, I2C_CR2_ADD10);
 80035cc:	605a      	str	r2, [r3, #4]
  hi2c->Instance->CR2 |= (I2C_CR2_AUTOEND | I2C_CR2_NACK);
 80035ce:	685a      	ldr	r2, [r3, #4]
 80035d0:	f042 7200 	orr.w	r2, r2, #33554432	@ 0x2000000
 80035d4:	f442 4200 	orr.w	r2, r2, #32768	@ 0x8000
 80035d8:	605a      	str	r2, [r3, #4]
  hi2c->Instance->OAR2 &= ~I2C_DUALADDRESS_ENABLE;
 80035da:	68da      	ldr	r2, [r3, #12]
 80035dc:	f422 4200 	bic.w	r2, r2, #32768	@ 0x8000
 80035e0:	60da      	str	r2, [r3, #12]
  hi2c->Instance->OAR2 = (hi2c->Init.DualAddressMode | hi2c->Init.OwnAddress2 | \
 80035e2:	e9d4 2104 	ldrd	r2, r1, [r4, #16]
 80035e6:	430a      	orrs	r2, r1
                          (hi2c->Init.OwnAddress2Masks << 8));
 80035e8:	69a1      	ldr	r1, [r4, #24]
  hi2c->Instance->OAR2 = (hi2c->Init.DualAddressMode | hi2c->Init.OwnAddress2 | \
 80035ea:	ea42 2201 	orr.w	r2, r2, r1, lsl #8
 80035ee:	60da      	str	r2, [r3, #12]
  hi2c->Instance->CR1 = (hi2c->Init.GeneralCallMode | hi2c->Init.NoStretchMode);
 80035f0:	e9d4 2107 	ldrd	r2, r1, [r4, #28]
 80035f4:	430a      	orrs	r2, r1
 80035f6:	601a      	str	r2, [r3, #0]
  __HAL_I2C_ENABLE(hi2c);
 80035f8:	681a      	ldr	r2, [r3, #0]
 80035fa:	f042 0201 	orr.w	r2, r2, #1
 80035fe:	601a      	str	r2, [r3, #0]
  hi2c->ErrorCode = HAL_I2C_ERROR_NONE;
 8003600:	2000      	movs	r0, #0
  hi2c->State = HAL_I2C_STATE_READY;
 8003602:	2320      	movs	r3, #32
  hi2c->ErrorCode = HAL_I2C_ERROR_NONE;
 8003604:	6460      	str	r0, [r4, #68]	@ 0x44
  hi2c->State = HAL_I2C_STATE_READY;
 8003606:	f884 3041 	strb.w	r3, [r4, #65]	@ 0x41
  hi2c->PreviousState = I2C_STATE_NONE;
 800360a:	6320      	str	r0, [r4, #48]	@ 0x30
  hi2c->Mode = HAL_I2C_MODE_NONE;
 800360c:	f884 0042 	strb.w	r0, [r4, #66]	@ 0x42
}
 8003610:	bd10      	pop	{r4, pc}
    return HAL_ERROR;
 8003612:	2001      	movs	r0, #1
 8003614:	e7fc      	b.n	8003610 <HAL_I2C_Init+0xa4>
	...

08003618 <HAL_I2C_Master_Transmit>:
{
 8003618:	e92d 47f3 	stmdb	sp!, {r0, r1, r4, r5, r6, r7, r8, r9, sl, lr}
 800361c:	4699      	mov	r9, r3
  if (hi2c->State == HAL_I2C_STATE_READY)
 800361e:	f890 3041 	ldrb.w	r3, [r0, #65]	@ 0x41
{
 8003622:	9f0a      	ldr	r7, [sp, #40]	@ 0x28
  if (hi2c->State == HAL_I2C_STATE_READY)
 8003624:	2b20      	cmp	r3, #32
{
 8003626:	4604      	mov	r4, r0
 8003628:	460e      	mov	r6, r1
 800362a:	4690      	mov	r8, r2
  if (hi2c->State == HAL_I2C_STATE_READY)
 800362c:	f040 809e 	bne.w	800376c <HAL_I2C_Master_Transmit+0x154>
    __HAL_LOCK(hi2c);
 8003630:	f890 3040 	ldrb.w	r3, [r0, #64]	@ 0x40
 8003634:	2b01      	cmp	r3, #1
 8003636:	f000 8099 	beq.w	800376c <HAL_I2C_Master_Transmit+0x154>
 800363a:	f04f 0a01 	mov.w	sl, #1
 800363e:	f880 a040 	strb.w	sl, [r0, #64]	@ 0x40
    tickstart = HAL_GetTick();
 8003642:	f7ff faad 	bl	8002ba0 <HAL_GetTick>
    if (I2C_WaitOnFlagUntilTimeout(hi2c, I2C_FLAG_BUSY, SET, I2C_TIMEOUT_BUSY, tickstart) != HAL_OK)
 8003646:	2319      	movs	r3, #25
    tickstart = HAL_GetTick();
 8003648:	4605      	mov	r5, r0
    if (I2C_WaitOnFlagUntilTimeout(hi2c, I2C_FLAG_BUSY, SET, I2C_TIMEOUT_BUSY, tickstart) != HAL_OK)
 800364a:	9000      	str	r0, [sp, #0]
 800364c:	4652      	mov	r2, sl
 800364e:	f44f 4100 	mov.w	r1, #32768	@ 0x8000
 8003652:	4620      	mov	r0, r4
 8003654:	f7ff fed4 	bl	8003400 <I2C_WaitOnFlagUntilTimeout>
 8003658:	b118      	cbz	r0, 8003662 <HAL_I2C_Master_Transmit+0x4a>
      return HAL_ERROR;
 800365a:	2001      	movs	r0, #1
}
 800365c:	b002      	add	sp, #8
 800365e:	e8bd 87f0 	ldmia.w	sp!, {r4, r5, r6, r7, r8, r9, sl, pc}
    hi2c->State     = HAL_I2C_STATE_BUSY_TX;
 8003662:	2321      	movs	r3, #33	@ 0x21
 8003664:	f884 3041 	strb.w	r3, [r4, #65]	@ 0x41
    hi2c->Mode      = HAL_I2C_MODE_MASTER;
 8003668:	2310      	movs	r3, #16
 800366a:	f884 3042 	strb.w	r3, [r4, #66]	@ 0x42
    hi2c->ErrorCode = HAL_I2C_ERROR_NONE;
 800366e:	6460      	str	r0, [r4, #68]	@ 0x44
    hi2c->XferCount = Size;
 8003670:	f8a4 902a 	strh.w	r9, [r4, #42]	@ 0x2a
    if (hi2c->XferCount > MAX_NBYTE_SIZE)
 8003674:	8d63      	ldrh	r3, [r4, #42]	@ 0x2a
    hi2c->pBuffPtr  = pData;
 8003676:	f8c4 8024 	str.w	r8, [r4, #36]	@ 0x24
    if (hi2c->XferCount > MAX_NBYTE_SIZE)
 800367a:	b29b      	uxth	r3, r3
 800367c:	2bff      	cmp	r3, #255	@ 0xff
    hi2c->XferISR   = NULL;
 800367e:	6360      	str	r0, [r4, #52]	@ 0x34
    if (hi2c->XferCount > MAX_NBYTE_SIZE)
 8003680:	d916      	bls.n	80036b0 <HAL_I2C_Master_Transmit+0x98>
 8003682:	22ff      	movs	r2, #255	@ 0xff
 8003684:	8522      	strh	r2, [r4, #40]	@ 0x28
      xfermode = I2C_RELOAD_MODE;
 8003686:	f04f 7c80 	mov.w	ip, #16777216	@ 0x1000000
      hi2c->Instance->TXDR = *hi2c->pBuffPtr;
 800368a:	4641      	mov	r1, r8
 800368c:	6823      	ldr	r3, [r4, #0]
 800368e:	f811 0b01 	ldrb.w	r0, [r1], #1
 8003692:	6298      	str	r0, [r3, #40]	@ 0x28
      hi2c->pBuffPtr++;
 8003694:	6261      	str	r1, [r4, #36]	@ 0x24
      hi2c->XferCount--;
 8003696:	8d61      	ldrh	r1, [r4, #42]	@ 0x2a
 8003698:	3901      	subs	r1, #1
 800369a:	b289      	uxth	r1, r1
      hi2c->XferSize--;
 800369c:	3a01      	subs	r2, #1
      hi2c->XferCount--;
 800369e:	8561      	strh	r1, [r4, #42]	@ 0x2a
      hi2c->XferSize--;
 80036a0:	b292      	uxth	r2, r2
      I2C_TransferConfig(hi2c, DevAddress, (uint8_t)(hi2c->XferSize + 1U), xfermode,
 80036a2:	4933      	ldr	r1, [pc, #204]	@ (8003770 <HAL_I2C_Master_Transmit+0x158>)
      hi2c->XferSize--;
 80036a4:	8522      	strh	r2, [r4, #40]	@ 0x28
      I2C_TransferConfig(hi2c, DevAddress, (uint8_t)(hi2c->XferSize + 1U), xfermode,
 80036a6:	4663      	mov	r3, ip
 80036a8:	3201      	adds	r2, #1
 80036aa:	9100      	str	r1, [sp, #0]
          I2C_TransferConfig(hi2c, DevAddress, (uint8_t)hi2c->XferSize, I2C_AUTOEND_MODE,
 80036ac:	b2d2      	uxtb	r2, r2
 80036ae:	e00a      	b.n	80036c6 <HAL_I2C_Master_Transmit+0xae>
      hi2c->XferSize = hi2c->XferCount;
 80036b0:	8d62      	ldrh	r2, [r4, #42]	@ 0x2a
 80036b2:	b292      	uxth	r2, r2
      xfermode = I2C_AUTOEND_MODE;
 80036b4:	8522      	strh	r2, [r4, #40]	@ 0x28
    if (hi2c->XferSize > 0U)
 80036b6:	b112      	cbz	r2, 80036be <HAL_I2C_Master_Transmit+0xa6>
 80036b8:	f04f 7c00 	mov.w	ip, #33554432	@ 0x2000000
 80036bc:	e7e5      	b.n	800368a <HAL_I2C_Master_Transmit+0x72>
      I2C_TransferConfig(hi2c, DevAddress, (uint8_t)hi2c->XferSize, xfermode,
 80036be:	4b2c      	ldr	r3, [pc, #176]	@ (8003770 <HAL_I2C_Master_Transmit+0x158>)
 80036c0:	9300      	str	r3, [sp, #0]
 80036c2:	f04f 7300 	mov.w	r3, #33554432	@ 0x2000000
          I2C_TransferConfig(hi2c, DevAddress, (uint8_t)hi2c->XferSize, I2C_AUTOEND_MODE,
 80036c6:	4631      	mov	r1, r6
 80036c8:	4620      	mov	r0, r4
 80036ca:	f7ff fd6f 	bl	80031ac <I2C_TransferConfig>
    while (hi2c->XferCount > 0U)
 80036ce:	8d63      	ldrh	r3, [r4, #42]	@ 0x2a
 80036d0:	b29b      	uxth	r3, r3
      if (I2C_WaitOnTXISFlagUntilTimeout(hi2c, Timeout, tickstart) != HAL_OK)
 80036d2:	462a      	mov	r2, r5
 80036d4:	4639      	mov	r1, r7
 80036d6:	4620      	mov	r0, r4
    while (hi2c->XferCount > 0U)
 80036d8:	b9bb      	cbnz	r3, 800370a <HAL_I2C_Master_Transmit+0xf2>
    if (I2C_WaitOnSTOPFlagUntilTimeout(hi2c, Timeout, tickstart) != HAL_OK)
 80036da:	f7ff fecc 	bl	8003476 <I2C_WaitOnSTOPFlagUntilTimeout>
 80036de:	2800      	cmp	r0, #0
 80036e0:	d1bb      	bne.n	800365a <HAL_I2C_Master_Transmit+0x42>
    __HAL_I2C_CLEAR_FLAG(hi2c, I2C_FLAG_STOPF);
 80036e2:	6823      	ldr	r3, [r4, #0]
 80036e4:	2120      	movs	r1, #32
 80036e6:	61d9      	str	r1, [r3, #28]
    I2C_RESET_CR2(hi2c);
 80036e8:	685a      	ldr	r2, [r3, #4]
 80036ea:	f022 72ff 	bic.w	r2, r2, #33423360	@ 0x1fe0000
 80036ee:	f422 328b 	bic.w	r2, r2, #71168	@ 0x11600
 80036f2:	f422 72ff 	bic.w	r2, r2, #510	@ 0x1fe
 80036f6:	f022 0201 	bic.w	r2, r2, #1
 80036fa:	605a      	str	r2, [r3, #4]
    hi2c->State = HAL_I2C_STATE_READY;
 80036fc:	f884 1041 	strb.w	r1, [r4, #65]	@ 0x41
    __HAL_UNLOCK(hi2c);
 8003700:	f884 0040 	strb.w	r0, [r4, #64]	@ 0x40
    hi2c->Mode  = HAL_I2C_MODE_NONE;
 8003704:	f884 0042 	strb.w	r0, [r4, #66]	@ 0x42
    return HAL_OK;
 8003708:	e7a8      	b.n	800365c <HAL_I2C_Master_Transmit+0x44>
      if (I2C_WaitOnTXISFlagUntilTimeout(hi2c, Timeout, tickstart) != HAL_OK)
 800370a:	f7ff fe4e 	bl	80033aa <I2C_WaitOnTXISFlagUntilTimeout>
 800370e:	2800      	cmp	r0, #0
 8003710:	d1a3      	bne.n	800365a <HAL_I2C_Master_Transmit+0x42>
      hi2c->Instance->TXDR = *hi2c->pBuffPtr;
 8003712:	6a63      	ldr	r3, [r4, #36]	@ 0x24
 8003714:	6822      	ldr	r2, [r4, #0]
 8003716:	f813 1b01 	ldrb.w	r1, [r3], #1
 800371a:	6291      	str	r1, [r2, #40]	@ 0x28
      hi2c->pBuffPtr++;
 800371c:	6263      	str	r3, [r4, #36]	@ 0x24
      hi2c->XferCount--;
 800371e:	8d63      	ldrh	r3, [r4, #42]	@ 0x2a
      hi2c->XferSize--;
 8003720:	8d22      	ldrh	r2, [r4, #40]	@ 0x28
      hi2c->XferCount--;
 8003722:	3b01      	subs	r3, #1
 8003724:	b29b      	uxth	r3, r3
 8003726:	8563      	strh	r3, [r4, #42]	@ 0x2a
      if ((hi2c->XferCount != 0U) && (hi2c->XferSize == 0U))
 8003728:	8d63      	ldrh	r3, [r4, #42]	@ 0x2a
      hi2c->XferSize--;
 800372a:	3a01      	subs	r2, #1
 800372c:	b292      	uxth	r2, r2
      if ((hi2c->XferCount != 0U) && (hi2c->XferSize == 0U))
 800372e:	b29b      	uxth	r3, r3
      hi2c->XferSize--;
 8003730:	8522      	strh	r2, [r4, #40]	@ 0x28
      if ((hi2c->XferCount != 0U) && (hi2c->XferSize == 0U))
 8003732:	2b00      	cmp	r3, #0
 8003734:	d0cb      	beq.n	80036ce <HAL_I2C_Master_Transmit+0xb6>
 8003736:	2a00      	cmp	r2, #0
 8003738:	d1c9      	bne.n	80036ce <HAL_I2C_Master_Transmit+0xb6>
        if (I2C_WaitOnFlagUntilTimeout(hi2c, I2C_FLAG_TCR, RESET, Timeout, tickstart) != HAL_OK)
 800373a:	9500      	str	r5, [sp, #0]
 800373c:	463b      	mov	r3, r7
 800373e:	2180      	movs	r1, #128	@ 0x80
 8003740:	4620      	mov	r0, r4
 8003742:	f7ff fe5d 	bl	8003400 <I2C_WaitOnFlagUntilTimeout>
 8003746:	2800      	cmp	r0, #0
 8003748:	d187      	bne.n	800365a <HAL_I2C_Master_Transmit+0x42>
        if (hi2c->XferCount > MAX_NBYTE_SIZE)
 800374a:	8d63      	ldrh	r3, [r4, #42]	@ 0x2a
 800374c:	b29b      	uxth	r3, r3
 800374e:	2bff      	cmp	r3, #255	@ 0xff
 8003750:	d905      	bls.n	800375e <HAL_I2C_Master_Transmit+0x146>
          hi2c->XferSize = MAX_NBYTE_SIZE;
 8003752:	22ff      	movs	r2, #255	@ 0xff
 8003754:	8522      	strh	r2, [r4, #40]	@ 0x28
          I2C_TransferConfig(hi2c, DevAddress, (uint8_t)hi2c->XferSize, I2C_RELOAD_MODE,
 8003756:	f04f 7380 	mov.w	r3, #16777216	@ 0x1000000
 800375a:	9000      	str	r0, [sp, #0]
 800375c:	e7b3      	b.n	80036c6 <HAL_I2C_Master_Transmit+0xae>
          hi2c->XferSize = hi2c->XferCount;
 800375e:	8d62      	ldrh	r2, [r4, #42]	@ 0x2a
 8003760:	b292      	uxth	r2, r2
 8003762:	8522      	strh	r2, [r4, #40]	@ 0x28
          I2C_TransferConfig(hi2c, DevAddress, (uint8_t)hi2c->XferSize, I2C_AUTOEND_MODE,
 8003764:	f04f 7300 	mov.w	r3, #33554432	@ 0x2000000
 8003768:	9000      	str	r0, [sp, #0]
 800376a:	e79f      	b.n	80036ac <HAL_I2C_Master_Transmit+0x94>
    __HAL_LOCK(hi2c);
 800376c:	2002      	movs	r0, #2
 800376e:	e775      	b.n	800365c <HAL_I2C_Master_Transmit+0x44>
 8003770:	80002000 	.word	0x80002000

08003774 <HAL_I2C_Master_Receive>:
{
 8003774:	e92d 47f3 	stmdb	sp!, {r0, r1, r4, r5, r6, r7, r8, r9, sl, lr}
 8003778:	4698      	mov	r8, r3
  if (hi2c->State == HAL_I2C_STATE_READY)
 800377a:	f890 3041 	ldrb.w	r3, [r0, #65]	@ 0x41
{
 800377e:	9f0a      	ldr	r7, [sp, #40]	@ 0x28
  if (hi2c->State == HAL_I2C_STATE_READY)
 8003780:	2b20      	cmp	r3, #32
{
 8003782:	4604      	mov	r4, r0
 8003784:	460e      	mov	r6, r1
 8003786:	4691      	mov	r9, r2
  if (hi2c->State == HAL_I2C_STATE_READY)
 8003788:	f040 808a 	bne.w	80038a0 <HAL_I2C_Master_Receive+0x12c>
    __HAL_LOCK(hi2c);
 800378c:	f890 3040 	ldrb.w	r3, [r0, #64]	@ 0x40
 8003790:	2b01      	cmp	r3, #1
 8003792:	f000 8085 	beq.w	80038a0 <HAL_I2C_Master_Receive+0x12c>
 8003796:	f04f 0a01 	mov.w	sl, #1
 800379a:	f880 a040 	strb.w	sl, [r0, #64]	@ 0x40
    tickstart = HAL_GetTick();
 800379e:	f7ff f9ff 	bl	8002ba0 <HAL_GetTick>
    if (I2C_WaitOnFlagUntilTimeout(hi2c, I2C_FLAG_BUSY, SET, I2C_TIMEOUT_BUSY, tickstart) != HAL_OK)
 80037a2:	2319      	movs	r3, #25
    tickstart = HAL_GetTick();
 80037a4:	4605      	mov	r5, r0
    if (I2C_WaitOnFlagUntilTimeout(hi2c, I2C_FLAG_BUSY, SET, I2C_TIMEOUT_BUSY, tickstart) != HAL_OK)
 80037a6:	9000      	str	r0, [sp, #0]
 80037a8:	4652      	mov	r2, sl
 80037aa:	f44f 4100 	mov.w	r1, #32768	@ 0x8000
 80037ae:	4620      	mov	r0, r4
 80037b0:	f7ff fe26 	bl	8003400 <I2C_WaitOnFlagUntilTimeout>
 80037b4:	b118      	cbz	r0, 80037be <HAL_I2C_Master_Receive+0x4a>
      return HAL_ERROR;
 80037b6:	2001      	movs	r0, #1
}
 80037b8:	b002      	add	sp, #8
 80037ba:	e8bd 87f0 	ldmia.w	sp!, {r4, r5, r6, r7, r8, r9, sl, pc}
    hi2c->State     = HAL_I2C_STATE_BUSY_RX;
 80037be:	2322      	movs	r3, #34	@ 0x22
 80037c0:	f884 3041 	strb.w	r3, [r4, #65]	@ 0x41
    hi2c->Mode      = HAL_I2C_MODE_MASTER;
 80037c4:	2310      	movs	r3, #16
 80037c6:	f884 3042 	strb.w	r3, [r4, #66]	@ 0x42
    hi2c->ErrorCode = HAL_I2C_ERROR_NONE;
 80037ca:	6460      	str	r0, [r4, #68]	@ 0x44
    hi2c->XferCount = Size;
 80037cc:	f8a4 802a 	strh.w	r8, [r4, #42]	@ 0x2a
    if (hi2c->XferCount > MAX_NBYTE_SIZE)
 80037d0:	8d63      	ldrh	r3, [r4, #42]	@ 0x2a
    hi2c->pBuffPtr  = pData;
 80037d2:	f8c4 9024 	str.w	r9, [r4, #36]	@ 0x24
    if (hi2c->XferCount > MAX_NBYTE_SIZE)
 80037d6:	b29b      	uxth	r3, r3
 80037d8:	2bff      	cmp	r3, #255	@ 0xff
    hi2c->XferISR   = NULL;
 80037da:	6360      	str	r0, [r4, #52]	@ 0x34
    if (hi2c->XferCount > MAX_NBYTE_SIZE)
 80037dc:	4b31      	ldr	r3, [pc, #196]	@ (80038a4 <HAL_I2C_Master_Receive+0x130>)
 80037de:	d927      	bls.n	8003830 <HAL_I2C_Master_Receive+0xbc>
      hi2c->XferSize = 1U;
 80037e0:	f8a4 a028 	strh.w	sl, [r4, #40]	@ 0x28
      I2C_TransferConfig(hi2c, DevAddress, (uint8_t)hi2c->XferSize, I2C_RELOAD_MODE,
 80037e4:	4652      	mov	r2, sl
 80037e6:	9300      	str	r3, [sp, #0]
 80037e8:	f04f 7380 	mov.w	r3, #16777216	@ 0x1000000
          I2C_TransferConfig(hi2c, DevAddress, (uint8_t)hi2c->XferSize, I2C_AUTOEND_MODE,
 80037ec:	4631      	mov	r1, r6
 80037ee:	4620      	mov	r0, r4
 80037f0:	f7ff fcdc 	bl	80031ac <I2C_TransferConfig>
    while (hi2c->XferCount > 0U)
 80037f4:	8d63      	ldrh	r3, [r4, #42]	@ 0x2a
 80037f6:	b29b      	uxth	r3, r3
      if (I2C_WaitOnRXNEFlagUntilTimeout(hi2c, Timeout, tickstart) != HAL_OK)
 80037f8:	462a      	mov	r2, r5
 80037fa:	4639      	mov	r1, r7
 80037fc:	4620      	mov	r0, r4
    while (hi2c->XferCount > 0U)
 80037fe:	b9fb      	cbnz	r3, 8003840 <HAL_I2C_Master_Receive+0xcc>
    if (I2C_WaitOnSTOPFlagUntilTimeout(hi2c, Timeout, tickstart) != HAL_OK)
 8003800:	f7ff fe39 	bl	8003476 <I2C_WaitOnSTOPFlagUntilTimeout>
 8003804:	2800      	cmp	r0, #0
 8003806:	d1d6      	bne.n	80037b6 <HAL_I2C_Master_Receive+0x42>
    __HAL_I2C_CLEAR_FLAG(hi2c, I2C_FLAG_STOPF);
 8003808:	6823      	ldr	r3, [r4, #0]
 800380a:	2120      	movs	r1, #32
 800380c:	61d9      	str	r1, [r3, #28]
    I2C_RESET_CR2(hi2c);
 800380e:	685a      	ldr	r2, [r3, #4]
 8003810:	f022 72ff 	bic.w	r2, r2, #33423360	@ 0x1fe0000
 8003814:	f422 328b 	bic.w	r2, r2, #71168	@ 0x11600
 8003818:	f422 72ff 	bic.w	r2, r2, #510	@ 0x1fe
 800381c:	f022 0201 	bic.w	r2, r2, #1
 8003820:	605a      	str	r2, [r3, #4]
    hi2c->State = HAL_I2C_STATE_READY;
 8003822:	f884 1041 	strb.w	r1, [r4, #65]	@ 0x41
    __HAL_UNLOCK(hi2c);
 8003826:	f884 0040 	strb.w	r0, [r4, #64]	@ 0x40
    hi2c->Mode  = HAL_I2C_MODE_NONE;
 800382a:	f884 0042 	strb.w	r0, [r4, #66]	@ 0x42
    return HAL_OK;
 800382e:	e7c3      	b.n	80037b8 <HAL_I2C_Master_Receive+0x44>
      hi2c->XferSize = hi2c->XferCount;
 8003830:	8d62      	ldrh	r2, [r4, #42]	@ 0x2a
 8003832:	b292      	uxth	r2, r2
 8003834:	8522      	strh	r2, [r4, #40]	@ 0x28
      I2C_TransferConfig(hi2c, DevAddress, (uint8_t)hi2c->XferSize, I2C_AUTOEND_MODE,
 8003836:	9300      	str	r3, [sp, #0]
          I2C_TransferConfig(hi2c, DevAddress, (uint8_t)hi2c->XferSize, I2C_AUTOEND_MODE,
 8003838:	f04f 7300 	mov.w	r3, #33554432	@ 0x2000000
 800383c:	b2d2      	uxtb	r2, r2
 800383e:	e7d5      	b.n	80037ec <HAL_I2C_Master_Receive+0x78>
      if (I2C_WaitOnRXNEFlagUntilTimeout(hi2c, Timeout, tickstart) != HAL_OK)
 8003840:	f7ff fe42 	bl	80034c8 <I2C_WaitOnRXNEFlagUntilTimeout>
 8003844:	2800      	cmp	r0, #0
 8003846:	d1b6      	bne.n	80037b6 <HAL_I2C_Master_Receive+0x42>
      *hi2c->pBuffPtr = (uint8_t)hi2c->Instance->RXDR;
 8003848:	6823      	ldr	r3, [r4, #0]
 800384a:	6a5a      	ldr	r2, [r3, #36]	@ 0x24
 800384c:	6a63      	ldr	r3, [r4, #36]	@ 0x24
 800384e:	701a      	strb	r2, [r3, #0]
      hi2c->pBuffPtr++;
 8003850:	6a63      	ldr	r3, [r4, #36]	@ 0x24
      hi2c->XferSize--;
 8003852:	8d22      	ldrh	r2, [r4, #40]	@ 0x28
      hi2c->pBuffPtr++;
 8003854:	3301      	adds	r3, #1
 8003856:	6263      	str	r3, [r4, #36]	@ 0x24
      hi2c->XferCount--;
 8003858:	8d63      	ldrh	r3, [r4, #42]	@ 0x2a
 800385a:	3b01      	subs	r3, #1
 800385c:	b29b      	uxth	r3, r3
 800385e:	8563      	strh	r3, [r4, #42]	@ 0x2a
      if ((hi2c->XferCount != 0U) && (hi2c->XferSize == 0U))
 8003860:	8d63      	ldrh	r3, [r4, #42]	@ 0x2a
      hi2c->XferSize--;
 8003862:	3a01      	subs	r2, #1
 8003864:	b292      	uxth	r2, r2
      if ((hi2c->XferCount != 0U) && (hi2c->XferSize == 0U))
 8003866:	b29b      	uxth	r3, r3
      hi2c->XferSize--;
 8003868:	8522      	strh	r2, [r4, #40]	@ 0x28
      if ((hi2c->XferCount != 0U) && (hi2c->XferSize == 0U))
 800386a:	2b00      	cmp	r3, #0
 800386c:	d0c2      	beq.n	80037f4 <HAL_I2C_Master_Receive+0x80>
 800386e:	2a00      	cmp	r2, #0
 8003870:	d1c0      	bne.n	80037f4 <HAL_I2C_Master_Receive+0x80>
        if (I2C_WaitOnFlagUntilTimeout(hi2c, I2C_FLAG_TCR, RESET, Timeout, tickstart) != HAL_OK)
 8003872:	9500      	str	r5, [sp, #0]
 8003874:	463b      	mov	r3, r7
 8003876:	2180      	movs	r1, #128	@ 0x80
 8003878:	4620      	mov	r0, r4
 800387a:	f7ff fdc1 	bl	8003400 <I2C_WaitOnFlagUntilTimeout>
 800387e:	2800      	cmp	r0, #0
 8003880:	d199      	bne.n	80037b6 <HAL_I2C_Master_Receive+0x42>
        if (hi2c->XferCount > MAX_NBYTE_SIZE)
 8003882:	8d63      	ldrh	r3, [r4, #42]	@ 0x2a
 8003884:	b29b      	uxth	r3, r3
 8003886:	2bff      	cmp	r3, #255	@ 0xff
 8003888:	d905      	bls.n	8003896 <HAL_I2C_Master_Receive+0x122>
          hi2c->XferSize = MAX_NBYTE_SIZE;
 800388a:	22ff      	movs	r2, #255	@ 0xff
 800388c:	8522      	strh	r2, [r4, #40]	@ 0x28
          I2C_TransferConfig(hi2c, DevAddress, (uint8_t)hi2c->XferSize, I2C_RELOAD_MODE,
 800388e:	f04f 7380 	mov.w	r3, #16777216	@ 0x1000000
 8003892:	9000      	str	r0, [sp, #0]
 8003894:	e7aa      	b.n	80037ec <HAL_I2C_Master_Receive+0x78>
          hi2c->XferSize = hi2c->XferCount;
 8003896:	8d62      	ldrh	r2, [r4, #42]	@ 0x2a
 8003898:	b292      	uxth	r2, r2
 800389a:	8522      	strh	r2, [r4, #40]	@ 0x28
          I2C_TransferConfig(hi2c, DevAddress, (uint8_t)hi2c->XferSize, I2C_AUTOEND_MODE,
 800389c:	9000      	str	r0, [sp, #0]
 800389e:	e7cb      	b.n	8003838 <HAL_I2C_Master_Receive+0xc4>
    __HAL_LOCK(hi2c);
 80038a0:	2002      	movs	r0, #2
 80038a2:	e789      	b.n	80037b8 <HAL_I2C_Master_Receive+0x44>
 80038a4:	80002400 	.word	0x80002400

080038a8 <HAL_I2C_Mem_Write>:
{
 80038a8:	e92d 4ff7 	stmdb	sp!, {r0, r1, r2, r4, r5, r6, r7, r8, r9, sl, fp, lr}
 80038ac:	4699      	mov	r9, r3
  if (hi2c->State == HAL_I2C_STATE_READY)
 80038ae:	f890 3041 	ldrb.w	r3, [r0, #65]	@ 0x41
{
 80038b2:	f8bd a034 	ldrh.w	sl, [sp, #52]	@ 0x34
 80038b6:	f8dd 8038 	ldr.w	r8, [sp, #56]	@ 0x38
  if (hi2c->State == HAL_I2C_STATE_READY)
 80038ba:	2b20      	cmp	r3, #32
{
 80038bc:	4604      	mov	r4, r0
 80038be:	460f      	mov	r7, r1
 80038c0:	4616      	mov	r6, r2
  if (hi2c->State == HAL_I2C_STATE_READY)
 80038c2:	f040 80c6 	bne.w	8003a52 <HAL_I2C_Mem_Write+0x1aa>
    if ((pData == NULL) || (Size == 0U))
 80038c6:	9b0c      	ldr	r3, [sp, #48]	@ 0x30
 80038c8:	b113      	cbz	r3, 80038d0 <HAL_I2C_Mem_Write+0x28>
 80038ca:	f1ba 0f00 	cmp.w	sl, #0
 80038ce:	d106      	bne.n	80038de <HAL_I2C_Mem_Write+0x36>
      hi2c->ErrorCode = HAL_I2C_ERROR_INVALID_PARAM;
 80038d0:	f44f 7300 	mov.w	r3, #512	@ 0x200
 80038d4:	6463      	str	r3, [r4, #68]	@ 0x44
      return  HAL_ERROR;
 80038d6:	2001      	movs	r0, #1
}
 80038d8:	b003      	add	sp, #12
 80038da:	e8bd 8ff0 	ldmia.w	sp!, {r4, r5, r6, r7, r8, r9, sl, fp, pc}
    __HAL_LOCK(hi2c);
 80038de:	f890 3040 	ldrb.w	r3, [r0, #64]	@ 0x40
 80038e2:	2b01      	cmp	r3, #1
 80038e4:	f000 80b5 	beq.w	8003a52 <HAL_I2C_Mem_Write+0x1aa>
 80038e8:	f04f 0b01 	mov.w	fp, #1
 80038ec:	f880 b040 	strb.w	fp, [r0, #64]	@ 0x40
    tickstart = HAL_GetTick();
 80038f0:	f7ff f956 	bl	8002ba0 <HAL_GetTick>
    if (I2C_WaitOnFlagUntilTimeout(hi2c, I2C_FLAG_BUSY, SET, I2C_TIMEOUT_BUSY, tickstart) != HAL_OK)
 80038f4:	2319      	movs	r3, #25
    tickstart = HAL_GetTick();
 80038f6:	4605      	mov	r5, r0
    if (I2C_WaitOnFlagUntilTimeout(hi2c, I2C_FLAG_BUSY, SET, I2C_TIMEOUT_BUSY, tickstart) != HAL_OK)
 80038f8:	9000      	str	r0, [sp, #0]
 80038fa:	465a      	mov	r2, fp
 80038fc:	f44f 4100 	mov.w	r1, #32768	@ 0x8000
 8003900:	4620      	mov	r0, r4
 8003902:	f7ff fd7d 	bl	8003400 <I2C_WaitOnFlagUntilTimeout>
 8003906:	2800      	cmp	r0, #0
 8003908:	d1e5      	bne.n	80038d6 <HAL_I2C_Mem_Write+0x2e>
    hi2c->State     = HAL_I2C_STATE_BUSY_TX;
 800390a:	2321      	movs	r3, #33	@ 0x21
 800390c:	f884 3041 	strb.w	r3, [r4, #65]	@ 0x41
    hi2c->Mode      = HAL_I2C_MODE_MEM;
 8003910:	2340      	movs	r3, #64	@ 0x40
 8003912:	f884 3042 	strb.w	r3, [r4, #66]	@ 0x42
    hi2c->pBuffPtr  = pData;
 8003916:	9b0c      	ldr	r3, [sp, #48]	@ 0x30
 8003918:	6263      	str	r3, [r4, #36]	@ 0x24
  I2C_TransferConfig(hi2c, DevAddress, (uint8_t)MemAddSize, I2C_RELOAD_MODE, I2C_GENERATE_START_WRITE);
 800391a:	4b4f      	ldr	r3, [pc, #316]	@ (8003a58 <HAL_I2C_Mem_Write+0x1b0>)
    hi2c->ErrorCode = HAL_I2C_ERROR_NONE;
 800391c:	6460      	str	r0, [r4, #68]	@ 0x44
    hi2c->XferISR   = NULL;
 800391e:	6360      	str	r0, [r4, #52]	@ 0x34
    hi2c->XferCount = Size;
 8003920:	f8a4 a02a 	strh.w	sl, [r4, #42]	@ 0x2a
  I2C_TransferConfig(hi2c, DevAddress, (uint8_t)MemAddSize, I2C_RELOAD_MODE, I2C_GENERATE_START_WRITE);
 8003924:	fa5f f289 	uxtb.w	r2, r9
 8003928:	9300      	str	r3, [sp, #0]
 800392a:	4639      	mov	r1, r7
 800392c:	4620      	mov	r0, r4
 800392e:	f04f 7380 	mov.w	r3, #16777216	@ 0x1000000
 8003932:	f7ff fc3b 	bl	80031ac <I2C_TransferConfig>
  if (I2C_WaitOnTXISFlagUntilTimeout(hi2c, Timeout, Tickstart) != HAL_OK)
 8003936:	462a      	mov	r2, r5
 8003938:	4641      	mov	r1, r8
 800393a:	4620      	mov	r0, r4
 800393c:	f7ff fd35 	bl	80033aa <I2C_WaitOnTXISFlagUntilTimeout>
 8003940:	bb18      	cbnz	r0, 800398a <HAL_I2C_Mem_Write+0xe2>
  if (MemAddSize == I2C_MEMADD_SIZE_8BIT)
 8003942:	f1b9 0f01 	cmp.w	r9, #1
    hi2c->Instance->TXDR = I2C_MEM_ADD_LSB(MemAddress);
 8003946:	6823      	ldr	r3, [r4, #0]
  if (MemAddSize == I2C_MEMADD_SIZE_8BIT)
 8003948:	d115      	bne.n	8003976 <HAL_I2C_Mem_Write+0xce>
    hi2c->Instance->TXDR = I2C_MEM_ADD_LSB(MemAddress);
 800394a:	b2f6      	uxtb	r6, r6
 800394c:	629e      	str	r6, [r3, #40]	@ 0x28
  if (I2C_WaitOnFlagUntilTimeout(hi2c, I2C_FLAG_TCR, RESET, Timeout, Tickstart) != HAL_OK)
 800394e:	2200      	movs	r2, #0
 8003950:	9500      	str	r5, [sp, #0]
 8003952:	4643      	mov	r3, r8
 8003954:	2180      	movs	r1, #128	@ 0x80
 8003956:	4620      	mov	r0, r4
 8003958:	f7ff fd52 	bl	8003400 <I2C_WaitOnFlagUntilTimeout>
 800395c:	b9a8      	cbnz	r0, 800398a <HAL_I2C_Mem_Write+0xe2>
    if (hi2c->XferCount > MAX_NBYTE_SIZE)
 800395e:	8d63      	ldrh	r3, [r4, #42]	@ 0x2a
 8003960:	b29b      	uxth	r3, r3
 8003962:	2bff      	cmp	r3, #255	@ 0xff
 8003964:	d815      	bhi.n	8003992 <HAL_I2C_Mem_Write+0xea>
      hi2c->XferSize = hi2c->XferCount;
 8003966:	8d62      	ldrh	r2, [r4, #42]	@ 0x2a
 8003968:	b292      	uxth	r2, r2
 800396a:	8522      	strh	r2, [r4, #40]	@ 0x28
      I2C_TransferConfig(hi2c, DevAddress, (uint8_t)hi2c->XferSize, I2C_AUTOEND_MODE, I2C_NO_STARTSTOP);
 800396c:	f04f 7300 	mov.w	r3, #33554432	@ 0x2000000
 8003970:	9000      	str	r0, [sp, #0]
 8003972:	b2d2      	uxtb	r2, r2
 8003974:	e012      	b.n	800399c <HAL_I2C_Mem_Write+0xf4>
    hi2c->Instance->TXDR = I2C_MEM_ADD_MSB(MemAddress);
 8003976:	0a32      	lsrs	r2, r6, #8
 8003978:	629a      	str	r2, [r3, #40]	@ 0x28
    if (I2C_WaitOnTXISFlagUntilTimeout(hi2c, Timeout, Tickstart) != HAL_OK)
 800397a:	4641      	mov	r1, r8
 800397c:	462a      	mov	r2, r5
 800397e:	4620      	mov	r0, r4
 8003980:	f7ff fd13 	bl	80033aa <I2C_WaitOnTXISFlagUntilTimeout>
 8003984:	b908      	cbnz	r0, 800398a <HAL_I2C_Mem_Write+0xe2>
    hi2c->Instance->TXDR = I2C_MEM_ADD_LSB(MemAddress);
 8003986:	6823      	ldr	r3, [r4, #0]
 8003988:	e7df      	b.n	800394a <HAL_I2C_Mem_Write+0xa2>
      __HAL_UNLOCK(hi2c);
 800398a:	2300      	movs	r3, #0
 800398c:	f884 3040 	strb.w	r3, [r4, #64]	@ 0x40
      return HAL_ERROR;
 8003990:	e7a1      	b.n	80038d6 <HAL_I2C_Mem_Write+0x2e>
      hi2c->XferSize = MAX_NBYTE_SIZE;
 8003992:	22ff      	movs	r2, #255	@ 0xff
 8003994:	8522      	strh	r2, [r4, #40]	@ 0x28
      I2C_TransferConfig(hi2c, DevAddress, (uint8_t)hi2c->XferSize, I2C_RELOAD_MODE, I2C_NO_STARTSTOP);
 8003996:	f04f 7380 	mov.w	r3, #16777216	@ 0x1000000
 800399a:	9000      	str	r0, [sp, #0]
      I2C_TransferConfig(hi2c, DevAddress, (uint8_t)hi2c->XferSize, I2C_AUTOEND_MODE, I2C_NO_STARTSTOP);
 800399c:	4639      	mov	r1, r7
 800399e:	4620      	mov	r0, r4
 80039a0:	f7ff fc04 	bl	80031ac <I2C_TransferConfig>
      if (I2C_WaitOnTXISFlagUntilTimeout(hi2c, Timeout, tickstart) != HAL_OK)
 80039a4:	462a      	mov	r2, r5
 80039a6:	4641      	mov	r1, r8
 80039a8:	4620      	mov	r0, r4
 80039aa:	f7ff fcfe 	bl	80033aa <I2C_WaitOnTXISFlagUntilTimeout>
 80039ae:	2800      	cmp	r0, #0
 80039b0:	d191      	bne.n	80038d6 <HAL_I2C_Mem_Write+0x2e>
      hi2c->Instance->TXDR = *hi2c->pBuffPtr;
 80039b2:	6a63      	ldr	r3, [r4, #36]	@ 0x24
 80039b4:	6822      	ldr	r2, [r4, #0]
 80039b6:	f813 1b01 	ldrb.w	r1, [r3], #1
 80039ba:	6291      	str	r1, [r2, #40]	@ 0x28
      hi2c->pBuffPtr++;
 80039bc:	6263      	str	r3, [r4, #36]	@ 0x24
      hi2c->XferCount--;
 80039be:	8d63      	ldrh	r3, [r4, #42]	@ 0x2a
      hi2c->XferSize--;
 80039c0:	8d22      	ldrh	r2, [r4, #40]	@ 0x28
      hi2c->XferCount--;
 80039c2:	3b01      	subs	r3, #1
 80039c4:	b29b      	uxth	r3, r3
 80039c6:	8563      	strh	r3, [r4, #42]	@ 0x2a
      if ((hi2c->XferCount != 0U) && (hi2c->XferSize == 0U))
 80039c8:	8d63      	ldrh	r3, [r4, #42]	@ 0x2a
      hi2c->XferSize--;
 80039ca:	3a01      	subs	r2, #1
 80039cc:	b292      	uxth	r2, r2
      if ((hi2c->XferCount != 0U) && (hi2c->XferSize == 0U))
 80039ce:	b29b      	uxth	r3, r3
      hi2c->XferSize--;
 80039d0:	8522      	strh	r2, [r4, #40]	@ 0x28
      if ((hi2c->XferCount != 0U) && (hi2c->XferSize == 0U))
 80039d2:	b1b3      	cbz	r3, 8003a02 <HAL_I2C_Mem_Write+0x15a>
 80039d4:	b9aa      	cbnz	r2, 8003a02 <HAL_I2C_Mem_Write+0x15a>
        if (I2C_WaitOnFlagUntilTimeout(hi2c, I2C_FLAG_TCR, RESET, Timeout, tickstart) != HAL_OK)
 80039d6:	9500      	str	r5, [sp, #0]
 80039d8:	4643      	mov	r3, r8
 80039da:	2180      	movs	r1, #128	@ 0x80
 80039dc:	4620      	mov	r0, r4
 80039de:	f7ff fd0f 	bl	8003400 <I2C_WaitOnFlagUntilTimeout>
 80039e2:	2800      	cmp	r0, #0
 80039e4:	f47f af77 	bne.w	80038d6 <HAL_I2C_Mem_Write+0x2e>
        if (hi2c->XferCount > MAX_NBYTE_SIZE)
 80039e8:	8d63      	ldrh	r3, [r4, #42]	@ 0x2a
 80039ea:	b29b      	uxth	r3, r3
 80039ec:	2bff      	cmp	r3, #255	@ 0xff
 80039ee:	d928      	bls.n	8003a42 <HAL_I2C_Mem_Write+0x19a>
          hi2c->XferSize = MAX_NBYTE_SIZE;
 80039f0:	22ff      	movs	r2, #255	@ 0xff
 80039f2:	8522      	strh	r2, [r4, #40]	@ 0x28
          I2C_TransferConfig(hi2c, DevAddress, (uint8_t)hi2c->XferSize, I2C_RELOAD_MODE,
 80039f4:	f04f 7380 	mov.w	r3, #16777216	@ 0x1000000
 80039f8:	9000      	str	r0, [sp, #0]
          I2C_TransferConfig(hi2c, DevAddress, (uint8_t)hi2c->XferSize, I2C_AUTOEND_MODE,
 80039fa:	4639      	mov	r1, r7
 80039fc:	4620      	mov	r0, r4
 80039fe:	f7ff fbd5 	bl	80031ac <I2C_TransferConfig>
    } while (hi2c->XferCount > 0U);
 8003a02:	8d63      	ldrh	r3, [r4, #42]	@ 0x2a
 8003a04:	b29b      	uxth	r3, r3
 8003a06:	2b00      	cmp	r3, #0
 8003a08:	d1cc      	bne.n	80039a4 <HAL_I2C_Mem_Write+0xfc>
    if (I2C_WaitOnSTOPFlagUntilTimeout(hi2c, Timeout, tickstart) != HAL_OK)
 8003a0a:	462a      	mov	r2, r5
 8003a0c:	4641      	mov	r1, r8
 8003a0e:	4620      	mov	r0, r4
 8003a10:	f7ff fd31 	bl	8003476 <I2C_WaitOnSTOPFlagUntilTimeout>
 8003a14:	2800      	cmp	r0, #0
 8003a16:	f47f af5e 	bne.w	80038d6 <HAL_I2C_Mem_Write+0x2e>
    __HAL_I2C_CLEAR_FLAG(hi2c, I2C_FLAG_STOPF);
 8003a1a:	6823      	ldr	r3, [r4, #0]
 8003a1c:	2120      	movs	r1, #32
 8003a1e:	61d9      	str	r1, [r3, #28]
    I2C_RESET_CR2(hi2c);
 8003a20:	685a      	ldr	r2, [r3, #4]
 8003a22:	f022 72ff 	bic.w	r2, r2, #33423360	@ 0x1fe0000
 8003a26:	f422 328b 	bic.w	r2, r2, #71168	@ 0x11600
 8003a2a:	f422 72ff 	bic.w	r2, r2, #510	@ 0x1fe
 8003a2e:	f022 0201 	bic.w	r2, r2, #1
 8003a32:	605a      	str	r2, [r3, #4]
    hi2c->State = HAL_I2C_STATE_READY;
 8003a34:	f884 1041 	strb.w	r1, [r4, #65]	@ 0x41
    __HAL_UNLOCK(hi2c);
 8003a38:	f884 0040 	strb.w	r0, [r4, #64]	@ 0x40
    hi2c->Mode  = HAL_I2C_MODE_NONE;
 8003a3c:	f884 0042 	strb.w	r0, [r4, #66]	@ 0x42
    return HAL_OK;
 8003a40:	e74a      	b.n	80038d8 <HAL_I2C_Mem_Write+0x30>
          hi2c->XferSize = hi2c->XferCount;
 8003a42:	8d62      	ldrh	r2, [r4, #42]	@ 0x2a
 8003a44:	b292      	uxth	r2, r2
 8003a46:	8522      	strh	r2, [r4, #40]	@ 0x28
          I2C_TransferConfig(hi2c, DevAddress, (uint8_t)hi2c->XferSize, I2C_AUTOEND_MODE,
 8003a48:	f04f 7300 	mov.w	r3, #33554432	@ 0x2000000
 8003a4c:	9000      	str	r0, [sp, #0]
 8003a4e:	b2d2      	uxtb	r2, r2
 8003a50:	e7d3      	b.n	80039fa <HAL_I2C_Mem_Write+0x152>
    __HAL_LOCK(hi2c);
 8003a52:	2002      	movs	r0, #2
 8003a54:	e740      	b.n	80038d8 <HAL_I2C_Mem_Write+0x30>
 8003a56:	bf00      	nop
 8003a58:	80002000 	.word	0x80002000

08003a5c <HAL_I2C_Mem_Read>:
{
 8003a5c:	e92d 4ff7 	stmdb	sp!, {r0, r1, r2, r4, r5, r6, r7, r8, r9, sl, fp, lr}
 8003a60:	4699      	mov	r9, r3
  if (hi2c->State == HAL_I2C_STATE_READY)
 8003a62:	f890 3041 	ldrb.w	r3, [r0, #65]	@ 0x41
{
 8003a66:	f8bd a034 	ldrh.w	sl, [sp, #52]	@ 0x34
 8003a6a:	f8dd 8038 	ldr.w	r8, [sp, #56]	@ 0x38
  if (hi2c->State == HAL_I2C_STATE_READY)
 8003a6e:	2b20      	cmp	r3, #32
{
 8003a70:	4604      	mov	r4, r0
 8003a72:	460f      	mov	r7, r1
 8003a74:	4616      	mov	r6, r2
  if (hi2c->State == HAL_I2C_STATE_READY)
 8003a76:	f040 80c9 	bne.w	8003c0c <HAL_I2C_Mem_Read+0x1b0>
    if ((pData == NULL) || (Size == 0U))
 8003a7a:	9b0c      	ldr	r3, [sp, #48]	@ 0x30
 8003a7c:	b113      	cbz	r3, 8003a84 <HAL_I2C_Mem_Read+0x28>
 8003a7e:	f1ba 0f00 	cmp.w	sl, #0
 8003a82:	d106      	bne.n	8003a92 <HAL_I2C_Mem_Read+0x36>
      hi2c->ErrorCode = HAL_I2C_ERROR_INVALID_PARAM;
 8003a84:	f44f 7300 	mov.w	r3, #512	@ 0x200
 8003a88:	6463      	str	r3, [r4, #68]	@ 0x44
      return  HAL_ERROR;
 8003a8a:	2001      	movs	r0, #1
}
 8003a8c:	b003      	add	sp, #12
 8003a8e:	e8bd 8ff0 	ldmia.w	sp!, {r4, r5, r6, r7, r8, r9, sl, fp, pc}
    __HAL_LOCK(hi2c);
 8003a92:	f890 3040 	ldrb.w	r3, [r0, #64]	@ 0x40
 8003a96:	2b01      	cmp	r3, #1
 8003a98:	f000 80b8 	beq.w	8003c0c <HAL_I2C_Mem_Read+0x1b0>
 8003a9c:	f04f 0b01 	mov.w	fp, #1
 8003aa0:	f880 b040 	strb.w	fp, [r0, #64]	@ 0x40
    tickstart = HAL_GetTick();
 8003aa4:	f7ff f87c 	bl	8002ba0 <HAL_GetTick>
    if (I2C_WaitOnFlagUntilTimeout(hi2c, I2C_FLAG_BUSY, SET, I2C_TIMEOUT_BUSY, tickstart) != HAL_OK)
 8003aa8:	2319      	movs	r3, #25
 8003aaa:	9000      	str	r0, [sp, #0]
    tickstart = HAL_GetTick();
 8003aac:	4605      	mov	r5, r0
    if (I2C_WaitOnFlagUntilTimeout(hi2c, I2C_FLAG_BUSY, SET, I2C_TIMEOUT_BUSY, tickstart) != HAL_OK)
 8003aae:	465a      	mov	r2, fp
 8003ab0:	f44f 4100 	mov.w	r1, #32768	@ 0x8000
 8003ab4:	4620      	mov	r0, r4
 8003ab6:	f7ff fca3 	bl	8003400 <I2C_WaitOnFlagUntilTimeout>
 8003aba:	4603      	mov	r3, r0
 8003abc:	2800      	cmp	r0, #0
 8003abe:	d1e4      	bne.n	8003a8a <HAL_I2C_Mem_Read+0x2e>
    hi2c->State     = HAL_I2C_STATE_BUSY_RX;
 8003ac0:	2222      	movs	r2, #34	@ 0x22
 8003ac2:	f884 2041 	strb.w	r2, [r4, #65]	@ 0x41
    hi2c->Mode      = HAL_I2C_MODE_MEM;
 8003ac6:	2240      	movs	r2, #64	@ 0x40
 8003ac8:	f884 2042 	strb.w	r2, [r4, #66]	@ 0x42
    hi2c->pBuffPtr  = pData;
 8003acc:	9a0c      	ldr	r2, [sp, #48]	@ 0x30
 8003ace:	6262      	str	r2, [r4, #36]	@ 0x24
  I2C_TransferConfig(hi2c, DevAddress, (uint8_t)MemAddSize, I2C_SOFTEND_MODE, I2C_GENERATE_START_WRITE);
 8003ad0:	4a4f      	ldr	r2, [pc, #316]	@ (8003c10 <HAL_I2C_Mem_Read+0x1b4>)
    hi2c->ErrorCode = HAL_I2C_ERROR_NONE;
 8003ad2:	6460      	str	r0, [r4, #68]	@ 0x44
    hi2c->XferISR   = NULL;
 8003ad4:	6360      	str	r0, [r4, #52]	@ 0x34
    hi2c->XferCount = Size;
 8003ad6:	f8a4 a02a 	strh.w	sl, [r4, #42]	@ 0x2a
  I2C_TransferConfig(hi2c, DevAddress, (uint8_t)MemAddSize, I2C_SOFTEND_MODE, I2C_GENERATE_START_WRITE);
 8003ada:	4639      	mov	r1, r7
 8003adc:	9200      	str	r2, [sp, #0]
 8003ade:	4620      	mov	r0, r4
 8003ae0:	fa5f f289 	uxtb.w	r2, r9
 8003ae4:	f7ff fb62 	bl	80031ac <I2C_TransferConfig>
  if (I2C_WaitOnTXISFlagUntilTimeout(hi2c, Timeout, Tickstart) != HAL_OK)
 8003ae8:	462a      	mov	r2, r5
 8003aea:	4641      	mov	r1, r8
 8003aec:	4620      	mov	r0, r4
 8003aee:	f7ff fc5c 	bl	80033aa <I2C_WaitOnTXISFlagUntilTimeout>
 8003af2:	bb20      	cbnz	r0, 8003b3e <HAL_I2C_Mem_Read+0xe2>
  if (MemAddSize == I2C_MEMADD_SIZE_8BIT)
 8003af4:	f1b9 0f01 	cmp.w	r9, #1
    hi2c->Instance->TXDR = I2C_MEM_ADD_LSB(MemAddress);
 8003af8:	6823      	ldr	r3, [r4, #0]
  if (MemAddSize == I2C_MEMADD_SIZE_8BIT)
 8003afa:	d116      	bne.n	8003b2a <HAL_I2C_Mem_Read+0xce>
    hi2c->Instance->TXDR = I2C_MEM_ADD_LSB(MemAddress);
 8003afc:	b2f6      	uxtb	r6, r6
 8003afe:	629e      	str	r6, [r3, #40]	@ 0x28
  if (I2C_WaitOnFlagUntilTimeout(hi2c, I2C_FLAG_TC, RESET, Timeout, Tickstart) != HAL_OK)
 8003b00:	2200      	movs	r2, #0
 8003b02:	9500      	str	r5, [sp, #0]
 8003b04:	4643      	mov	r3, r8
 8003b06:	2140      	movs	r1, #64	@ 0x40
 8003b08:	4620      	mov	r0, r4
 8003b0a:	f7ff fc79 	bl	8003400 <I2C_WaitOnFlagUntilTimeout>
 8003b0e:	b9b0      	cbnz	r0, 8003b3e <HAL_I2C_Mem_Read+0xe2>
    if (hi2c->XferCount > MAX_NBYTE_SIZE)
 8003b10:	8d63      	ldrh	r3, [r4, #42]	@ 0x2a
 8003b12:	b29b      	uxth	r3, r3
 8003b14:	2bff      	cmp	r3, #255	@ 0xff
 8003b16:	4b3f      	ldr	r3, [pc, #252]	@ (8003c14 <HAL_I2C_Mem_Read+0x1b8>)
 8003b18:	d815      	bhi.n	8003b46 <HAL_I2C_Mem_Read+0xea>
      hi2c->XferSize = hi2c->XferCount;
 8003b1a:	8d62      	ldrh	r2, [r4, #42]	@ 0x2a
 8003b1c:	b292      	uxth	r2, r2
 8003b1e:	8522      	strh	r2, [r4, #40]	@ 0x28
      I2C_TransferConfig(hi2c, DevAddress, (uint8_t)hi2c->XferSize, I2C_AUTOEND_MODE,
 8003b20:	9300      	str	r3, [sp, #0]
 8003b22:	b2d2      	uxtb	r2, r2
 8003b24:	f04f 7300 	mov.w	r3, #33554432	@ 0x2000000
 8003b28:	e012      	b.n	8003b50 <HAL_I2C_Mem_Read+0xf4>
    hi2c->Instance->TXDR = I2C_MEM_ADD_MSB(MemAddress);
 8003b2a:	0a32      	lsrs	r2, r6, #8
 8003b2c:	629a      	str	r2, [r3, #40]	@ 0x28
    if (I2C_WaitOnTXISFlagUntilTimeout(hi2c, Timeout, Tickstart) != HAL_OK)
 8003b2e:	4641      	mov	r1, r8
 8003b30:	462a      	mov	r2, r5
 8003b32:	4620      	mov	r0, r4
 8003b34:	f7ff fc39 	bl	80033aa <I2C_WaitOnTXISFlagUntilTimeout>
 8003b38:	b908      	cbnz	r0, 8003b3e <HAL_I2C_Mem_Read+0xe2>
    hi2c->Instance->TXDR = I2C_MEM_ADD_LSB(MemAddress);
 8003b3a:	6823      	ldr	r3, [r4, #0]
 8003b3c:	e7de      	b.n	8003afc <HAL_I2C_Mem_Read+0xa0>
      __HAL_UNLOCK(hi2c);
 8003b3e:	2300      	movs	r3, #0
 8003b40:	f884 3040 	strb.w	r3, [r4, #64]	@ 0x40
      return HAL_ERROR;
 8003b44:	e7a1      	b.n	8003a8a <HAL_I2C_Mem_Read+0x2e>
      hi2c->XferSize = 1U;
 8003b46:	2201      	movs	r2, #1
 8003b48:	8522      	strh	r2, [r4, #40]	@ 0x28
      I2C_TransferConfig(hi2c, DevAddress, (uint8_t)hi2c->XferSize, I2C_RELOAD_MODE,
 8003b4a:	9300      	str	r3, [sp, #0]
 8003b4c:	f04f 7380 	mov.w	r3, #16777216	@ 0x1000000
      I2C_TransferConfig(hi2c, DevAddress, (uint8_t)hi2c->XferSize, I2C_AUTOEND_MODE,
 8003b50:	4639      	mov	r1, r7
 8003b52:	4620      	mov	r0, r4
 8003b54:	f7ff fb2a 	bl	80031ac <I2C_TransferConfig>
      if (I2C_WaitOnFlagUntilTimeout(hi2c, I2C_FLAG_RXNE, RESET, Timeout, tickstart) != HAL_OK)
 8003b58:	9500      	str	r5, [sp, #0]
 8003b5a:	4643      	mov	r3, r8
 8003b5c:	2200      	movs	r2, #0
 8003b5e:	2104      	movs	r1, #4
 8003b60:	4620      	mov	r0, r4
 8003b62:	f7ff fc4d 	bl	8003400 <I2C_WaitOnFlagUntilTimeout>
 8003b66:	2800      	cmp	r0, #0
 8003b68:	d18f      	bne.n	8003a8a <HAL_I2C_Mem_Read+0x2e>
      *hi2c->pBuffPtr = (uint8_t)hi2c->Instance->RXDR;
 8003b6a:	6823      	ldr	r3, [r4, #0]
 8003b6c:	6a5a      	ldr	r2, [r3, #36]	@ 0x24
 8003b6e:	6a63      	ldr	r3, [r4, #36]	@ 0x24
 8003b70:	701a      	strb	r2, [r3, #0]
      hi2c->pBuffPtr++;
 8003b72:	6a63      	ldr	r3, [r4, #36]	@ 0x24
      hi2c->XferSize--;
 8003b74:	8d22      	ldrh	r2, [r4, #40]	@ 0x28
      hi2c->pBuffPtr++;
 8003b76:	3301      	adds	r3, #1
 8003b78:	6263      	str	r3, [r4, #36]	@ 0x24
      hi2c->XferCount--;
 8003b7a:	8d63      	ldrh	r3, [r4, #42]	@ 0x2a
 8003b7c:	3b01      	subs	r3, #1
 8003b7e:	b29b      	uxth	r3, r3
 8003b80:	8563      	strh	r3, [r4, #42]	@ 0x2a
      if ((hi2c->XferCount != 0U) && (hi2c->XferSize == 0U))
 8003b82:	8d63      	ldrh	r3, [r4, #42]	@ 0x2a
      hi2c->XferSize--;
 8003b84:	3a01      	subs	r2, #1
 8003b86:	b292      	uxth	r2, r2
      if ((hi2c->XferCount != 0U) && (hi2c->XferSize == 0U))
 8003b88:	b29b      	uxth	r3, r3
      hi2c->XferSize--;
 8003b8a:	8522      	strh	r2, [r4, #40]	@ 0x28
      if ((hi2c->XferCount != 0U) && (hi2c->XferSize == 0U))
 8003b8c:	b1b3      	cbz	r3, 8003bbc <HAL_I2C_Mem_Read+0x160>
 8003b8e:	b9aa      	cbnz	r2, 8003bbc <HAL_I2C_Mem_Read+0x160>
        if (I2C_WaitOnFlagUntilTimeout(hi2c, I2C_FLAG_TCR, RESET, Timeout, tickstart) != HAL_OK)
 8003b90:	9500      	str	r5, [sp, #0]
 8003b92:	4643      	mov	r3, r8
 8003b94:	2180      	movs	r1, #128	@ 0x80
 8003b96:	4620      	mov	r0, r4
 8003b98:	f7ff fc32 	bl	8003400 <I2C_WaitOnFlagUntilTimeout>
 8003b9c:	2800      	cmp	r0, #0
 8003b9e:	f47f af74 	bne.w	8003a8a <HAL_I2C_Mem_Read+0x2e>
        if (hi2c->XferCount > MAX_NBYTE_SIZE)
 8003ba2:	8d63      	ldrh	r3, [r4, #42]	@ 0x2a
 8003ba4:	b29b      	uxth	r3, r3
 8003ba6:	2bff      	cmp	r3, #255	@ 0xff
 8003ba8:	d928      	bls.n	8003bfc <HAL_I2C_Mem_Read+0x1a0>
          hi2c->XferSize = 1U;
 8003baa:	2201      	movs	r2, #1
 8003bac:	8522      	strh	r2, [r4, #40]	@ 0x28
          I2C_TransferConfig(hi2c, DevAddress, (uint8_t) hi2c->XferSize, I2C_RELOAD_MODE,
 8003bae:	f04f 7380 	mov.w	r3, #16777216	@ 0x1000000
 8003bb2:	9000      	str	r0, [sp, #0]
          I2C_TransferConfig(hi2c, DevAddress, (uint8_t)hi2c->XferSize, I2C_AUTOEND_MODE,
 8003bb4:	4639      	mov	r1, r7
 8003bb6:	4620      	mov	r0, r4
 8003bb8:	f7ff faf8 	bl	80031ac <I2C_TransferConfig>
    } while (hi2c->XferCount > 0U);
 8003bbc:	8d63      	ldrh	r3, [r4, #42]	@ 0x2a
 8003bbe:	b29b      	uxth	r3, r3
 8003bc0:	2b00      	cmp	r3, #0
 8003bc2:	d1c9      	bne.n	8003b58 <HAL_I2C_Mem_Read+0xfc>
    if (I2C_WaitOnSTOPFlagUntilTimeout(hi2c, Timeout, tickstart) != HAL_OK)
 8003bc4:	462a      	mov	r2, r5
 8003bc6:	4641      	mov	r1, r8
 8003bc8:	4620      	mov	r0, r4
 8003bca:	f7ff fc54 	bl	8003476 <I2C_WaitOnSTOPFlagUntilTimeout>
 8003bce:	2800      	cmp	r0, #0
 8003bd0:	f47f af5b 	bne.w	8003a8a <HAL_I2C_Mem_Read+0x2e>
    __HAL_I2C_CLEAR_FLAG(hi2c, I2C_FLAG_STOPF);
 8003bd4:	6823      	ldr	r3, [r4, #0]
 8003bd6:	2120      	movs	r1, #32
 8003bd8:	61d9      	str	r1, [r3, #28]
    I2C_RESET_CR2(hi2c);
 8003bda:	685a      	ldr	r2, [r3, #4]
 8003bdc:	f022 72ff 	bic.w	r2, r2, #33423360	@ 0x1fe0000
 8003be0:	f422 328b 	bic.w	r2, r2, #71168	@ 0x11600
 8003be4:	f422 72ff 	bic.w	r2, r2, #510	@ 0x1fe
 8003be8:	f022 0201 	bic.w	r2, r2, #1
 8003bec:	605a      	str	r2, [r3, #4]
    hi2c->State = HAL_I2C_STATE_READY;
 8003bee:	f884 1041 	strb.w	r1, [r4, #65]	@ 0x41
    __HAL_UNLOCK(hi2c);
 8003bf2:	f884 0040 	strb.w	r0, [r4, #64]	@ 0x40
    hi2c->Mode  = HAL_I2C_MODE_NONE;
 8003bf6:	f884 0042 	strb.w	r0, [r4, #66]	@ 0x42
    return HAL_OK;
 8003bfa:	e747      	b.n	8003a8c <HAL_I2C_Mem_Read+0x30>
          hi2c->XferSize = hi2c->XferCount;
 8003bfc:	8d62      	ldrh	r2, [r4, #42]	@ 0x2a
 8003bfe:	b292      	uxth	r2, r2
 8003c00:	8522      	strh	r2, [r4, #40]	@ 0x28
          I2C_TransferConfig(hi2c, DevAddress, (uint8_t)hi2c->XferSize, I2C_AUTOEND_MODE,
 8003c02:	f04f 7300 	mov.w	r3, #33554432	@ 0x2000000
 8003c06:	9000      	str	r0, [sp, #0]
 8003c08:	b2d2      	uxtb	r2, r2
 8003c0a:	e7d3      	b.n	8003bb4 <HAL_I2C_Mem_Read+0x158>
    __HAL_LOCK(hi2c);
 8003c0c:	2002      	movs	r0, #2
 8003c0e:	e73d      	b.n	8003a8c <HAL_I2C_Mem_Read+0x30>
 8003c10:	80002000 	.word	0x80002000
 8003c14:	80002400 	.word	0x80002400

08003c18 <HAL_I2C_Mem_Read_DMA>:
{
 8003c18:	e92d 41f3 	stmdb	sp!, {r0, r1, r4, r5, r6, r7, r8, lr}
 8003c1c:	4604      	mov	r4, r0
 8003c1e:	461f      	mov	r7, r3
  if (hi2c->State == HAL_I2C_STATE_READY)
 8003c20:	f894 3041 	ldrb.w	r3, [r4, #65]	@ 0x41
{
 8003c24:	f8bd 5024 	ldrh.w	r5, [sp, #36]	@ 0x24
  if (hi2c->State == HAL_I2C_STATE_READY)
 8003c28:	2b20      	cmp	r3, #32
{
 8003c2a:	4610      	mov	r0, r2
 8003c2c:	460e      	mov	r6, r1
 8003c2e:	9a08      	ldr	r2, [sp, #32]
  if (hi2c->State == HAL_I2C_STATE_READY)
 8003c30:	d173      	bne.n	8003d1a <HAL_I2C_Mem_Read_DMA+0x102>
    if ((pData == NULL) || (Size == 0U))
 8003c32:	b102      	cbz	r2, 8003c36 <HAL_I2C_Mem_Read_DMA+0x1e>
 8003c34:	b93d      	cbnz	r5, 8003c46 <HAL_I2C_Mem_Read_DMA+0x2e>
      hi2c->ErrorCode = HAL_I2C_ERROR_INVALID_PARAM;
 8003c36:	f44f 7300 	mov.w	r3, #512	@ 0x200
 8003c3a:	6463      	str	r3, [r4, #68]	@ 0x44
      return  HAL_ERROR;
 8003c3c:	2501      	movs	r5, #1
}
 8003c3e:	4628      	mov	r0, r5
 8003c40:	b002      	add	sp, #8
 8003c42:	e8bd 81f0 	ldmia.w	sp!, {r4, r5, r6, r7, r8, pc}
    if (__HAL_I2C_GET_FLAG(hi2c, I2C_FLAG_BUSY) == SET)
 8003c46:	6821      	ldr	r1, [r4, #0]
 8003c48:	698b      	ldr	r3, [r1, #24]
 8003c4a:	f413 4300 	ands.w	r3, r3, #32768	@ 0x8000
 8003c4e:	d164      	bne.n	8003d1a <HAL_I2C_Mem_Read_DMA+0x102>
    __HAL_LOCK(hi2c);
 8003c50:	f894 c040 	ldrb.w	ip, [r4, #64]	@ 0x40
 8003c54:	f1bc 0f01 	cmp.w	ip, #1
 8003c58:	d05f      	beq.n	8003d1a <HAL_I2C_Mem_Read_DMA+0x102>
 8003c5a:	f04f 0c01 	mov.w	ip, #1
 8003c5e:	f884 c040 	strb.w	ip, [r4, #64]	@ 0x40
    hi2c->State       = HAL_I2C_STATE_BUSY_RX;
 8003c62:	f04f 0c22 	mov.w	ip, #34	@ 0x22
 8003c66:	f884 c041 	strb.w	ip, [r4, #65]	@ 0x41
    hi2c->Mode        = HAL_I2C_MODE_MEM;
 8003c6a:	f04f 0c40 	mov.w	ip, #64	@ 0x40
 8003c6e:	f884 c042 	strb.w	ip, [r4, #66]	@ 0x42
    hi2c->ErrorCode   = HAL_I2C_ERROR_NONE;
 8003c72:	6463      	str	r3, [r4, #68]	@ 0x44
    hi2c->XferOptions = I2C_NO_OPTION_FRAME;
 8003c74:	4b2a      	ldr	r3, [pc, #168]	@ (8003d20 <HAL_I2C_Mem_Read_DMA+0x108>)
    hi2c->XferCount   = Size;
 8003c76:	8565      	strh	r5, [r4, #42]	@ 0x2a
    hi2c->XferOptions = I2C_NO_OPTION_FRAME;
 8003c78:	62e3      	str	r3, [r4, #44]	@ 0x2c
    hi2c->Devaddress  = DevAddress;
 8003c7a:	64e6      	str	r6, [r4, #76]	@ 0x4c
    hi2c->XferISR     = I2C_Mem_ISR_DMA;
 8003c7c:	4b29      	ldr	r3, [pc, #164]	@ (8003d24 <HAL_I2C_Mem_Read_DMA+0x10c>)
 8003c7e:	6363      	str	r3, [r4, #52]	@ 0x34
    if (hi2c->XferCount > MAX_NBYTE_SIZE)
 8003c80:	8d63      	ldrh	r3, [r4, #42]	@ 0x2a
    hi2c->pBuffPtr    = pData;
 8003c82:	6262      	str	r2, [r4, #36]	@ 0x24
    if (hi2c->XferCount > MAX_NBYTE_SIZE)
 8003c84:	b29b      	uxth	r3, r3
 8003c86:	2bff      	cmp	r3, #255	@ 0xff
      hi2c->XferSize = hi2c->XferCount;
 8003c88:	bf96      	itet	ls
 8003c8a:	8d63      	ldrhls	r3, [r4, #42]	@ 0x2a
      hi2c->XferSize = MAX_NBYTE_SIZE;
 8003c8c:	23ff      	movhi	r3, #255	@ 0xff
      hi2c->XferSize = hi2c->XferCount;
 8003c8e:	b29b      	uxthls	r3, r3
    if (MemAddSize == I2C_MEMADD_SIZE_8BIT)
 8003c90:	2f01      	cmp	r7, #1
      hi2c->Instance->TXDR = I2C_MEM_ADD_LSB(MemAddress);
 8003c92:	b2c5      	uxtb	r5, r0
      hi2c->Memaddress = 0xFFFFFFFFU;
 8003c94:	bf0c      	ite	eq
 8003c96:	f04f 30ff 	moveq.w	r0, #4294967295
      hi2c->Instance->TXDR = I2C_MEM_ADD_MSB(MemAddress);
 8003c9a:	0a00      	lsrne	r0, r0, #8
 8003c9c:	8523      	strh	r3, [r4, #40]	@ 0x28
 8003c9e:	bf12      	itee	ne
 8003ca0:	6288      	strne	r0, [r1, #40]	@ 0x28
      hi2c->Instance->TXDR = I2C_MEM_ADD_LSB(MemAddress);
 8003ca2:	628d      	streq	r5, [r1, #40]	@ 0x28
      hi2c->Memaddress = 0xFFFFFFFFU;
 8003ca4:	6520      	streq	r0, [r4, #80]	@ 0x50
    if (hi2c->hdmarx != NULL)
 8003ca6:	6be0      	ldr	r0, [r4, #60]	@ 0x3c
      hi2c->Memaddress = I2C_MEM_ADD_LSB(MemAddress);
 8003ca8:	bf18      	it	ne
 8003caa:	6525      	strne	r5, [r4, #80]	@ 0x50
    if (hi2c->hdmarx != NULL)
 8003cac:	b1e8      	cbz	r0, 8003cea <HAL_I2C_Mem_Read_DMA+0xd2>
      hi2c->hdmarx->XferCpltCallback = I2C_DMAMasterReceiveCplt;
 8003cae:	4d1e      	ldr	r5, [pc, #120]	@ (8003d28 <HAL_I2C_Mem_Read_DMA+0x110>)
 8003cb0:	6285      	str	r5, [r0, #40]	@ 0x28
      hi2c->hdmarx->XferHalfCpltCallback = NULL;
 8003cb2:	f04f 0800 	mov.w	r8, #0
      hi2c->hdmarx->XferErrorCallback = I2C_DMAError;
 8003cb6:	4d1d      	ldr	r5, [pc, #116]	@ (8003d2c <HAL_I2C_Mem_Read_DMA+0x114>)
 8003cb8:	6305      	str	r5, [r0, #48]	@ 0x30
      hi2c->hdmarx->XferHalfCpltCallback = NULL;
 8003cba:	f8c0 802c 	str.w	r8, [r0, #44]	@ 0x2c
      hi2c->hdmarx->XferAbortCallback = NULL;
 8003cbe:	f8c0 8034 	str.w	r8, [r0, #52]	@ 0x34
      dmaxferstatus = HAL_DMA_Start_IT(hi2c->hdmarx, (uint32_t)&hi2c->Instance->RXDR, (uint32_t)pData,
 8003cc2:	3124      	adds	r1, #36	@ 0x24
 8003cc4:	f7ff f8e4 	bl	8002e90 <HAL_DMA_Start_IT>
    if (dmaxferstatus == HAL_OK)
 8003cc8:	4605      	mov	r5, r0
 8003cca:	b9d0      	cbnz	r0, 8003d02 <HAL_I2C_Mem_Read_DMA+0xea>
      I2C_TransferConfig(hi2c, DevAddress, (uint8_t)MemAddSize, I2C_SOFTEND_MODE, I2C_GENERATE_START_WRITE);
 8003ccc:	4b18      	ldr	r3, [pc, #96]	@ (8003d30 <HAL_I2C_Mem_Read_DMA+0x118>)
 8003cce:	9300      	str	r3, [sp, #0]
 8003cd0:	4631      	mov	r1, r6
 8003cd2:	4603      	mov	r3, r0
 8003cd4:	b2fa      	uxtb	r2, r7
 8003cd6:	4620      	mov	r0, r4
 8003cd8:	f7ff fa68 	bl	80031ac <I2C_TransferConfig>
      __HAL_UNLOCK(hi2c);
 8003cdc:	f884 5040 	strb.w	r5, [r4, #64]	@ 0x40
      I2C_Enable_IRQ(hi2c, I2C_XFER_TX_IT);
 8003ce0:	2101      	movs	r1, #1
 8003ce2:	4620      	mov	r0, r4
 8003ce4:	f7ff fa78 	bl	80031d8 <I2C_Enable_IRQ>
    return HAL_OK;
 8003ce8:	e7a9      	b.n	8003c3e <HAL_I2C_Mem_Read_DMA+0x26>
      hi2c->State     = HAL_I2C_STATE_READY;
 8003cea:	2320      	movs	r3, #32
 8003cec:	f884 3041 	strb.w	r3, [r4, #65]	@ 0x41
      hi2c->Mode      = HAL_I2C_MODE_NONE;
 8003cf0:	f884 0042 	strb.w	r0, [r4, #66]	@ 0x42
      hi2c->ErrorCode |= HAL_I2C_ERROR_DMA_PARAM;
 8003cf4:	6c63      	ldr	r3, [r4, #68]	@ 0x44
      __HAL_UNLOCK(hi2c);
 8003cf6:	f884 0040 	strb.w	r0, [r4, #64]	@ 0x40
      hi2c->ErrorCode |= HAL_I2C_ERROR_DMA_PARAM;
 8003cfa:	f043 0380 	orr.w	r3, r3, #128	@ 0x80
 8003cfe:	6463      	str	r3, [r4, #68]	@ 0x44
      return HAL_ERROR;
 8003d00:	e79c      	b.n	8003c3c <HAL_I2C_Mem_Read_DMA+0x24>
      hi2c->State     = HAL_I2C_STATE_READY;
 8003d02:	2320      	movs	r3, #32
 8003d04:	f884 3041 	strb.w	r3, [r4, #65]	@ 0x41
      hi2c->Mode      = HAL_I2C_MODE_NONE;
 8003d08:	f884 8042 	strb.w	r8, [r4, #66]	@ 0x42
      hi2c->ErrorCode |= HAL_I2C_ERROR_DMA;
 8003d0c:	6c63      	ldr	r3, [r4, #68]	@ 0x44
      __HAL_UNLOCK(hi2c);
 8003d0e:	f884 8040 	strb.w	r8, [r4, #64]	@ 0x40
      hi2c->ErrorCode |= HAL_I2C_ERROR_DMA;
 8003d12:	f043 0310 	orr.w	r3, r3, #16
 8003d16:	6463      	str	r3, [r4, #68]	@ 0x44
      return HAL_ERROR;
 8003d18:	e790      	b.n	8003c3c <HAL_I2C_Mem_Read_DMA+0x24>
      return HAL_BUSY;
 8003d1a:	2502      	movs	r5, #2
 8003d1c:	e78f      	b.n	8003c3e <HAL_I2C_Mem_Read_DMA+0x26>
 8003d1e:	bf00      	nop
 8003d20:	ffff0000 	.word	0xffff0000
 8003d24:	08004109 	.word	0x08004109
 8003d28:	08004369 	.word	0x08004369
 8003d2c:	08004357 	.word	0x08004357
 8003d30:	80002000 	.word	0x80002000

08003d34 <HAL_I2C_EV_IRQHandler>:
  uint32_t itflags   = READ_REG(hi2c->Instance->ISR);
 8003d34:	6802      	ldr	r2, [r0, #0]
  if (hi2c->XferISR != NULL)
 8003d36:	6b43      	ldr	r3, [r0, #52]	@ 0x34
  uint32_t itflags   = READ_REG(hi2c->Instance->ISR);
 8003d38:	6991      	ldr	r1, [r2, #24]
  uint32_t itsources = READ_REG(hi2c->Instance->CR1);
 8003d3a:	6812      	ldr	r2, [r2, #0]
  if (hi2c->XferISR != NULL)
 8003d3c:	b103      	cbz	r3, 8003d40 <HAL_I2C_EV_IRQHandler+0xc>
    hi2c->XferISR(hi2c, itflags, itsources);
 8003d3e:	4718      	bx	r3
}
 8003d40:	4770      	bx	lr

08003d42 <HAL_I2C_MasterTxCpltCallback>:
__weak void HAL_I2C_MasterTxCpltCallback(I2C_HandleTypeDef *hi2c)
 8003d42:	4770      	bx	lr

08003d44 <HAL_I2C_MasterRxCpltCallback>:
__weak void HAL_I2C_MasterRxCpltCallback(I2C_HandleTypeDef *hi2c)
 8003d44:	4770      	bx	lr

08003d46 <I2C_ITMasterSeqCplt>:
{
 8003d46:	b538      	push	{r3, r4, r5, lr}
  hi2c->Mode = HAL_I2C_MODE_NONE;
 8003d48:	2500      	movs	r5, #0
 8003d4a:	f880 5042 	strb.w	r5, [r0, #66]	@ 0x42
  if (hi2c->State == HAL_I2C_STATE_BUSY_TX)
 8003d4e:	f890 3041 	ldrb.w	r3, [r0, #65]	@ 0x41
 8003d52:	2b21      	cmp	r3, #33	@ 0x21
 8003d54:	f04f 0320 	mov.w	r3, #32
    hi2c->State         = HAL_I2C_STATE_READY;
 8003d58:	f880 3041 	strb.w	r3, [r0, #65]	@ 0x41
  if (hi2c->State == HAL_I2C_STATE_BUSY_TX)
 8003d5c:	d10a      	bne.n	8003d74 <I2C_ITMasterSeqCplt+0x2e>
    hi2c->PreviousState = I2C_STATE_MASTER_BUSY_TX;
 8003d5e:	2311      	movs	r3, #17
 8003d60:	6303      	str	r3, [r0, #48]	@ 0x30
    hi2c->XferISR       = NULL;
 8003d62:	6345      	str	r5, [r0, #52]	@ 0x34
    I2C_Disable_IRQ(hi2c, I2C_XFER_TX_IT);
 8003d64:	2101      	movs	r1, #1
 8003d66:	f7ff fa7f 	bl	8003268 <I2C_Disable_IRQ>
    __HAL_UNLOCK(hi2c);
 8003d6a:	f880 5040 	strb.w	r5, [r0, #64]	@ 0x40
    HAL_I2C_MasterTxCpltCallback(hi2c);
 8003d6e:	f7ff ffe8 	bl	8003d42 <HAL_I2C_MasterTxCpltCallback>
}
 8003d72:	bd38      	pop	{r3, r4, r5, pc}
    hi2c->PreviousState = I2C_STATE_MASTER_BUSY_RX;
 8003d74:	2312      	movs	r3, #18
 8003d76:	6303      	str	r3, [r0, #48]	@ 0x30
    hi2c->XferISR       = NULL;
 8003d78:	6345      	str	r5, [r0, #52]	@ 0x34
    I2C_Disable_IRQ(hi2c, I2C_XFER_RX_IT);
 8003d7a:	2102      	movs	r1, #2
 8003d7c:	f7ff fa74 	bl	8003268 <I2C_Disable_IRQ>
    __HAL_UNLOCK(hi2c);
 8003d80:	f880 5040 	strb.w	r5, [r0, #64]	@ 0x40
    HAL_I2C_MasterRxCpltCallback(hi2c);
 8003d84:	f7ff ffde 	bl	8003d44 <HAL_I2C_MasterRxCpltCallback>
}
 8003d88:	e7f3      	b.n	8003d72 <I2C_ITMasterSeqCplt+0x2c>

08003d8a <HAL_I2C_SlaveTxCpltCallback>:
__weak void HAL_I2C_SlaveTxCpltCallback(I2C_HandleTypeDef *hi2c)
 8003d8a:	4770      	bx	lr

08003d8c <HAL_I2C_SlaveRxCpltCallback>:
__weak void HAL_I2C_SlaveRxCpltCallback(I2C_HandleTypeDef *hi2c)
 8003d8c:	4770      	bx	lr

08003d8e <I2C_ITSlaveSeqCplt>:
{
 8003d8e:	b508      	push	{r3, lr}
  uint32_t tmpcr1value = READ_REG(hi2c->Instance->CR1);
 8003d90:	6803      	ldr	r3, [r0, #0]
 8003d92:	681a      	ldr	r2, [r3, #0]
  hi2c->Mode = HAL_I2C_MODE_NONE;
 8003d94:	2100      	movs	r1, #0
 8003d96:	f880 1042 	strb.w	r1, [r0, #66]	@ 0x42
  if (I2C_CHECK_IT_SOURCE(tmpcr1value, I2C_CR1_TXDMAEN) != RESET)
 8003d9a:	0451      	lsls	r1, r2, #17
 8003d9c:	d515      	bpl.n	8003dca <I2C_ITSlaveSeqCplt+0x3c>
    hi2c->Instance->CR1 &= ~I2C_CR1_TXDMAEN;
 8003d9e:	681a      	ldr	r2, [r3, #0]
 8003da0:	f422 4280 	bic.w	r2, r2, #16384	@ 0x4000
    hi2c->Instance->CR1 &= ~I2C_CR1_RXDMAEN;
 8003da4:	601a      	str	r2, [r3, #0]
  if (hi2c->State == HAL_I2C_STATE_BUSY_TX_LISTEN)
 8003da6:	f890 3041 	ldrb.w	r3, [r0, #65]	@ 0x41
 8003daa:	2b29      	cmp	r3, #41	@ 0x29
 8003dac:	d113      	bne.n	8003dd6 <I2C_ITSlaveSeqCplt+0x48>
    hi2c->State         = HAL_I2C_STATE_LISTEN;
 8003dae:	2328      	movs	r3, #40	@ 0x28
 8003db0:	f880 3041 	strb.w	r3, [r0, #65]	@ 0x41
    hi2c->PreviousState = I2C_STATE_SLAVE_BUSY_TX;
 8003db4:	2321      	movs	r3, #33	@ 0x21
 8003db6:	6303      	str	r3, [r0, #48]	@ 0x30
    I2C_Disable_IRQ(hi2c, I2C_XFER_TX_IT);
 8003db8:	2101      	movs	r1, #1
 8003dba:	f7ff fa55 	bl	8003268 <I2C_Disable_IRQ>
    __HAL_UNLOCK(hi2c);
 8003dbe:	2300      	movs	r3, #0
 8003dc0:	f880 3040 	strb.w	r3, [r0, #64]	@ 0x40
    HAL_I2C_SlaveTxCpltCallback(hi2c);
 8003dc4:	f7ff ffe1 	bl	8003d8a <HAL_I2C_SlaveTxCpltCallback>
}
 8003dc8:	bd08      	pop	{r3, pc}
  else if (I2C_CHECK_IT_SOURCE(tmpcr1value, I2C_CR1_RXDMAEN) != RESET)
 8003dca:	0412      	lsls	r2, r2, #16
 8003dcc:	d5eb      	bpl.n	8003da6 <I2C_ITSlaveSeqCplt+0x18>
    hi2c->Instance->CR1 &= ~I2C_CR1_RXDMAEN;
 8003dce:	681a      	ldr	r2, [r3, #0]
 8003dd0:	f422 4200 	bic.w	r2, r2, #32768	@ 0x8000
 8003dd4:	e7e6      	b.n	8003da4 <I2C_ITSlaveSeqCplt+0x16>
  else if (hi2c->State == HAL_I2C_STATE_BUSY_RX_LISTEN)
 8003dd6:	f890 3041 	ldrb.w	r3, [r0, #65]	@ 0x41
 8003dda:	2b2a      	cmp	r3, #42	@ 0x2a
 8003ddc:	d1f4      	bne.n	8003dc8 <I2C_ITSlaveSeqCplt+0x3a>
    hi2c->State         = HAL_I2C_STATE_LISTEN;
 8003dde:	2328      	movs	r3, #40	@ 0x28
 8003de0:	f880 3041 	strb.w	r3, [r0, #65]	@ 0x41
    hi2c->PreviousState = I2C_STATE_SLAVE_BUSY_RX;
 8003de4:	2322      	movs	r3, #34	@ 0x22
 8003de6:	6303      	str	r3, [r0, #48]	@ 0x30
    I2C_Disable_IRQ(hi2c, I2C_XFER_RX_IT);
 8003de8:	2102      	movs	r1, #2
 8003dea:	f7ff fa3d 	bl	8003268 <I2C_Disable_IRQ>
    __HAL_UNLOCK(hi2c);
 8003dee:	2300      	movs	r3, #0
 8003df0:	f880 3040 	strb.w	r3, [r0, #64]	@ 0x40
    HAL_I2C_SlaveRxCpltCallback(hi2c);
 8003df4:	f7ff ffca 	bl	8003d8c <HAL_I2C_SlaveRxCpltCallback>
}
 8003df8:	e7e6      	b.n	8003dc8 <I2C_ITSlaveSeqCplt+0x3a>

08003dfa <HAL_I2C_AddrCallback>:
}
 8003dfa:	4770      	bx	lr

08003dfc <I2C_ITAddrCplt.constprop.0>:
  if (((uint32_t)hi2c->State & (uint32_t)HAL_I2C_STATE_LISTEN) == (uint32_t)HAL_I2C_STATE_LISTEN)
 8003dfc:	f890 2041 	ldrb.w	r2, [r0, #65]	@ 0x41
 8003e00:	f002 0228 	and.w	r2, r2, #40	@ 0x28
 8003e04:	2a28      	cmp	r2, #40	@ 0x28
static void I2C_ITAddrCplt(I2C_HandleTypeDef *hi2c, uint32_t ITFlags)
 8003e06:	b5f8      	push	{r3, r4, r5, r6, r7, lr}
    transferdirection = I2C_GET_DIR(hi2c);
 8003e08:	6803      	ldr	r3, [r0, #0]
  if (((uint32_t)hi2c->State & (uint32_t)HAL_I2C_STATE_LISTEN) == (uint32_t)HAL_I2C_STATE_LISTEN)
 8003e0a:	d134      	bne.n	8003e76 <I2C_ITAddrCplt.constprop.0+0x7a>
    transferdirection = I2C_GET_DIR(hi2c);
 8003e0c:	699e      	ldr	r6, [r3, #24]
    if (hi2c->Init.AddressingMode == I2C_ADDRESSINGMODE_10BIT)
 8003e0e:	68c2      	ldr	r2, [r0, #12]
    slaveaddrcode     = I2C_GET_ADDR_MATCH(hi2c);
 8003e10:	699d      	ldr	r5, [r3, #24]
    ownadd1code       = I2C_GET_OWN_ADDRESS1(hi2c);
 8003e12:	6899      	ldr	r1, [r3, #8]
    ownadd2code       = I2C_GET_OWN_ADDRESS2(hi2c);
 8003e14:	68df      	ldr	r7, [r3, #12]
    slaveaddrcode     = I2C_GET_ADDR_MATCH(hi2c);
 8003e16:	0c2d      	lsrs	r5, r5, #16
    if (hi2c->Init.AddressingMode == I2C_ADDRESSINGMODE_10BIT)
 8003e18:	2a02      	cmp	r2, #2
    transferdirection = I2C_GET_DIR(hi2c);
 8003e1a:	f3c6 4600 	ubfx	r6, r6, #16, #1
    slaveaddrcode     = I2C_GET_ADDR_MATCH(hi2c);
 8003e1e:	f005 05fe 	and.w	r5, r5, #254	@ 0xfe
    if (hi2c->Init.AddressingMode == I2C_ADDRESSINGMODE_10BIT)
 8003e22:	d11f      	bne.n	8003e64 <I2C_ITAddrCplt.constprop.0+0x68>
      if ((slaveaddrcode & SLAVE_ADDR_MSK) == ((ownadd1code >> SLAVE_ADDR_SHIFT) & SLAVE_ADDR_MSK))
 8003e24:	ea85 15d1 	eor.w	r5, r5, r1, lsr #7
 8003e28:	f015 0506 	ands.w	r5, r5, #6
    ownadd1code       = I2C_GET_OWN_ADDRESS1(hi2c);
 8003e2c:	f3c1 0209 	ubfx	r2, r1, #0, #10
      if ((slaveaddrcode & SLAVE_ADDR_MSK) == ((ownadd1code >> SLAVE_ADDR_SHIFT) & SLAVE_ADDR_MSK))
 8003e30:	d10e      	bne.n	8003e50 <I2C_ITAddrCplt.constprop.0+0x54>
        hi2c->AddrEventCount++;
 8003e32:	6c81      	ldr	r1, [r0, #72]	@ 0x48
 8003e34:	3101      	adds	r1, #1
 8003e36:	6481      	str	r1, [r0, #72]	@ 0x48
        if (hi2c->AddrEventCount == 2U)
 8003e38:	6c81      	ldr	r1, [r0, #72]	@ 0x48
 8003e3a:	2902      	cmp	r1, #2
 8003e3c:	d107      	bne.n	8003e4e <I2C_ITAddrCplt.constprop.0+0x52>
          __HAL_I2C_CLEAR_FLAG(hi2c, I2C_FLAG_ADDR);
 8003e3e:	2108      	movs	r1, #8
          hi2c->AddrEventCount = 0U;
 8003e40:	6485      	str	r5, [r0, #72]	@ 0x48
          __HAL_I2C_CLEAR_FLAG(hi2c, I2C_FLAG_ADDR);
 8003e42:	61d9      	str	r1, [r3, #28]
          __HAL_UNLOCK(hi2c);
 8003e44:	f880 5040 	strb.w	r5, [r0, #64]	@ 0x40
      HAL_I2C_AddrCallback(hi2c, transferdirection, slaveaddrcode);
 8003e48:	4631      	mov	r1, r6
 8003e4a:	f7ff ffd6 	bl	8003dfa <HAL_I2C_AddrCallback>
}
 8003e4e:	bdf8      	pop	{r3, r4, r5, r6, r7, pc}
        I2C_Disable_IRQ(hi2c, I2C_XFER_LISTEN_IT);
 8003e50:	f44f 4100 	mov.w	r1, #32768	@ 0x8000
 8003e54:	f7ff fa08 	bl	8003268 <I2C_Disable_IRQ>
        __HAL_UNLOCK(hi2c);
 8003e58:	2300      	movs	r3, #0
 8003e5a:	f880 3040 	strb.w	r3, [r0, #64]	@ 0x40
        HAL_I2C_AddrCallback(hi2c, transferdirection, slaveaddrcode);
 8003e5e:	f007 02fe 	and.w	r2, r7, #254	@ 0xfe
 8003e62:	e7f1      	b.n	8003e48 <I2C_ITAddrCplt.constprop.0+0x4c>
      I2C_Disable_IRQ(hi2c, I2C_XFER_LISTEN_IT);
 8003e64:	f44f 4100 	mov.w	r1, #32768	@ 0x8000
 8003e68:	f7ff f9fe 	bl	8003268 <I2C_Disable_IRQ>
      __HAL_UNLOCK(hi2c);
 8003e6c:	2300      	movs	r3, #0
 8003e6e:	f880 3040 	strb.w	r3, [r0, #64]	@ 0x40
      HAL_I2C_AddrCallback(hi2c, transferdirection, slaveaddrcode);
 8003e72:	462a      	mov	r2, r5
 8003e74:	e7e8      	b.n	8003e48 <I2C_ITAddrCplt.constprop.0+0x4c>
    __HAL_I2C_CLEAR_FLAG(hi2c, I2C_FLAG_ADDR);
 8003e76:	2208      	movs	r2, #8
 8003e78:	61da      	str	r2, [r3, #28]
    __HAL_UNLOCK(hi2c);
 8003e7a:	2300      	movs	r3, #0
 8003e7c:	f880 3040 	strb.w	r3, [r0, #64]	@ 0x40
}
 8003e80:	e7e5      	b.n	8003e4e <I2C_ITAddrCplt.constprop.0+0x52>

08003e82 <HAL_I2C_ListenCpltCallback>:
__weak void HAL_I2C_ListenCpltCallback(I2C_HandleTypeDef *hi2c)
 8003e82:	4770      	bx	lr

08003e84 <I2C_ITListenCplt>:
{
 8003e84:	b508      	push	{r3, lr}
  hi2c->XferOptions = I2C_NO_OPTION_FRAME;
 8003e86:	4b16      	ldr	r3, [pc, #88]	@ (8003ee0 <I2C_ITListenCplt+0x5c>)
 8003e88:	62c3      	str	r3, [r0, #44]	@ 0x2c
  hi2c->State = HAL_I2C_STATE_READY;
 8003e8a:	2220      	movs	r2, #32
  hi2c->PreviousState = I2C_STATE_NONE;
 8003e8c:	2300      	movs	r3, #0
 8003e8e:	6303      	str	r3, [r0, #48]	@ 0x30
  hi2c->XferISR = NULL;
 8003e90:	6343      	str	r3, [r0, #52]	@ 0x34
  hi2c->State = HAL_I2C_STATE_READY;
 8003e92:	f880 2041 	strb.w	r2, [r0, #65]	@ 0x41
  hi2c->Mode = HAL_I2C_MODE_NONE;
 8003e96:	f880 3042 	strb.w	r3, [r0, #66]	@ 0x42
  if (I2C_CHECK_FLAG(ITFlags, I2C_FLAG_RXNE) != RESET)
 8003e9a:	074b      	lsls	r3, r1, #29
 8003e9c:	d512      	bpl.n	8003ec4 <I2C_ITListenCplt+0x40>
    *hi2c->pBuffPtr = (uint8_t)hi2c->Instance->RXDR;
 8003e9e:	6803      	ldr	r3, [r0, #0]
 8003ea0:	6a5a      	ldr	r2, [r3, #36]	@ 0x24
 8003ea2:	6a43      	ldr	r3, [r0, #36]	@ 0x24
 8003ea4:	701a      	strb	r2, [r3, #0]
    hi2c->pBuffPtr++;
 8003ea6:	6a43      	ldr	r3, [r0, #36]	@ 0x24
 8003ea8:	3301      	adds	r3, #1
 8003eaa:	6243      	str	r3, [r0, #36]	@ 0x24
    if ((hi2c->XferSize > 0U))
 8003eac:	8d03      	ldrh	r3, [r0, #40]	@ 0x28
 8003eae:	b14b      	cbz	r3, 8003ec4 <I2C_ITListenCplt+0x40>
      hi2c->XferSize--;
 8003eb0:	3b01      	subs	r3, #1
 8003eb2:	8503      	strh	r3, [r0, #40]	@ 0x28
      hi2c->XferCount--;
 8003eb4:	8d43      	ldrh	r3, [r0, #42]	@ 0x2a
 8003eb6:	3b01      	subs	r3, #1
 8003eb8:	b29b      	uxth	r3, r3
 8003eba:	8543      	strh	r3, [r0, #42]	@ 0x2a
      hi2c->ErrorCode |= HAL_I2C_ERROR_AF;
 8003ebc:	6c43      	ldr	r3, [r0, #68]	@ 0x44
 8003ebe:	f043 0304 	orr.w	r3, r3, #4
 8003ec2:	6443      	str	r3, [r0, #68]	@ 0x44
  I2C_Disable_IRQ(hi2c, I2C_XFER_LISTEN_IT | I2C_XFER_RX_IT | I2C_XFER_TX_IT);
 8003ec4:	f248 0103 	movw	r1, #32771	@ 0x8003
 8003ec8:	f7ff f9ce 	bl	8003268 <I2C_Disable_IRQ>
  __HAL_I2C_CLEAR_FLAG(hi2c, I2C_FLAG_AF);
 8003ecc:	6803      	ldr	r3, [r0, #0]
 8003ece:	2210      	movs	r2, #16
 8003ed0:	61da      	str	r2, [r3, #28]
  __HAL_UNLOCK(hi2c);
 8003ed2:	2300      	movs	r3, #0
 8003ed4:	f880 3040 	strb.w	r3, [r0, #64]	@ 0x40
  HAL_I2C_ListenCpltCallback(hi2c);
 8003ed8:	f7ff ffd3 	bl	8003e82 <HAL_I2C_ListenCpltCallback>
}
 8003edc:	bd08      	pop	{r3, pc}
 8003ede:	bf00      	nop
 8003ee0:	ffff0000 	.word	0xffff0000

08003ee4 <HAL_I2C_MemTxCpltCallback>:
__weak void HAL_I2C_MemTxCpltCallback(I2C_HandleTypeDef *hi2c)
 8003ee4:	4770      	bx	lr

08003ee6 <HAL_I2C_AbortCpltCallback>:
__weak void HAL_I2C_AbortCpltCallback(I2C_HandleTypeDef *hi2c)
 8003ee6:	4770      	bx	lr

08003ee8 <I2C_TreatErrorCallback>:
  if (hi2c->State == HAL_I2C_STATE_ABORT)
 8003ee8:	f890 2041 	ldrb.w	r2, [r0, #65]	@ 0x41
 8003eec:	2a60      	cmp	r2, #96	@ 0x60
{
 8003eee:	b508      	push	{r3, lr}
 8003ef0:	f04f 0200 	mov.w	r2, #0
  if (hi2c->State == HAL_I2C_STATE_ABORT)
 8003ef4:	d108      	bne.n	8003f08 <I2C_TreatErrorCallback+0x20>
    hi2c->State = HAL_I2C_STATE_READY;
 8003ef6:	2120      	movs	r1, #32
 8003ef8:	f880 1041 	strb.w	r1, [r0, #65]	@ 0x41
    __HAL_UNLOCK(hi2c);
 8003efc:	f880 2040 	strb.w	r2, [r0, #64]	@ 0x40
    hi2c->PreviousState = I2C_STATE_NONE;
 8003f00:	6302      	str	r2, [r0, #48]	@ 0x30
    HAL_I2C_AbortCpltCallback(hi2c);
 8003f02:	f7ff fff0 	bl	8003ee6 <HAL_I2C_AbortCpltCallback>
}
 8003f06:	bd08      	pop	{r3, pc}
    hi2c->PreviousState = I2C_STATE_NONE;
 8003f08:	6302      	str	r2, [r0, #48]	@ 0x30
    __HAL_UNLOCK(hi2c);
 8003f0a:	f880 2040 	strb.w	r2, [r0, #64]	@ 0x40
    HAL_I2C_ErrorCallback(hi2c);
 8003f0e:	f7fd fa2d 	bl	800136c <HAL_I2C_ErrorCallback>
}
 8003f12:	e7f8      	b.n	8003f06 <I2C_TreatErrorCallback+0x1e>

08003f14 <I2C_ITError>:
{
 8003f14:	b570      	push	{r4, r5, r6, lr}
  hi2c->Mode          = HAL_I2C_MODE_NONE;
 8003f16:	2200      	movs	r2, #0
  hi2c->XferOptions   = I2C_NO_OPTION_FRAME;
 8003f18:	4d3d      	ldr	r5, [pc, #244]	@ (8004010 <I2C_ITError+0xfc>)
  HAL_I2C_StateTypeDef tmpstate = hi2c->State;
 8003f1a:	f890 3041 	ldrb.w	r3, [r0, #65]	@ 0x41
  hi2c->Mode          = HAL_I2C_MODE_NONE;
 8003f1e:	f880 2042 	strb.w	r2, [r0, #66]	@ 0x42
  hi2c->XferOptions   = I2C_NO_OPTION_FRAME;
 8003f22:	62c5      	str	r5, [r0, #44]	@ 0x2c
  hi2c->XferCount     = 0U;
 8003f24:	8542      	strh	r2, [r0, #42]	@ 0x2a
  hi2c->ErrorCode |= ErrorCode;
 8003f26:	6c42      	ldr	r2, [r0, #68]	@ 0x44
  if ((tmpstate == HAL_I2C_STATE_LISTEN)         ||
 8003f28:	3b28      	subs	r3, #40	@ 0x28
  hi2c->ErrorCode |= ErrorCode;
 8003f2a:	430a      	orrs	r2, r1
  if ((tmpstate == HAL_I2C_STATE_LISTEN)         ||
 8003f2c:	2b02      	cmp	r3, #2
{
 8003f2e:	4604      	mov	r4, r0
  hi2c->ErrorCode |= ErrorCode;
 8003f30:	6442      	str	r2, [r0, #68]	@ 0x44
  if ((tmpstate == HAL_I2C_STATE_LISTEN)         ||
 8003f32:	d82a      	bhi.n	8003f8a <I2C_ITError+0x76>
    I2C_Disable_IRQ(hi2c, I2C_XFER_RX_IT | I2C_XFER_TX_IT);
 8003f34:	2103      	movs	r1, #3
 8003f36:	f7ff f997 	bl	8003268 <I2C_Disable_IRQ>
    hi2c->State         = HAL_I2C_STATE_LISTEN;
 8003f3a:	2328      	movs	r3, #40	@ 0x28
 8003f3c:	f880 3041 	strb.w	r3, [r0, #65]	@ 0x41
    hi2c->XferISR       = I2C_Slave_ISR_IT;
 8003f40:	4b34      	ldr	r3, [pc, #208]	@ (8004014 <I2C_ITError+0x100>)
  if ((hi2c->hdmatx != NULL) && ((tmppreviousstate == I2C_STATE_MASTER_BUSY_TX) || \
 8003f42:	6ba0      	ldr	r0, [r4, #56]	@ 0x38
    hi2c->XferISR       = I2C_Slave_ISR_IT;
 8003f44:	6363      	str	r3, [r4, #52]	@ 0x34
  tmppreviousstate = hi2c->PreviousState;
 8003f46:	6b23      	ldr	r3, [r4, #48]	@ 0x30
  if ((hi2c->hdmatx != NULL) && ((tmppreviousstate == I2C_STATE_MASTER_BUSY_TX) || \
 8003f48:	2800      	cmp	r0, #0
 8003f4a:	d041      	beq.n	8003fd0 <I2C_ITError+0xbc>
 8003f4c:	2b11      	cmp	r3, #17
 8003f4e:	d001      	beq.n	8003f54 <I2C_ITError+0x40>
 8003f50:	2b21      	cmp	r3, #33	@ 0x21
 8003f52:	d13d      	bne.n	8003fd0 <I2C_ITError+0xbc>
    if ((hi2c->Instance->CR1 & I2C_CR1_TXDMAEN) == I2C_CR1_TXDMAEN)
 8003f54:	6823      	ldr	r3, [r4, #0]
 8003f56:	681a      	ldr	r2, [r3, #0]
 8003f58:	0451      	lsls	r1, r2, #17
      hi2c->Instance->CR1 &= ~I2C_CR1_TXDMAEN;
 8003f5a:	bf42      	ittt	mi
 8003f5c:	681a      	ldrmi	r2, [r3, #0]
 8003f5e:	f422 4280 	bicmi.w	r2, r2, #16384	@ 0x4000
 8003f62:	601a      	strmi	r2, [r3, #0]
    if (HAL_DMA_GetState(hi2c->hdmatx) != HAL_DMA_STATE_READY)
 8003f64:	f7ff f853 	bl	800300e <HAL_DMA_GetState>
 8003f68:	2801      	cmp	r0, #1
 8003f6a:	d02c      	beq.n	8003fc6 <I2C_ITError+0xb2>
      hi2c->hdmatx->XferAbortCallback = I2C_DMAAbort;
 8003f6c:	6ba0      	ldr	r0, [r4, #56]	@ 0x38
 8003f6e:	4b2a      	ldr	r3, [pc, #168]	@ (8004018 <I2C_ITError+0x104>)
 8003f70:	6343      	str	r3, [r0, #52]	@ 0x34
      __HAL_UNLOCK(hi2c);
 8003f72:	2300      	movs	r3, #0
 8003f74:	f884 3040 	strb.w	r3, [r4, #64]	@ 0x40
      if (HAL_DMA_Abort_IT(hi2c->hdmatx) != HAL_OK)
 8003f78:	f7fe ffe4 	bl	8002f44 <HAL_DMA_Abort_IT>
 8003f7c:	2800      	cmp	r0, #0
 8003f7e:	d045      	beq.n	800400c <I2C_ITError+0xf8>
        hi2c->hdmatx->XferAbortCallback(hi2c->hdmatx);
 8003f80:	6ba0      	ldr	r0, [r4, #56]	@ 0x38
        hi2c->hdmarx->XferAbortCallback(hi2c->hdmarx);
 8003f82:	6b43      	ldr	r3, [r0, #52]	@ 0x34
}
 8003f84:	e8bd 4070 	ldmia.w	sp!, {r4, r5, r6, lr}
        hi2c->hdmarx->XferAbortCallback(hi2c->hdmarx);
 8003f88:	4718      	bx	r3
    I2C_Disable_IRQ(hi2c, I2C_XFER_LISTEN_IT | I2C_XFER_RX_IT | I2C_XFER_TX_IT);
 8003f8a:	f248 0103 	movw	r1, #32771	@ 0x8003
 8003f8e:	f7ff f96b 	bl	8003268 <I2C_Disable_IRQ>
    I2C_Flush_TXDR(hi2c);
 8003f92:	f7ff f8fd 	bl	8003190 <I2C_Flush_TXDR>
    if (hi2c->State != HAL_I2C_STATE_ABORT)
 8003f96:	f890 3041 	ldrb.w	r3, [r0, #65]	@ 0x41
 8003f9a:	2b60      	cmp	r3, #96	@ 0x60
 8003f9c:	d011      	beq.n	8003fc2 <I2C_ITError+0xae>
      hi2c->State         = HAL_I2C_STATE_READY;
 8003f9e:	2320      	movs	r3, #32
 8003fa0:	f880 3041 	strb.w	r3, [r0, #65]	@ 0x41
      if (__HAL_I2C_GET_FLAG(hi2c, I2C_FLAG_STOPF) == SET)
 8003fa4:	6803      	ldr	r3, [r0, #0]
 8003fa6:	699a      	ldr	r2, [r3, #24]
 8003fa8:	0695      	lsls	r5, r2, #26
 8003faa:	d50a      	bpl.n	8003fc2 <I2C_ITError+0xae>
        if (__HAL_I2C_GET_FLAG(hi2c, I2C_FLAG_AF) == SET)
 8003fac:	699a      	ldr	r2, [r3, #24]
 8003fae:	06d0      	lsls	r0, r2, #27
 8003fb0:	d505      	bpl.n	8003fbe <I2C_ITError+0xaa>
          __HAL_I2C_CLEAR_FLAG(hi2c, I2C_FLAG_AF);
 8003fb2:	2210      	movs	r2, #16
 8003fb4:	61da      	str	r2, [r3, #28]
          hi2c->ErrorCode |= HAL_I2C_ERROR_AF;
 8003fb6:	6c62      	ldr	r2, [r4, #68]	@ 0x44
 8003fb8:	f042 0204 	orr.w	r2, r2, #4
 8003fbc:	6462      	str	r2, [r4, #68]	@ 0x44
        __HAL_I2C_CLEAR_FLAG(hi2c, I2C_FLAG_STOPF);
 8003fbe:	2220      	movs	r2, #32
 8003fc0:	61da      	str	r2, [r3, #28]
    hi2c->XferISR       = NULL;
 8003fc2:	2300      	movs	r3, #0
 8003fc4:	e7bd      	b.n	8003f42 <I2C_ITError+0x2e>
      I2C_TreatErrorCallback(hi2c);
 8003fc6:	4620      	mov	r0, r4
}
 8003fc8:	e8bd 4070 	ldmia.w	sp!, {r4, r5, r6, lr}
      I2C_TreatErrorCallback(hi2c);
 8003fcc:	f7ff bf8c 	b.w	8003ee8 <I2C_TreatErrorCallback>
  else if ((hi2c->hdmarx != NULL) && ((tmppreviousstate == I2C_STATE_MASTER_BUSY_RX) || \
 8003fd0:	6be0      	ldr	r0, [r4, #60]	@ 0x3c
 8003fd2:	2800      	cmp	r0, #0
 8003fd4:	d0f7      	beq.n	8003fc6 <I2C_ITError+0xb2>
 8003fd6:	2b12      	cmp	r3, #18
 8003fd8:	d001      	beq.n	8003fde <I2C_ITError+0xca>
 8003fda:	2b22      	cmp	r3, #34	@ 0x22
 8003fdc:	d1f3      	bne.n	8003fc6 <I2C_ITError+0xb2>
    if ((hi2c->Instance->CR1 & I2C_CR1_RXDMAEN) == I2C_CR1_RXDMAEN)
 8003fde:	6823      	ldr	r3, [r4, #0]
 8003fe0:	681a      	ldr	r2, [r3, #0]
 8003fe2:	0412      	lsls	r2, r2, #16
      hi2c->Instance->CR1 &= ~I2C_CR1_RXDMAEN;
 8003fe4:	bf42      	ittt	mi
 8003fe6:	681a      	ldrmi	r2, [r3, #0]
 8003fe8:	f422 4200 	bicmi.w	r2, r2, #32768	@ 0x8000
 8003fec:	601a      	strmi	r2, [r3, #0]
    if (HAL_DMA_GetState(hi2c->hdmarx) != HAL_DMA_STATE_READY)
 8003fee:	f7ff f80e 	bl	800300e <HAL_DMA_GetState>
 8003ff2:	2801      	cmp	r0, #1
 8003ff4:	d0e7      	beq.n	8003fc6 <I2C_ITError+0xb2>
      hi2c->hdmarx->XferAbortCallback = I2C_DMAAbort;
 8003ff6:	6be0      	ldr	r0, [r4, #60]	@ 0x3c
 8003ff8:	4b07      	ldr	r3, [pc, #28]	@ (8004018 <I2C_ITError+0x104>)
 8003ffa:	6343      	str	r3, [r0, #52]	@ 0x34
      __HAL_UNLOCK(hi2c);
 8003ffc:	2300      	movs	r3, #0
 8003ffe:	f884 3040 	strb.w	r3, [r4, #64]	@ 0x40
      if (HAL_DMA_Abort_IT(hi2c->hdmarx) != HAL_OK)
 8004002:	f7fe ff9f 	bl	8002f44 <HAL_DMA_Abort_IT>
 8004006:	b108      	cbz	r0, 800400c <I2C_ITError+0xf8>
        hi2c->hdmarx->XferAbortCallback(hi2c->hdmarx);
 8004008:	6be0      	ldr	r0, [r4, #60]	@ 0x3c
 800400a:	e7ba      	b.n	8003f82 <I2C_ITError+0x6e>
}
 800400c:	bd70      	pop	{r4, r5, r6, pc}
 800400e:	bf00      	nop
 8004010:	ffff0000 	.word	0xffff0000
 8004014:	080046d7 	.word	0x080046d7
 8004018:	080047e9 	.word	0x080047e9

0800401c <I2C_ITMasterCplt>:
{
 800401c:	b573      	push	{r0, r1, r4, r5, r6, lr}
  __HAL_I2C_CLEAR_FLAG(hi2c, I2C_FLAG_STOPF);
 800401e:	6805      	ldr	r5, [r0, #0]
 8004020:	2320      	movs	r3, #32
 8004022:	61eb      	str	r3, [r5, #28]
  if (hi2c->State == HAL_I2C_STATE_BUSY_TX)
 8004024:	f890 3041 	ldrb.w	r3, [r0, #65]	@ 0x41
 8004028:	2b21      	cmp	r3, #33	@ 0x21
{
 800402a:	4604      	mov	r4, r0
 800402c:	460e      	mov	r6, r1
  if (hi2c->State == HAL_I2C_STATE_BUSY_TX)
 800402e:	d135      	bne.n	800409c <I2C_ITMasterCplt+0x80>
    I2C_Disable_IRQ(hi2c, I2C_XFER_TX_IT);
 8004030:	2101      	movs	r1, #1
 8004032:	f7ff f919 	bl	8003268 <I2C_Disable_IRQ>
    hi2c->PreviousState = I2C_STATE_MASTER_BUSY_TX;
 8004036:	2311      	movs	r3, #17
    hi2c->PreviousState = I2C_STATE_MASTER_BUSY_RX;
 8004038:	6323      	str	r3, [r4, #48]	@ 0x30
  I2C_RESET_CR2(hi2c);
 800403a:	686b      	ldr	r3, [r5, #4]
 800403c:	f023 73ff 	bic.w	r3, r3, #33423360	@ 0x1fe0000
 8004040:	f423 338b 	bic.w	r3, r3, #71168	@ 0x11600
 8004044:	f423 73ff 	bic.w	r3, r3, #510	@ 0x1fe
 8004048:	f023 0301 	bic.w	r3, r3, #1
 800404c:	606b      	str	r3, [r5, #4]
  hi2c->XferISR       = NULL;
 800404e:	2300      	movs	r3, #0
 8004050:	6363      	str	r3, [r4, #52]	@ 0x34
  if (I2C_CHECK_FLAG(tmpITFlags, I2C_FLAG_AF) != RESET)
 8004052:	06f2      	lsls	r2, r6, #27
  hi2c->XferOptions   = I2C_NO_OPTION_FRAME;
 8004054:	f5a3 3380 	sub.w	r3, r3, #65536	@ 0x10000
 8004058:	62e3      	str	r3, [r4, #44]	@ 0x2c
  if (I2C_CHECK_FLAG(tmpITFlags, I2C_FLAG_AF) != RESET)
 800405a:	d505      	bpl.n	8004068 <I2C_ITMasterCplt+0x4c>
    __HAL_I2C_CLEAR_FLAG(hi2c, I2C_FLAG_AF);
 800405c:	2310      	movs	r3, #16
 800405e:	61eb      	str	r3, [r5, #28]
    hi2c->ErrorCode |= HAL_I2C_ERROR_AF;
 8004060:	6c63      	ldr	r3, [r4, #68]	@ 0x44
 8004062:	f043 0304 	orr.w	r3, r3, #4
 8004066:	6463      	str	r3, [r4, #68]	@ 0x44
  if ((hi2c->State == HAL_I2C_STATE_ABORT) && (I2C_CHECK_FLAG(tmpITFlags, I2C_FLAG_RXNE) != RESET))
 8004068:	f894 3041 	ldrb.w	r3, [r4, #65]	@ 0x41
 800406c:	2b60      	cmp	r3, #96	@ 0x60
 800406e:	d105      	bne.n	800407c <I2C_ITMasterCplt+0x60>
 8004070:	0773      	lsls	r3, r6, #29
    tmpreg = (uint8_t)hi2c->Instance->RXDR;
 8004072:	bf41      	itttt	mi
 8004074:	6a6b      	ldrmi	r3, [r5, #36]	@ 0x24
 8004076:	b2db      	uxtbmi	r3, r3
 8004078:	9301      	strmi	r3, [sp, #4]
    UNUSED(tmpreg);
 800407a:	9b01      	ldrmi	r3, [sp, #4]
  I2C_Flush_TXDR(hi2c);
 800407c:	4620      	mov	r0, r4
 800407e:	f7ff f887 	bl	8003190 <I2C_Flush_TXDR>
  tmperror = hi2c->ErrorCode;
 8004082:	6c63      	ldr	r3, [r4, #68]	@ 0x44
  if ((hi2c->State == HAL_I2C_STATE_ABORT) || (tmperror != HAL_I2C_ERROR_NONE))
 8004084:	f894 2041 	ldrb.w	r2, [r4, #65]	@ 0x41
 8004088:	2a60      	cmp	r2, #96	@ 0x60
 800408a:	d000      	beq.n	800408e <I2C_ITMasterCplt+0x72>
 800408c:	b17b      	cbz	r3, 80040ae <I2C_ITMasterCplt+0x92>
    I2C_ITError(hi2c, hi2c->ErrorCode);
 800408e:	6c61      	ldr	r1, [r4, #68]	@ 0x44
 8004090:	4620      	mov	r0, r4
}
 8004092:	b002      	add	sp, #8
 8004094:	e8bd 4070 	ldmia.w	sp!, {r4, r5, r6, lr}
    I2C_ITError(hi2c, hi2c->ErrorCode);
 8004098:	f7ff bf3c 	b.w	8003f14 <I2C_ITError>
  else if (hi2c->State == HAL_I2C_STATE_BUSY_RX)
 800409c:	f890 3041 	ldrb.w	r3, [r0, #65]	@ 0x41
 80040a0:	2b22      	cmp	r3, #34	@ 0x22
 80040a2:	d1ca      	bne.n	800403a <I2C_ITMasterCplt+0x1e>
    I2C_Disable_IRQ(hi2c, I2C_XFER_RX_IT);
 80040a4:	2102      	movs	r1, #2
 80040a6:	f7ff f8df 	bl	8003268 <I2C_Disable_IRQ>
    hi2c->PreviousState = I2C_STATE_MASTER_BUSY_RX;
 80040aa:	2312      	movs	r3, #18
 80040ac:	e7c4      	b.n	8004038 <I2C_ITMasterCplt+0x1c>
  else if (hi2c->State == HAL_I2C_STATE_BUSY_TX)
 80040ae:	f894 2041 	ldrb.w	r2, [r4, #65]	@ 0x41
 80040b2:	2a21      	cmp	r2, #33	@ 0x21
 80040b4:	d112      	bne.n	80040dc <I2C_ITMasterCplt+0xc0>
    hi2c->State = HAL_I2C_STATE_READY;
 80040b6:	2220      	movs	r2, #32
 80040b8:	f884 2041 	strb.w	r2, [r4, #65]	@ 0x41
    hi2c->PreviousState = I2C_STATE_NONE;
 80040bc:	6323      	str	r3, [r4, #48]	@ 0x30
    if (hi2c->Mode == HAL_I2C_MODE_MEM)
 80040be:	f894 2042 	ldrb.w	r2, [r4, #66]	@ 0x42
      __HAL_UNLOCK(hi2c);
 80040c2:	f884 3040 	strb.w	r3, [r4, #64]	@ 0x40
    if (hi2c->Mode == HAL_I2C_MODE_MEM)
 80040c6:	2a40      	cmp	r2, #64	@ 0x40
      hi2c->Mode = HAL_I2C_MODE_NONE;
 80040c8:	f884 3042 	strb.w	r3, [r4, #66]	@ 0x42
    if (hi2c->Mode == HAL_I2C_MODE_MEM)
 80040cc:	d103      	bne.n	80040d6 <I2C_ITMasterCplt+0xba>
      HAL_I2C_MemTxCpltCallback(hi2c);
 80040ce:	f7ff ff09 	bl	8003ee4 <HAL_I2C_MemTxCpltCallback>
}
 80040d2:	b002      	add	sp, #8
 80040d4:	bd70      	pop	{r4, r5, r6, pc}
      HAL_I2C_MasterTxCpltCallback(hi2c);
 80040d6:	f7ff fe34 	bl	8003d42 <HAL_I2C_MasterTxCpltCallback>
 80040da:	e7fa      	b.n	80040d2 <I2C_ITMasterCplt+0xb6>
  else if (hi2c->State == HAL_I2C_STATE_BUSY_RX)
 80040dc:	f894 2041 	ldrb.w	r2, [r4, #65]	@ 0x41
 80040e0:	2a22      	cmp	r2, #34	@ 0x22
 80040e2:	d1f6      	bne.n	80040d2 <I2C_ITMasterCplt+0xb6>
    hi2c->State = HAL_I2C_STATE_READY;
 80040e4:	2220      	movs	r2, #32
 80040e6:	f884 2041 	strb.w	r2, [r4, #65]	@ 0x41
    hi2c->PreviousState = I2C_STATE_NONE;
 80040ea:	6323      	str	r3, [r4, #48]	@ 0x30
    if (hi2c->Mode == HAL_I2C_MODE_MEM)
 80040ec:	f894 2042 	ldrb.w	r2, [r4, #66]	@ 0x42
      __HAL_UNLOCK(hi2c);
 80040f0:	f884 3040 	strb.w	r3, [r4, #64]	@ 0x40
    if (hi2c->Mode == HAL_I2C_MODE_MEM)
 80040f4:	2a40      	cmp	r2, #64	@ 0x40
      hi2c->Mode = HAL_I2C_MODE_NONE;
 80040f6:	f884 3042 	strb.w	r3, [r4, #66]	@ 0x42
    if (hi2c->Mode == HAL_I2C_MODE_MEM)
 80040fa:	d102      	bne.n	8004102 <I2C_ITMasterCplt+0xe6>
      HAL_I2C_MemRxCpltCallback(hi2c);
 80040fc:	f7fd f922 	bl	8001344 <HAL_I2C_MemRxCpltCallback>
 8004100:	e7e7      	b.n	80040d2 <I2C_ITMasterCplt+0xb6>
      HAL_I2C_MasterRxCpltCallback(hi2c);
 8004102:	f7ff fe1f 	bl	8003d44 <HAL_I2C_MasterRxCpltCallback>
}
 8004106:	e7e4      	b.n	80040d2 <I2C_ITMasterCplt+0xb6>

08004108 <I2C_Mem_ISR_DMA>:
{
 8004108:	b513      	push	{r0, r1, r4, lr}
  __HAL_LOCK(hi2c);
 800410a:	f890 3040 	ldrb.w	r3, [r0, #64]	@ 0x40
 800410e:	2b01      	cmp	r3, #1
{
 8004110:	4604      	mov	r4, r0
  __HAL_LOCK(hi2c);
 8004112:	f000 8093 	beq.w	800423c <I2C_Mem_ISR_DMA+0x134>
 8004116:	2301      	movs	r3, #1
 8004118:	f880 3040 	strb.w	r3, [r0, #64]	@ 0x40
  if ((I2C_CHECK_FLAG(ITFlags, I2C_FLAG_AF) != RESET) && \
 800411c:	06cb      	lsls	r3, r1, #27
 800411e:	d512      	bpl.n	8004146 <I2C_Mem_ISR_DMA+0x3e>
 8004120:	06d3      	lsls	r3, r2, #27
 8004122:	d510      	bpl.n	8004146 <I2C_Mem_ISR_DMA+0x3e>
    __HAL_I2C_CLEAR_FLAG(hi2c, I2C_FLAG_AF);
 8004124:	6803      	ldr	r3, [r0, #0]
 8004126:	2210      	movs	r2, #16
 8004128:	61da      	str	r2, [r3, #28]
    hi2c->ErrorCode |= HAL_I2C_ERROR_AF;
 800412a:	6c43      	ldr	r3, [r0, #68]	@ 0x44
 800412c:	f043 0304 	orr.w	r3, r3, #4
 8004130:	6443      	str	r3, [r0, #68]	@ 0x44
    I2C_Enable_IRQ(hi2c, I2C_XFER_CPLT_IT);
 8004132:	2120      	movs	r1, #32
 8004134:	f7ff f850 	bl	80031d8 <I2C_Enable_IRQ>
    I2C_Flush_TXDR(hi2c);
 8004138:	f7ff f82a 	bl	8003190 <I2C_Flush_TXDR>
  __HAL_UNLOCK(hi2c);
 800413c:	2000      	movs	r0, #0
 800413e:	f884 0040 	strb.w	r0, [r4, #64]	@ 0x40
}
 8004142:	b002      	add	sp, #8
 8004144:	bd10      	pop	{r4, pc}
  else if ((I2C_CHECK_FLAG(ITFlags, I2C_FLAG_TXIS) != RESET) && \
 8004146:	0788      	lsls	r0, r1, #30
 8004148:	d508      	bpl.n	800415c <I2C_Mem_ISR_DMA+0x54>
 800414a:	0793      	lsls	r3, r2, #30
 800414c:	d506      	bpl.n	800415c <I2C_Mem_ISR_DMA+0x54>
    hi2c->Instance->TXDR = hi2c->Memaddress;
 800414e:	6823      	ldr	r3, [r4, #0]
 8004150:	6d22      	ldr	r2, [r4, #80]	@ 0x50
 8004152:	629a      	str	r2, [r3, #40]	@ 0x28
    hi2c->Memaddress = 0xFFFFFFFFU;
 8004154:	f04f 33ff 	mov.w	r3, #4294967295
 8004158:	6523      	str	r3, [r4, #80]	@ 0x50
 800415a:	e7ef      	b.n	800413c <I2C_Mem_ISR_DMA+0x34>
  else if ((I2C_CHECK_FLAG(ITFlags, I2C_FLAG_TCR) != RESET) && \
 800415c:	0608      	lsls	r0, r1, #24
 800415e:	d53d      	bpl.n	80041dc <I2C_Mem_ISR_DMA+0xd4>
 8004160:	0653      	lsls	r3, r2, #25
 8004162:	d53b      	bpl.n	80041dc <I2C_Mem_ISR_DMA+0xd4>
    I2C_Disable_IRQ(hi2c, I2C_XFER_TX_IT);
 8004164:	2101      	movs	r1, #1
 8004166:	4620      	mov	r0, r4
 8004168:	f7ff f87e 	bl	8003268 <I2C_Disable_IRQ>
    I2C_Enable_IRQ(hi2c, I2C_XFER_ERROR_IT);
 800416c:	2110      	movs	r1, #16
 800416e:	f7ff f833 	bl	80031d8 <I2C_Enable_IRQ>
    if (hi2c->XferCount != 0U)
 8004172:	8d63      	ldrh	r3, [r4, #42]	@ 0x2a
 8004174:	b29b      	uxth	r3, r3
 8004176:	2b00      	cmp	r3, #0
 8004178:	d02c      	beq.n	80041d4 <I2C_Mem_ISR_DMA+0xcc>
      if (hi2c->XferCount > MAX_NBYTE_SIZE)
 800417a:	8d63      	ldrh	r3, [r4, #42]	@ 0x2a
 800417c:	b29b      	uxth	r3, r3
 800417e:	2bff      	cmp	r3, #255	@ 0xff
 8004180:	d91e      	bls.n	80041c0 <I2C_Mem_ISR_DMA+0xb8>
        if (I2C_GET_DIR(hi2c) == I2C_DIRECTION_RECEIVE)
 8004182:	6823      	ldr	r3, [r4, #0]
 8004184:	699b      	ldr	r3, [r3, #24]
        I2C_TransferConfig(hi2c, (uint16_t)hi2c->Devaddress, (uint8_t)hi2c->XferSize,
 8004186:	6ce1      	ldr	r1, [r4, #76]	@ 0x4c
          hi2c->XferSize = 1U;
 8004188:	f413 3f80 	tst.w	r3, #65536	@ 0x10000
 800418c:	bf0c      	ite	eq
 800418e:	22ff      	moveq	r2, #255	@ 0xff
 8004190:	2201      	movne	r2, #1
 8004192:	8522      	strh	r2, [r4, #40]	@ 0x28
        I2C_TransferConfig(hi2c, (uint16_t)hi2c->Devaddress, (uint8_t)hi2c->XferSize,
 8004194:	2300      	movs	r3, #0
      I2C_TransferConfig(hi2c, (uint16_t)hi2c->Devaddress, (uint8_t)hi2c->XferSize,
 8004196:	9300      	str	r3, [sp, #0]
 8004198:	f04f 7380 	mov.w	r3, #16777216	@ 0x1000000
      I2C_TransferConfig(hi2c, (uint16_t)hi2c->Devaddress, (uint8_t)hi2c->XferSize,
 800419c:	b289      	uxth	r1, r1
 800419e:	f7ff f805 	bl	80031ac <I2C_TransferConfig>
    hi2c->XferCount -= hi2c->XferSize;
 80041a2:	8d63      	ldrh	r3, [r4, #42]	@ 0x2a
 80041a4:	8d22      	ldrh	r2, [r4, #40]	@ 0x28
 80041a6:	1a9b      	subs	r3, r3, r2
 80041a8:	b29b      	uxth	r3, r3
 80041aa:	8563      	strh	r3, [r4, #42]	@ 0x2a
    if (hi2c->State == HAL_I2C_STATE_BUSY_RX)
 80041ac:	f894 2041 	ldrb.w	r2, [r4, #65]	@ 0x41
        if (I2C_GET_DIR(hi2c) == I2C_DIRECTION_RECEIVE)
 80041b0:	6823      	ldr	r3, [r4, #0]
    if (hi2c->State == HAL_I2C_STATE_BUSY_RX)
 80041b2:	2a22      	cmp	r2, #34	@ 0x22
      hi2c->Instance->CR1 |= I2C_CR1_RXDMAEN;
 80041b4:	681a      	ldr	r2, [r3, #0]
    if (hi2c->State == HAL_I2C_STATE_BUSY_RX)
 80041b6:	d136      	bne.n	8004226 <I2C_Mem_ISR_DMA+0x11e>
      hi2c->Instance->CR1 |= I2C_CR1_RXDMAEN;
 80041b8:	f442 4200 	orr.w	r2, r2, #32768	@ 0x8000
 80041bc:	601a      	str	r2, [r3, #0]
 80041be:	e7bd      	b.n	800413c <I2C_Mem_ISR_DMA+0x34>
        hi2c->XferSize = hi2c->XferCount;
 80041c0:	8d62      	ldrh	r2, [r4, #42]	@ 0x2a
        I2C_TransferConfig(hi2c, (uint16_t)hi2c->Devaddress, (uint8_t)hi2c->XferSize,
 80041c2:	6ce1      	ldr	r1, [r4, #76]	@ 0x4c
        hi2c->XferSize = hi2c->XferCount;
 80041c4:	b292      	uxth	r2, r2
 80041c6:	8522      	strh	r2, [r4, #40]	@ 0x28
        I2C_TransferConfig(hi2c, (uint16_t)hi2c->Devaddress, (uint8_t)hi2c->XferSize,
 80041c8:	2300      	movs	r3, #0
      I2C_TransferConfig(hi2c, (uint16_t)hi2c->Devaddress, (uint8_t)hi2c->XferSize,
 80041ca:	9300      	str	r3, [sp, #0]
 80041cc:	b2d2      	uxtb	r2, r2
 80041ce:	f04f 7300 	mov.w	r3, #33554432	@ 0x2000000
 80041d2:	e7e3      	b.n	800419c <I2C_Mem_ISR_DMA+0x94>
      I2C_ITError(hi2c, HAL_I2C_ERROR_SIZE);
 80041d4:	2140      	movs	r1, #64	@ 0x40
 80041d6:	f7ff fe9d 	bl	8003f14 <I2C_ITError>
 80041da:	e7af      	b.n	800413c <I2C_Mem_ISR_DMA+0x34>
  else if ((I2C_CHECK_FLAG(ITFlags, I2C_FLAG_TC) != RESET) && \
 80041dc:	0648      	lsls	r0, r1, #25
 80041de:	d525      	bpl.n	800422c <I2C_Mem_ISR_DMA+0x124>
 80041e0:	0653      	lsls	r3, r2, #25
 80041e2:	d523      	bpl.n	800422c <I2C_Mem_ISR_DMA+0x124>
    I2C_Disable_IRQ(hi2c, I2C_XFER_TX_IT);
 80041e4:	2101      	movs	r1, #1
 80041e6:	4620      	mov	r0, r4
 80041e8:	f7ff f83e 	bl	8003268 <I2C_Disable_IRQ>
    I2C_Enable_IRQ(hi2c, I2C_XFER_ERROR_IT);
 80041ec:	2110      	movs	r1, #16
 80041ee:	f7fe fff3 	bl	80031d8 <I2C_Enable_IRQ>
    if (hi2c->State == HAL_I2C_STATE_BUSY_RX)
 80041f2:	f894 1041 	ldrb.w	r1, [r4, #65]	@ 0x41
  uint32_t direction = I2C_GENERATE_START_WRITE;
 80041f6:	4a12      	ldr	r2, [pc, #72]	@ (8004240 <I2C_Mem_ISR_DMA+0x138>)
 80041f8:	4b12      	ldr	r3, [pc, #72]	@ (8004244 <I2C_Mem_ISR_DMA+0x13c>)
 80041fa:	2922      	cmp	r1, #34	@ 0x22
 80041fc:	bf18      	it	ne
 80041fe:	4613      	movne	r3, r2
    if (hi2c->XferCount > MAX_NBYTE_SIZE)
 8004200:	8d62      	ldrh	r2, [r4, #42]	@ 0x2a
 8004202:	b292      	uxth	r2, r2
 8004204:	2aff      	cmp	r2, #255	@ 0xff
 8004206:	d909      	bls.n	800421c <I2C_Mem_ISR_DMA+0x114>
      if (I2C_GET_DIR(hi2c) == I2C_DIRECTION_RECEIVE)
 8004208:	6822      	ldr	r2, [r4, #0]
 800420a:	6992      	ldr	r2, [r2, #24]
      I2C_TransferConfig(hi2c, (uint16_t)hi2c->Devaddress, (uint8_t)hi2c->XferSize,
 800420c:	6ce1      	ldr	r1, [r4, #76]	@ 0x4c
        hi2c->XferSize = 1U;
 800420e:	f412 3f80 	tst.w	r2, #65536	@ 0x10000
 8004212:	bf0c      	ite	eq
 8004214:	22ff      	moveq	r2, #255	@ 0xff
 8004216:	2201      	movne	r2, #1
 8004218:	8522      	strh	r2, [r4, #40]	@ 0x28
      I2C_TransferConfig(hi2c, (uint16_t)hi2c->Devaddress, (uint8_t)hi2c->XferSize,
 800421a:	e7bc      	b.n	8004196 <I2C_Mem_ISR_DMA+0x8e>
      hi2c->XferSize = hi2c->XferCount;
 800421c:	8d62      	ldrh	r2, [r4, #42]	@ 0x2a
      I2C_TransferConfig(hi2c, (uint16_t)hi2c->Devaddress, (uint8_t)hi2c->XferSize,
 800421e:	6ce1      	ldr	r1, [r4, #76]	@ 0x4c
      hi2c->XferSize = hi2c->XferCount;
 8004220:	b292      	uxth	r2, r2
 8004222:	8522      	strh	r2, [r4, #40]	@ 0x28
      I2C_TransferConfig(hi2c, (uint16_t)hi2c->Devaddress, (uint8_t)hi2c->XferSize,
 8004224:	e7d1      	b.n	80041ca <I2C_Mem_ISR_DMA+0xc2>
      hi2c->Instance->CR1 |= I2C_CR1_TXDMAEN;
 8004226:	f442 4280 	orr.w	r2, r2, #16384	@ 0x4000
 800422a:	e7c7      	b.n	80041bc <I2C_Mem_ISR_DMA+0xb4>
  else if ((I2C_CHECK_FLAG(ITFlags, I2C_FLAG_STOPF) != RESET) && \
 800422c:	0688      	lsls	r0, r1, #26
 800422e:	d585      	bpl.n	800413c <I2C_Mem_ISR_DMA+0x34>
 8004230:	0693      	lsls	r3, r2, #26
 8004232:	d583      	bpl.n	800413c <I2C_Mem_ISR_DMA+0x34>
    I2C_ITMasterCplt(hi2c, ITFlags);
 8004234:	4620      	mov	r0, r4
 8004236:	f7ff fef1 	bl	800401c <I2C_ITMasterCplt>
 800423a:	e77f      	b.n	800413c <I2C_Mem_ISR_DMA+0x34>
  __HAL_LOCK(hi2c);
 800423c:	2002      	movs	r0, #2
 800423e:	e780      	b.n	8004142 <I2C_Mem_ISR_DMA+0x3a>
 8004240:	80002000 	.word	0x80002000
 8004244:	80002400 	.word	0x80002400

08004248 <I2C_Master_ISR_DMA>:
{
 8004248:	b573      	push	{r0, r1, r4, r5, r6, lr}
  __HAL_LOCK(hi2c);
 800424a:	f890 3040 	ldrb.w	r3, [r0, #64]	@ 0x40
 800424e:	2b01      	cmp	r3, #1
{
 8004250:	4604      	mov	r4, r0
  __HAL_LOCK(hi2c);
 8004252:	d07e      	beq.n	8004352 <I2C_Master_ISR_DMA+0x10a>
 8004254:	2301      	movs	r3, #1
  if ((I2C_CHECK_FLAG(ITFlags, I2C_FLAG_AF) != RESET) && \
 8004256:	06cd      	lsls	r5, r1, #27
  __HAL_LOCK(hi2c);
 8004258:	f880 3040 	strb.w	r3, [r0, #64]	@ 0x40
  if ((I2C_CHECK_FLAG(ITFlags, I2C_FLAG_AF) != RESET) && \
 800425c:	d512      	bpl.n	8004284 <I2C_Master_ISR_DMA+0x3c>
 800425e:	06d3      	lsls	r3, r2, #27
 8004260:	d510      	bpl.n	8004284 <I2C_Master_ISR_DMA+0x3c>
    __HAL_I2C_CLEAR_FLAG(hi2c, I2C_FLAG_AF);
 8004262:	6803      	ldr	r3, [r0, #0]
 8004264:	2210      	movs	r2, #16
 8004266:	61da      	str	r2, [r3, #28]
    hi2c->ErrorCode |= HAL_I2C_ERROR_AF;
 8004268:	6c43      	ldr	r3, [r0, #68]	@ 0x44
 800426a:	f043 0304 	orr.w	r3, r3, #4
 800426e:	6443      	str	r3, [r0, #68]	@ 0x44
    I2C_Enable_IRQ(hi2c, I2C_XFER_CPLT_IT);
 8004270:	2120      	movs	r1, #32
 8004272:	f7fe ffb1 	bl	80031d8 <I2C_Enable_IRQ>
    I2C_Flush_TXDR(hi2c);
 8004276:	f7fe ff8b 	bl	8003190 <I2C_Flush_TXDR>
  __HAL_UNLOCK(hi2c);
 800427a:	2000      	movs	r0, #0
 800427c:	f884 0040 	strb.w	r0, [r4, #64]	@ 0x40
}
 8004280:	b002      	add	sp, #8
 8004282:	bd70      	pop	{r4, r5, r6, pc}
  else if ((I2C_CHECK_FLAG(ITFlags, I2C_FLAG_TCR) != RESET) && \
 8004284:	060e      	lsls	r6, r1, #24
 8004286:	d547      	bpl.n	8004318 <I2C_Master_ISR_DMA+0xd0>
 8004288:	0655      	lsls	r5, r2, #25
 800428a:	d545      	bpl.n	8004318 <I2C_Master_ISR_DMA+0xd0>
    __HAL_I2C_DISABLE_IT(hi2c, I2C_IT_TCI);
 800428c:	6825      	ldr	r5, [r4, #0]
 800428e:	682b      	ldr	r3, [r5, #0]
 8004290:	f023 0340 	bic.w	r3, r3, #64	@ 0x40
 8004294:	602b      	str	r3, [r5, #0]
    if (hi2c->XferCount != 0U)
 8004296:	8d63      	ldrh	r3, [r4, #42]	@ 0x2a
 8004298:	b29b      	uxth	r3, r3
 800429a:	2b00      	cmp	r3, #0
 800429c:	d030      	beq.n	8004300 <I2C_Master_ISR_DMA+0xb8>
      devaddress = (uint16_t)(hi2c->Instance->CR2 & I2C_CR2_SADD);
 800429e:	6869      	ldr	r1, [r5, #4]
      if (hi2c->XferCount > MAX_NBYTE_SIZE)
 80042a0:	8d63      	ldrh	r3, [r4, #42]	@ 0x2a
 80042a2:	b29b      	uxth	r3, r3
 80042a4:	2bff      	cmp	r3, #255	@ 0xff
      devaddress = (uint16_t)(hi2c->Instance->CR2 & I2C_CR2_SADD);
 80042a6:	f3c1 0109 	ubfx	r1, r1, #0, #10
      if (hi2c->XferCount > MAX_NBYTE_SIZE)
 80042aa:	d91f      	bls.n	80042ec <I2C_Master_ISR_DMA+0xa4>
        if (I2C_GET_DIR(hi2c) == I2C_DIRECTION_RECEIVE)
 80042ac:	69ab      	ldr	r3, [r5, #24]
 80042ae:	03d8      	lsls	r0, r3, #15
 80042b0:	d51a      	bpl.n	80042e8 <I2C_Master_ISR_DMA+0xa0>
          hi2c->XferSize = 1U;
 80042b2:	2301      	movs	r3, #1
 80042b4:	8523      	strh	r3, [r4, #40]	@ 0x28
        xfermode = I2C_RELOAD_MODE;
 80042b6:	f04f 7380 	mov.w	r3, #16777216	@ 0x1000000
      I2C_TransferConfig(hi2c, devaddress, (uint8_t)hi2c->XferSize, xfermode, I2C_NO_STARTSTOP);
 80042ba:	2200      	movs	r2, #0
 80042bc:	8d26      	ldrh	r6, [r4, #40]	@ 0x28
 80042be:	9200      	str	r2, [sp, #0]
 80042c0:	f894 2028 	ldrb.w	r2, [r4, #40]	@ 0x28
 80042c4:	4620      	mov	r0, r4
 80042c6:	f7fe ff71 	bl	80031ac <I2C_TransferConfig>
      hi2c->XferCount -= hi2c->XferSize;
 80042ca:	8d63      	ldrh	r3, [r4, #42]	@ 0x2a
 80042cc:	1b9b      	subs	r3, r3, r6
 80042ce:	b29b      	uxth	r3, r3
 80042d0:	8563      	strh	r3, [r4, #42]	@ 0x2a
      if (hi2c->State == HAL_I2C_STATE_BUSY_RX)
 80042d2:	f894 3041 	ldrb.w	r3, [r4, #65]	@ 0x41
 80042d6:	2b22      	cmp	r3, #34	@ 0x22
        hi2c->Instance->CR1 |= I2C_CR1_RXDMAEN;
 80042d8:	682b      	ldr	r3, [r5, #0]
 80042da:	bf0c      	ite	eq
 80042dc:	f443 4300 	orreq.w	r3, r3, #32768	@ 0x8000
        hi2c->Instance->CR1 |= I2C_CR1_TXDMAEN;
 80042e0:	f443 4380 	orrne.w	r3, r3, #16384	@ 0x4000
 80042e4:	602b      	str	r3, [r5, #0]
 80042e6:	e7c8      	b.n	800427a <I2C_Master_ISR_DMA+0x32>
          hi2c->XferSize = MAX_NBYTE_SIZE;
 80042e8:	23ff      	movs	r3, #255	@ 0xff
 80042ea:	e7e3      	b.n	80042b4 <I2C_Master_ISR_DMA+0x6c>
        hi2c->XferSize = hi2c->XferCount;
 80042ec:	8d63      	ldrh	r3, [r4, #42]	@ 0x2a
 80042ee:	8523      	strh	r3, [r4, #40]	@ 0x28
        if (hi2c->XferOptions != I2C_NO_OPTION_FRAME)
 80042f0:	6ae3      	ldr	r3, [r4, #44]	@ 0x2c
 80042f2:	f513 3f80 	cmn.w	r3, #65536	@ 0x10000
          xfermode = hi2c->XferOptions;
 80042f6:	bf14      	ite	ne
 80042f8:	6ae3      	ldrne	r3, [r4, #44]	@ 0x2c
          xfermode = I2C_AUTOEND_MODE;
 80042fa:	f04f 7300 	moveq.w	r3, #33554432	@ 0x2000000
 80042fe:	e7dc      	b.n	80042ba <I2C_Master_ISR_DMA+0x72>
      if (I2C_GET_STOP_MODE(hi2c) != I2C_AUTOEND_MODE)
 8004300:	686b      	ldr	r3, [r5, #4]
 8004302:	019a      	lsls	r2, r3, #6
 8004304:	d403      	bmi.n	800430e <I2C_Master_ISR_DMA+0xc6>
        I2C_ITMasterSeqCplt(hi2c);
 8004306:	4620      	mov	r0, r4
 8004308:	f7ff fd1d 	bl	8003d46 <I2C_ITMasterSeqCplt>
 800430c:	e7b5      	b.n	800427a <I2C_Master_ISR_DMA+0x32>
        I2C_ITError(hi2c, HAL_I2C_ERROR_SIZE);
 800430e:	2140      	movs	r1, #64	@ 0x40
 8004310:	4620      	mov	r0, r4
 8004312:	f7ff fdff 	bl	8003f14 <I2C_ITError>
 8004316:	e7b0      	b.n	800427a <I2C_Master_ISR_DMA+0x32>
  else if ((I2C_CHECK_FLAG(ITFlags, I2C_FLAG_TC) != RESET) && \
 8004318:	064b      	lsls	r3, r1, #25
 800431a:	d512      	bpl.n	8004342 <I2C_Master_ISR_DMA+0xfa>
 800431c:	0656      	lsls	r6, r2, #25
 800431e:	d510      	bpl.n	8004342 <I2C_Master_ISR_DMA+0xfa>
    if (hi2c->XferCount == 0U)
 8004320:	8d63      	ldrh	r3, [r4, #42]	@ 0x2a
 8004322:	b29b      	uxth	r3, r3
 8004324:	2b00      	cmp	r3, #0
 8004326:	d1f2      	bne.n	800430e <I2C_Master_ISR_DMA+0xc6>
      if (I2C_GET_STOP_MODE(hi2c) != I2C_AUTOEND_MODE)
 8004328:	6823      	ldr	r3, [r4, #0]
 800432a:	685a      	ldr	r2, [r3, #4]
 800432c:	0195      	lsls	r5, r2, #6
 800432e:	d4a4      	bmi.n	800427a <I2C_Master_ISR_DMA+0x32>
        if (hi2c->XferOptions == I2C_NO_OPTION_FRAME)
 8004330:	6ae2      	ldr	r2, [r4, #44]	@ 0x2c
 8004332:	f512 3f80 	cmn.w	r2, #65536	@ 0x10000
 8004336:	d1e6      	bne.n	8004306 <I2C_Master_ISR_DMA+0xbe>
          hi2c->Instance->CR2 |= I2C_CR2_STOP;
 8004338:	685a      	ldr	r2, [r3, #4]
 800433a:	f442 4280 	orr.w	r2, r2, #16384	@ 0x4000
 800433e:	605a      	str	r2, [r3, #4]
 8004340:	e79b      	b.n	800427a <I2C_Master_ISR_DMA+0x32>
  else if ((I2C_CHECK_FLAG(ITFlags, I2C_FLAG_STOPF) != RESET) && \
 8004342:	0688      	lsls	r0, r1, #26
 8004344:	d599      	bpl.n	800427a <I2C_Master_ISR_DMA+0x32>
 8004346:	0693      	lsls	r3, r2, #26
 8004348:	d597      	bpl.n	800427a <I2C_Master_ISR_DMA+0x32>
    I2C_ITMasterCplt(hi2c, ITFlags);
 800434a:	4620      	mov	r0, r4
 800434c:	f7ff fe66 	bl	800401c <I2C_ITMasterCplt>
 8004350:	e793      	b.n	800427a <I2C_Master_ISR_DMA+0x32>
  __HAL_LOCK(hi2c);
 8004352:	2002      	movs	r0, #2
 8004354:	e794      	b.n	8004280 <I2C_Master_ISR_DMA+0x38>

08004356 <I2C_DMAError>:
  I2C_HandleTypeDef *hi2c = (I2C_HandleTypeDef *)(((DMA_HandleTypeDef *)hdma)->Parent);
 8004356:	6a40      	ldr	r0, [r0, #36]	@ 0x24
  hi2c->Instance->CR2 |= I2C_CR2_NACK;
 8004358:	6802      	ldr	r2, [r0, #0]
 800435a:	6853      	ldr	r3, [r2, #4]
 800435c:	f443 4300 	orr.w	r3, r3, #32768	@ 0x8000
 8004360:	6053      	str	r3, [r2, #4]
  I2C_ITError(hi2c, HAL_I2C_ERROR_DMA);
 8004362:	2110      	movs	r1, #16
 8004364:	f7ff bdd6 	b.w	8003f14 <I2C_ITError>

08004368 <I2C_DMAMasterReceiveCplt>:
{
 8004368:	b510      	push	{r4, lr}
  I2C_HandleTypeDef *hi2c = (I2C_HandleTypeDef *)(((DMA_HandleTypeDef *)hdma)->Parent);
 800436a:	6a44      	ldr	r4, [r0, #36]	@ 0x24
  hi2c->Instance->CR1 &= ~I2C_CR1_RXDMAEN;
 800436c:	6821      	ldr	r1, [r4, #0]
 800436e:	680b      	ldr	r3, [r1, #0]
 8004370:	f423 4300 	bic.w	r3, r3, #32768	@ 0x8000
 8004374:	600b      	str	r3, [r1, #0]
  if (hi2c->XferCount == 0U)
 8004376:	8d63      	ldrh	r3, [r4, #42]	@ 0x2a
 8004378:	b29b      	uxth	r3, r3
 800437a:	b92b      	cbnz	r3, 8004388 <I2C_DMAMasterReceiveCplt+0x20>
    I2C_Enable_IRQ(hi2c, I2C_XFER_CPLT_IT);
 800437c:	2120      	movs	r1, #32
      I2C_Enable_IRQ(hi2c, I2C_XFER_RELOAD_IT);
 800437e:	4620      	mov	r0, r4
}
 8004380:	e8bd 4010 	ldmia.w	sp!, {r4, lr}
      I2C_Enable_IRQ(hi2c, I2C_XFER_RELOAD_IT);
 8004384:	f7fe bf28 	b.w	80031d8 <I2C_Enable_IRQ>
    hi2c->pBuffPtr += hi2c->XferSize;
 8004388:	8d23      	ldrh	r3, [r4, #40]	@ 0x28
 800438a:	6a62      	ldr	r2, [r4, #36]	@ 0x24
 800438c:	441a      	add	r2, r3
    if (hi2c->XferCount > MAX_NBYTE_SIZE)
 800438e:	8d63      	ldrh	r3, [r4, #42]	@ 0x2a
    hi2c->pBuffPtr += hi2c->XferSize;
 8004390:	6262      	str	r2, [r4, #36]	@ 0x24
    if (hi2c->XferCount > MAX_NBYTE_SIZE)
 8004392:	b29b      	uxth	r3, r3
 8004394:	2bff      	cmp	r3, #255	@ 0xff
 8004396:	d911      	bls.n	80043bc <I2C_DMAMasterReceiveCplt+0x54>
      if (I2C_GET_DIR(hi2c) == I2C_DIRECTION_RECEIVE)
 8004398:	698b      	ldr	r3, [r1, #24]
 800439a:	f413 3f80 	tst.w	r3, #65536	@ 0x10000
 800439e:	bf14      	ite	ne
 80043a0:	2301      	movne	r3, #1
 80043a2:	23ff      	moveq	r3, #255	@ 0xff
    if (HAL_DMA_Start_IT(hi2c->hdmarx, (uint32_t)&hi2c->Instance->RXDR, (uint32_t)hi2c->pBuffPtr,
 80043a4:	6be0      	ldr	r0, [r4, #60]	@ 0x3c
        hi2c->XferSize = MAX_NBYTE_SIZE;
 80043a6:	8523      	strh	r3, [r4, #40]	@ 0x28
    if (HAL_DMA_Start_IT(hi2c->hdmarx, (uint32_t)&hi2c->Instance->RXDR, (uint32_t)hi2c->pBuffPtr,
 80043a8:	3124      	adds	r1, #36	@ 0x24
 80043aa:	f7fe fd71 	bl	8002e90 <HAL_DMA_Start_IT>
 80043ae:	b140      	cbz	r0, 80043c2 <I2C_DMAMasterReceiveCplt+0x5a>
      I2C_ITError(hi2c, HAL_I2C_ERROR_DMA);
 80043b0:	4620      	mov	r0, r4
 80043b2:	2110      	movs	r1, #16
}
 80043b4:	e8bd 4010 	ldmia.w	sp!, {r4, lr}
      I2C_ITError(hi2c, HAL_I2C_ERROR_DMA);
 80043b8:	f7ff bdac 	b.w	8003f14 <I2C_ITError>
      hi2c->XferSize = hi2c->XferCount;
 80043bc:	8d63      	ldrh	r3, [r4, #42]	@ 0x2a
 80043be:	b29b      	uxth	r3, r3
 80043c0:	e7f0      	b.n	80043a4 <I2C_DMAMasterReceiveCplt+0x3c>
      I2C_Enable_IRQ(hi2c, I2C_XFER_RELOAD_IT);
 80043c2:	2140      	movs	r1, #64	@ 0x40
 80043c4:	e7db      	b.n	800437e <I2C_DMAMasterReceiveCplt+0x16>

080043c6 <HAL_I2C_ER_IRQHandler>:
  uint32_t itflags   = READ_REG(hi2c->Instance->ISR);
 80043c6:	6803      	ldr	r3, [r0, #0]
 80043c8:	6999      	ldr	r1, [r3, #24]
  uint32_t itsources = READ_REG(hi2c->Instance->CR1);
 80043ca:	681a      	ldr	r2, [r3, #0]
{
 80043cc:	b410      	push	{r4}
  if ((I2C_CHECK_FLAG(itflags, I2C_FLAG_BERR) != RESET) && \
 80043ce:	05cc      	lsls	r4, r1, #23
 80043d0:	d508      	bpl.n	80043e4 <HAL_I2C_ER_IRQHandler+0x1e>
 80043d2:	0614      	lsls	r4, r2, #24
 80043d4:	d506      	bpl.n	80043e4 <HAL_I2C_ER_IRQHandler+0x1e>
    hi2c->ErrorCode |= HAL_I2C_ERROR_BERR;
 80043d6:	6c44      	ldr	r4, [r0, #68]	@ 0x44
 80043d8:	f044 0401 	orr.w	r4, r4, #1
 80043dc:	6444      	str	r4, [r0, #68]	@ 0x44
    __HAL_I2C_CLEAR_FLAG(hi2c, I2C_FLAG_BERR);
 80043de:	f44f 7480 	mov.w	r4, #256	@ 0x100
 80043e2:	61dc      	str	r4, [r3, #28]
  if ((I2C_CHECK_FLAG(itflags, I2C_FLAG_OVR) != RESET) && \
 80043e4:	054c      	lsls	r4, r1, #21
 80043e6:	d508      	bpl.n	80043fa <HAL_I2C_ER_IRQHandler+0x34>
 80043e8:	0614      	lsls	r4, r2, #24
 80043ea:	d506      	bpl.n	80043fa <HAL_I2C_ER_IRQHandler+0x34>
    hi2c->ErrorCode |= HAL_I2C_ERROR_OVR;
 80043ec:	6c44      	ldr	r4, [r0, #68]	@ 0x44
 80043ee:	f044 0408 	orr.w	r4, r4, #8
 80043f2:	6444      	str	r4, [r0, #68]	@ 0x44
    __HAL_I2C_CLEAR_FLAG(hi2c, I2C_FLAG_OVR);
 80043f4:	f44f 6480 	mov.w	r4, #1024	@ 0x400
 80043f8:	61dc      	str	r4, [r3, #28]
  if ((I2C_CHECK_FLAG(itflags, I2C_FLAG_ARLO) != RESET) && \
 80043fa:	0589      	lsls	r1, r1, #22
 80043fc:	d508      	bpl.n	8004410 <HAL_I2C_ER_IRQHandler+0x4a>
 80043fe:	0612      	lsls	r2, r2, #24
 8004400:	d506      	bpl.n	8004410 <HAL_I2C_ER_IRQHandler+0x4a>
    hi2c->ErrorCode |= HAL_I2C_ERROR_ARLO;
 8004402:	6c42      	ldr	r2, [r0, #68]	@ 0x44
 8004404:	f042 0202 	orr.w	r2, r2, #2
 8004408:	6442      	str	r2, [r0, #68]	@ 0x44
    __HAL_I2C_CLEAR_FLAG(hi2c, I2C_FLAG_ARLO);
 800440a:	f44f 7200 	mov.w	r2, #512	@ 0x200
 800440e:	61da      	str	r2, [r3, #28]
  tmperror = hi2c->ErrorCode;
 8004410:	6c41      	ldr	r1, [r0, #68]	@ 0x44
  if ((tmperror & (HAL_I2C_ERROR_BERR | HAL_I2C_ERROR_OVR | HAL_I2C_ERROR_ARLO)) !=  HAL_I2C_ERROR_NONE)
 8004412:	f011 0f0b 	tst.w	r1, #11
 8004416:	d003      	beq.n	8004420 <HAL_I2C_ER_IRQHandler+0x5a>
}
 8004418:	f85d 4b04 	ldr.w	r4, [sp], #4
    I2C_ITError(hi2c, tmperror);
 800441c:	f7ff bd7a 	b.w	8003f14 <I2C_ITError>
}
 8004420:	f85d 4b04 	ldr.w	r4, [sp], #4
 8004424:	4770      	bx	lr
	...

08004428 <I2C_ITSlaveCplt.constprop.0>:
static void I2C_ITSlaveCplt(I2C_HandleTypeDef *hi2c, uint32_t ITFlags)
 8004428:	e92d 41f0 	stmdb	sp!, {r4, r5, r6, r7, r8, lr}
  uint32_t tmpcr1value = READ_REG(hi2c->Instance->CR1);
 800442c:	6805      	ldr	r5, [r0, #0]
 800442e:	f8d5 8000 	ldr.w	r8, [r5]
  uint32_t tmpoptions = hi2c->XferOptions;
 8004432:	6ac7      	ldr	r7, [r0, #44]	@ 0x2c
  HAL_I2C_StateTypeDef tmpstate = hi2c->State;
 8004434:	f890 3041 	ldrb.w	r3, [r0, #65]	@ 0x41
  __HAL_I2C_CLEAR_FLAG(hi2c, I2C_FLAG_STOPF);
 8004438:	2220      	movs	r2, #32
 800443a:	3b21      	subs	r3, #33	@ 0x21
static void I2C_ITSlaveCplt(I2C_HandleTypeDef *hi2c, uint32_t ITFlags)
 800443c:	4604      	mov	r4, r0
 800443e:	460e      	mov	r6, r1
  __HAL_I2C_CLEAR_FLAG(hi2c, I2C_FLAG_STOPF);
 8004440:	61ea      	str	r2, [r5, #28]
  if ((tmpstate == HAL_I2C_STATE_BUSY_TX) || (tmpstate == HAL_I2C_STATE_BUSY_TX_LISTEN))
 8004442:	2b09      	cmp	r3, #9
 8004444:	d80c      	bhi.n	8004460 <I2C_ITSlaveCplt.constprop.0+0x38>
 8004446:	e8df f003 	tbb	[pc, r3]
 800444a:	6b05      	.short	0x6b05
 800444c:	0b0b0b0b 	.word	0x0b0b0b0b
 8004450:	6b05710b 	.word	0x6b05710b
    I2C_Disable_IRQ(hi2c, I2C_XFER_LISTEN_IT | I2C_XFER_TX_IT);
 8004454:	f248 0101 	movw	r1, #32769	@ 0x8001
 8004458:	f7fe ff06 	bl	8003268 <I2C_Disable_IRQ>
    hi2c->PreviousState = I2C_STATE_SLAVE_BUSY_TX;
 800445c:	2321      	movs	r3, #33	@ 0x21
    hi2c->PreviousState = I2C_STATE_NONE;
 800445e:	6323      	str	r3, [r4, #48]	@ 0x30
  hi2c->Instance->CR2 |= I2C_CR2_NACK;
 8004460:	686b      	ldr	r3, [r5, #4]
 8004462:	f443 4300 	orr.w	r3, r3, #32768	@ 0x8000
 8004466:	606b      	str	r3, [r5, #4]
  I2C_RESET_CR2(hi2c);
 8004468:	686b      	ldr	r3, [r5, #4]
 800446a:	f023 73ff 	bic.w	r3, r3, #33423360	@ 0x1fe0000
 800446e:	f423 338b 	bic.w	r3, r3, #71168	@ 0x11600
 8004472:	f423 73ff 	bic.w	r3, r3, #510	@ 0x1fe
 8004476:	f023 0301 	bic.w	r3, r3, #1
 800447a:	606b      	str	r3, [r5, #4]
  I2C_Flush_TXDR(hi2c);
 800447c:	4620      	mov	r0, r4
 800447e:	f7fe fe87 	bl	8003190 <I2C_Flush_TXDR>
  if (I2C_CHECK_IT_SOURCE(tmpcr1value, I2C_CR1_TXDMAEN) != RESET)
 8004482:	f418 4f80 	tst.w	r8, #16384	@ 0x4000
 8004486:	d057      	beq.n	8004538 <I2C_ITSlaveCplt.constprop.0+0x110>
    hi2c->Instance->CR1 &= ~I2C_CR1_TXDMAEN;
 8004488:	682b      	ldr	r3, [r5, #0]
 800448a:	f423 4380 	bic.w	r3, r3, #16384	@ 0x4000
 800448e:	602b      	str	r3, [r5, #0]
    if (hi2c->hdmatx != NULL)
 8004490:	6ba3      	ldr	r3, [r4, #56]	@ 0x38
    if (hi2c->hdmarx != NULL)
 8004492:	b11b      	cbz	r3, 800449c <I2C_ITSlaveCplt.constprop.0+0x74>
      hi2c->XferCount = (uint16_t)I2C_GET_DMA_REMAIN_DATA(hi2c->hdmarx);
 8004494:	681b      	ldr	r3, [r3, #0]
 8004496:	685b      	ldr	r3, [r3, #4]
 8004498:	b29b      	uxth	r3, r3
 800449a:	8563      	strh	r3, [r4, #42]	@ 0x2a
  if (I2C_CHECK_FLAG(tmpITFlags, I2C_FLAG_RXNE) != RESET)
 800449c:	0772      	lsls	r2, r6, #29
 800449e:	d50f      	bpl.n	80044c0 <I2C_ITSlaveCplt.constprop.0+0x98>
    *hi2c->pBuffPtr = (uint8_t)hi2c->Instance->RXDR;
 80044a0:	6a63      	ldr	r3, [r4, #36]	@ 0x24
 80044a2:	6a6a      	ldr	r2, [r5, #36]	@ 0x24
 80044a4:	701a      	strb	r2, [r3, #0]
    hi2c->pBuffPtr++;
 80044a6:	6a63      	ldr	r3, [r4, #36]	@ 0x24
 80044a8:	3301      	adds	r3, #1
 80044aa:	6263      	str	r3, [r4, #36]	@ 0x24
    if ((hi2c->XferSize > 0U))
 80044ac:	8d23      	ldrh	r3, [r4, #40]	@ 0x28
    tmpITFlags &= ~I2C_FLAG_RXNE;
 80044ae:	f026 0604 	bic.w	r6, r6, #4
    if ((hi2c->XferSize > 0U))
 80044b2:	b12b      	cbz	r3, 80044c0 <I2C_ITSlaveCplt.constprop.0+0x98>
      hi2c->XferSize--;
 80044b4:	3b01      	subs	r3, #1
 80044b6:	8523      	strh	r3, [r4, #40]	@ 0x28
      hi2c->XferCount--;
 80044b8:	8d63      	ldrh	r3, [r4, #42]	@ 0x2a
 80044ba:	3b01      	subs	r3, #1
 80044bc:	b29b      	uxth	r3, r3
 80044be:	8563      	strh	r3, [r4, #42]	@ 0x2a
  if (hi2c->XferCount != 0U)
 80044c0:	8d63      	ldrh	r3, [r4, #42]	@ 0x2a
 80044c2:	b29b      	uxth	r3, r3
 80044c4:	b11b      	cbz	r3, 80044ce <I2C_ITSlaveCplt.constprop.0+0xa6>
    hi2c->ErrorCode |= HAL_I2C_ERROR_AF;
 80044c6:	6c63      	ldr	r3, [r4, #68]	@ 0x44
 80044c8:	f043 0304 	orr.w	r3, r3, #4
 80044cc:	6463      	str	r3, [r4, #68]	@ 0x44
  if ((I2C_CHECK_FLAG(tmpITFlags, I2C_FLAG_AF) != RESET) && \
 80044ce:	06f3      	lsls	r3, r6, #27
 80044d0:	d511      	bpl.n	80044f6 <I2C_ITSlaveCplt.constprop.0+0xce>
 80044d2:	f018 0f10 	tst.w	r8, #16
 80044d6:	d00e      	beq.n	80044f6 <I2C_ITSlaveCplt.constprop.0+0xce>
    if (hi2c->XferCount == 0U)
 80044d8:	8d63      	ldrh	r3, [r4, #42]	@ 0x2a
 80044da:	b29b      	uxth	r3, r3
 80044dc:	2b00      	cmp	r3, #0
 80044de:	d145      	bne.n	800456c <I2C_ITSlaveCplt.constprop.0+0x144>
      if ((hi2c->State == HAL_I2C_STATE_LISTEN) && (tmpoptions == I2C_FIRST_AND_LAST_FRAME))
 80044e0:	f894 3041 	ldrb.w	r3, [r4, #65]	@ 0x41
 80044e4:	2b28      	cmp	r3, #40	@ 0x28
 80044e6:	d130      	bne.n	800454a <I2C_ITSlaveCplt.constprop.0+0x122>
 80044e8:	f1b7 7f00 	cmp.w	r7, #33554432	@ 0x2000000
 80044ec:	d12d      	bne.n	800454a <I2C_ITSlaveCplt.constprop.0+0x122>
        I2C_ITListenCplt(hi2c, tmpITFlags);
 80044ee:	4631      	mov	r1, r6
 80044f0:	4620      	mov	r0, r4
 80044f2:	f7ff fcc7 	bl	8003e84 <I2C_ITListenCplt>
  hi2c->Mode = HAL_I2C_MODE_NONE;
 80044f6:	2300      	movs	r3, #0
 80044f8:	f884 3042 	strb.w	r3, [r4, #66]	@ 0x42
  if (hi2c->ErrorCode != HAL_I2C_ERROR_NONE)
 80044fc:	6c65      	ldr	r5, [r4, #68]	@ 0x44
  hi2c->XferISR = NULL;
 80044fe:	6363      	str	r3, [r4, #52]	@ 0x34
  if (hi2c->ErrorCode != HAL_I2C_ERROR_NONE)
 8004500:	2d00      	cmp	r5, #0
 8004502:	d042      	beq.n	800458a <I2C_ITSlaveCplt.constprop.0+0x162>
    I2C_ITError(hi2c, hi2c->ErrorCode);
 8004504:	6c61      	ldr	r1, [r4, #68]	@ 0x44
 8004506:	4620      	mov	r0, r4
 8004508:	f7ff fd04 	bl	8003f14 <I2C_ITError>
    if (hi2c->State == HAL_I2C_STATE_LISTEN)
 800450c:	f894 3041 	ldrb.w	r3, [r4, #65]	@ 0x41
 8004510:	2b28      	cmp	r3, #40	@ 0x28
 8004512:	d14c      	bne.n	80045ae <I2C_ITSlaveCplt.constprop.0+0x186>
      I2C_ITListenCplt(hi2c, tmpITFlags);
 8004514:	4631      	mov	r1, r6
 8004516:	4620      	mov	r0, r4
}
 8004518:	e8bd 41f0 	ldmia.w	sp!, {r4, r5, r6, r7, r8, lr}
      I2C_ITListenCplt(hi2c, tmpITFlags);
 800451c:	f7ff bcb2 	b.w	8003e84 <I2C_ITListenCplt>
    I2C_Disable_IRQ(hi2c, I2C_XFER_LISTEN_IT | I2C_XFER_RX_IT);
 8004520:	f248 0102 	movw	r1, #32770	@ 0x8002
 8004524:	f7fe fea0 	bl	8003268 <I2C_Disable_IRQ>
    hi2c->PreviousState = I2C_STATE_SLAVE_BUSY_RX;
 8004528:	2322      	movs	r3, #34	@ 0x22
 800452a:	e798      	b.n	800445e <I2C_ITSlaveCplt.constprop.0+0x36>
    I2C_Disable_IRQ(hi2c, I2C_XFER_LISTEN_IT | I2C_XFER_TX_IT | I2C_XFER_RX_IT);
 800452c:	f248 0103 	movw	r1, #32771	@ 0x8003
 8004530:	f7fe fe9a 	bl	8003268 <I2C_Disable_IRQ>
    hi2c->PreviousState = I2C_STATE_NONE;
 8004534:	2300      	movs	r3, #0
 8004536:	e792      	b.n	800445e <I2C_ITSlaveCplt.constprop.0+0x36>
  else if (I2C_CHECK_IT_SOURCE(tmpcr1value, I2C_CR1_RXDMAEN) != RESET)
 8004538:	f418 4f00 	tst.w	r8, #32768	@ 0x8000
 800453c:	d0ae      	beq.n	800449c <I2C_ITSlaveCplt.constprop.0+0x74>
    hi2c->Instance->CR1 &= ~I2C_CR1_RXDMAEN;
 800453e:	682b      	ldr	r3, [r5, #0]
 8004540:	f423 4300 	bic.w	r3, r3, #32768	@ 0x8000
 8004544:	602b      	str	r3, [r5, #0]
    if (hi2c->hdmarx != NULL)
 8004546:	6be3      	ldr	r3, [r4, #60]	@ 0x3c
 8004548:	e7a3      	b.n	8004492 <I2C_ITSlaveCplt.constprop.0+0x6a>
      else if ((hi2c->State == HAL_I2C_STATE_BUSY_TX_LISTEN) && (tmpoptions != I2C_NO_OPTION_FRAME))
 800454a:	f894 2041 	ldrb.w	r2, [r4, #65]	@ 0x41
        __HAL_I2C_CLEAR_FLAG(hi2c, I2C_FLAG_AF);
 800454e:	6823      	ldr	r3, [r4, #0]
      else if ((hi2c->State == HAL_I2C_STATE_BUSY_TX_LISTEN) && (tmpoptions != I2C_NO_OPTION_FRAME))
 8004550:	2a29      	cmp	r2, #41	@ 0x29
 8004552:	f04f 0210 	mov.w	r2, #16
        __HAL_I2C_CLEAR_FLAG(hi2c, I2C_FLAG_AF);
 8004556:	61da      	str	r2, [r3, #28]
      else if ((hi2c->State == HAL_I2C_STATE_BUSY_TX_LISTEN) && (tmpoptions != I2C_NO_OPTION_FRAME))
 8004558:	d1cd      	bne.n	80044f6 <I2C_ITSlaveCplt.constprop.0+0xce>
 800455a:	f517 3f80 	cmn.w	r7, #65536	@ 0x10000
 800455e:	d0ca      	beq.n	80044f6 <I2C_ITSlaveCplt.constprop.0+0xce>
        I2C_Flush_TXDR(hi2c);
 8004560:	4620      	mov	r0, r4
 8004562:	f7fe fe15 	bl	8003190 <I2C_Flush_TXDR>
        I2C_ITSlaveSeqCplt(hi2c);
 8004566:	f7ff fc12 	bl	8003d8e <I2C_ITSlaveSeqCplt>
 800456a:	e7c4      	b.n	80044f6 <I2C_ITSlaveCplt.constprop.0+0xce>
      __HAL_I2C_CLEAR_FLAG(hi2c, I2C_FLAG_AF);
 800456c:	6823      	ldr	r3, [r4, #0]
 800456e:	2210      	movs	r2, #16
 8004570:	61da      	str	r2, [r3, #28]
      hi2c->ErrorCode |= HAL_I2C_ERROR_AF;
 8004572:	6c63      	ldr	r3, [r4, #68]	@ 0x44
 8004574:	f043 0304 	orr.w	r3, r3, #4
 8004578:	6463      	str	r3, [r4, #68]	@ 0x44
      if ((tmpoptions == I2C_FIRST_FRAME) || (tmpoptions == I2C_NEXT_FRAME))
 800457a:	f037 7380 	bics.w	r3, r7, #16777216	@ 0x1000000
 800457e:	d1ba      	bne.n	80044f6 <I2C_ITSlaveCplt.constprop.0+0xce>
        I2C_ITError(hi2c, hi2c->ErrorCode);
 8004580:	6c61      	ldr	r1, [r4, #68]	@ 0x44
 8004582:	4620      	mov	r0, r4
 8004584:	f7ff fcc6 	bl	8003f14 <I2C_ITError>
 8004588:	e7b5      	b.n	80044f6 <I2C_ITSlaveCplt.constprop.0+0xce>
  else if (hi2c->XferOptions != I2C_NO_OPTION_FRAME)
 800458a:	6ae3      	ldr	r3, [r4, #44]	@ 0x2c
 800458c:	f513 3f80 	cmn.w	r3, #65536	@ 0x10000
 8004590:	d00f      	beq.n	80045b2 <I2C_ITSlaveCplt.constprop.0+0x18a>
    I2C_ITSlaveSeqCplt(hi2c);
 8004592:	4620      	mov	r0, r4
 8004594:	f7ff fbfb 	bl	8003d8e <I2C_ITSlaveSeqCplt>
    hi2c->XferOptions = I2C_NO_OPTION_FRAME;
 8004598:	4b0f      	ldr	r3, [pc, #60]	@ (80045d8 <I2C_ITSlaveCplt.constprop.0+0x1b0>)
 800459a:	62e3      	str	r3, [r4, #44]	@ 0x2c
    hi2c->State = HAL_I2C_STATE_READY;
 800459c:	2320      	movs	r3, #32
 800459e:	f884 3041 	strb.w	r3, [r4, #65]	@ 0x41
    __HAL_UNLOCK(hi2c);
 80045a2:	f884 5040 	strb.w	r5, [r4, #64]	@ 0x40
    hi2c->PreviousState = I2C_STATE_NONE;
 80045a6:	6325      	str	r5, [r4, #48]	@ 0x30
    HAL_I2C_ListenCpltCallback(hi2c);
 80045a8:	4620      	mov	r0, r4
 80045aa:	f7ff fc6a 	bl	8003e82 <HAL_I2C_ListenCpltCallback>
}
 80045ae:	e8bd 81f0 	ldmia.w	sp!, {r4, r5, r6, r7, r8, pc}
  else if (hi2c->State == HAL_I2C_STATE_BUSY_RX)
 80045b2:	f894 3041 	ldrb.w	r3, [r4, #65]	@ 0x41
    __HAL_UNLOCK(hi2c);
 80045b6:	f884 5040 	strb.w	r5, [r4, #64]	@ 0x40
  else if (hi2c->State == HAL_I2C_STATE_BUSY_RX)
 80045ba:	2b22      	cmp	r3, #34	@ 0x22
 80045bc:	f04f 0320 	mov.w	r3, #32
    hi2c->State = HAL_I2C_STATE_READY;
 80045c0:	f884 3041 	strb.w	r3, [r4, #65]	@ 0x41
    HAL_I2C_SlaveRxCpltCallback(hi2c);
 80045c4:	4620      	mov	r0, r4
    hi2c->PreviousState = I2C_STATE_NONE;
 80045c6:	6325      	str	r5, [r4, #48]	@ 0x30
  else if (hi2c->State == HAL_I2C_STATE_BUSY_RX)
 80045c8:	d102      	bne.n	80045d0 <I2C_ITSlaveCplt.constprop.0+0x1a8>
    HAL_I2C_SlaveRxCpltCallback(hi2c);
 80045ca:	f7ff fbdf 	bl	8003d8c <HAL_I2C_SlaveRxCpltCallback>
 80045ce:	e7ee      	b.n	80045ae <I2C_ITSlaveCplt.constprop.0+0x186>
    HAL_I2C_SlaveTxCpltCallback(hi2c);
 80045d0:	f7ff fbdb 	bl	8003d8a <HAL_I2C_SlaveTxCpltCallback>
}
 80045d4:	e7eb      	b.n	80045ae <I2C_ITSlaveCplt.constprop.0+0x186>
 80045d6:	bf00      	nop
 80045d8:	ffff0000 	.word	0xffff0000

080045dc <I2C_Slave_ISR_DMA>:
{
 80045dc:	b570      	push	{r4, r5, r6, lr}
  __HAL_LOCK(hi2c);
 80045de:	f890 6040 	ldrb.w	r6, [r0, #64]	@ 0x40
  uint32_t tmpoptions = hi2c->XferOptions;
 80045e2:	6ac5      	ldr	r5, [r0, #44]	@ 0x2c
  __HAL_LOCK(hi2c);
 80045e4:	2e01      	cmp	r6, #1
{
 80045e6:	4604      	mov	r4, r0
 80045e8:	460b      	mov	r3, r1
  __HAL_LOCK(hi2c);
 80045ea:	d072      	beq.n	80046d2 <I2C_Slave_ISR_DMA+0xf6>
 80045ec:	2601      	movs	r6, #1
 80045ee:	f880 6040 	strb.w	r6, [r0, #64]	@ 0x40
  if ((I2C_CHECK_FLAG(ITFlags, I2C_FLAG_STOPF) != RESET) && \
 80045f2:	068e      	lsls	r6, r1, #26
 80045f4:	d507      	bpl.n	8004606 <I2C_Slave_ISR_DMA+0x2a>
 80045f6:	0696      	lsls	r6, r2, #26
 80045f8:	d505      	bpl.n	8004606 <I2C_Slave_ISR_DMA+0x2a>
    I2C_ITSlaveCplt(hi2c, ITFlags);
 80045fa:	f7ff ff15 	bl	8004428 <I2C_ITSlaveCplt.constprop.0>
  __HAL_UNLOCK(hi2c);
 80045fe:	2000      	movs	r0, #0
 8004600:	f884 0040 	strb.w	r0, [r4, #64]	@ 0x40
}
 8004604:	bd70      	pop	{r4, r5, r6, pc}
  else if ((I2C_CHECK_FLAG(ITFlags, I2C_FLAG_AF) != RESET) && \
 8004606:	06de      	lsls	r6, r3, #27
 8004608:	d55b      	bpl.n	80046c2 <I2C_Slave_ISR_DMA+0xe6>
 800460a:	06d0      	lsls	r0, r2, #27
 800460c:	d559      	bpl.n	80046c2 <I2C_Slave_ISR_DMA+0xe6>
    if ((I2C_CHECK_IT_SOURCE(ITSources, I2C_CR1_TXDMAEN) != RESET) ||
 800460e:	f3c2 3080 	ubfx	r0, r2, #14, #1
 8004612:	f402 4200 	and.w	r2, r2, #32768	@ 0x8000
 8004616:	ea50 0102 	orrs.w	r1, r0, r2
 800461a:	d04e      	beq.n	80046ba <I2C_Slave_ISR_DMA+0xde>
      if (hi2c->hdmarx != NULL)
 800461c:	6be1      	ldr	r1, [r4, #60]	@ 0x3c
 800461e:	b1c9      	cbz	r1, 8004654 <I2C_Slave_ISR_DMA+0x78>
        if (I2C_CHECK_IT_SOURCE(ITSources, I2C_CR1_RXDMAEN) != RESET)
 8004620:	b122      	cbz	r2, 800462c <I2C_Slave_ISR_DMA+0x50>
          if (I2C_GET_DMA_REMAIN_DATA(hi2c->hdmarx) == 0U)
 8004622:	680a      	ldr	r2, [r1, #0]
 8004624:	6852      	ldr	r2, [r2, #4]
 8004626:	fab2 f282 	clz	r2, r2
 800462a:	0952      	lsrs	r2, r2, #5
      if (hi2c->hdmatx != NULL)
 800462c:	6ba1      	ldr	r1, [r4, #56]	@ 0x38
 800462e:	b119      	cbz	r1, 8004638 <I2C_Slave_ISR_DMA+0x5c>
        if (I2C_CHECK_IT_SOURCE(ITSources, I2C_CR1_TXDMAEN) != RESET)
 8004630:	b110      	cbz	r0, 8004638 <I2C_Slave_ISR_DMA+0x5c>
          if (I2C_GET_DMA_REMAIN_DATA(hi2c->hdmatx) == 0U)
 8004632:	6809      	ldr	r1, [r1, #0]
 8004634:	6849      	ldr	r1, [r1, #4]
 8004636:	b109      	cbz	r1, 800463c <I2C_Slave_ISR_DMA+0x60>
      if (treatdmanack == 1U)
 8004638:	2a01      	cmp	r2, #1
 800463a:	d11e      	bne.n	800467a <I2C_Slave_ISR_DMA+0x9e>
        if ((hi2c->State == HAL_I2C_STATE_LISTEN) && (tmpoptions == I2C_FIRST_AND_LAST_FRAME))
 800463c:	f894 2041 	ldrb.w	r2, [r4, #65]	@ 0x41
 8004640:	2a28      	cmp	r2, #40	@ 0x28
 8004642:	d109      	bne.n	8004658 <I2C_Slave_ISR_DMA+0x7c>
 8004644:	f1b5 7f00 	cmp.w	r5, #33554432	@ 0x2000000
 8004648:	d106      	bne.n	8004658 <I2C_Slave_ISR_DMA+0x7c>
          I2C_ITListenCplt(hi2c, ITFlags);
 800464a:	4619      	mov	r1, r3
 800464c:	4620      	mov	r0, r4
 800464e:	f7ff fc19 	bl	8003e84 <I2C_ITListenCplt>
 8004652:	e7d4      	b.n	80045fe <I2C_Slave_ISR_DMA+0x22>
  uint32_t treatdmanack = 0U;
 8004654:	460a      	mov	r2, r1
 8004656:	e7e9      	b.n	800462c <I2C_Slave_ISR_DMA+0x50>
        else if ((hi2c->State == HAL_I2C_STATE_BUSY_TX_LISTEN) && (tmpoptions != I2C_NO_OPTION_FRAME))
 8004658:	f894 2041 	ldrb.w	r2, [r4, #65]	@ 0x41
        __HAL_I2C_CLEAR_FLAG(hi2c, I2C_FLAG_AF);
 800465c:	6823      	ldr	r3, [r4, #0]
        else if ((hi2c->State == HAL_I2C_STATE_BUSY_TX_LISTEN) && (tmpoptions != I2C_NO_OPTION_FRAME))
 800465e:	2a29      	cmp	r2, #41	@ 0x29
 8004660:	f04f 0210 	mov.w	r2, #16
          __HAL_I2C_CLEAR_FLAG(hi2c, I2C_FLAG_AF);
 8004664:	61da      	str	r2, [r3, #28]
        else if ((hi2c->State == HAL_I2C_STATE_BUSY_TX_LISTEN) && (tmpoptions != I2C_NO_OPTION_FRAME))
 8004666:	d1ca      	bne.n	80045fe <I2C_Slave_ISR_DMA+0x22>
 8004668:	f515 3f80 	cmn.w	r5, #65536	@ 0x10000
 800466c:	d0c7      	beq.n	80045fe <I2C_Slave_ISR_DMA+0x22>
          I2C_Flush_TXDR(hi2c);
 800466e:	4620      	mov	r0, r4
 8004670:	f7fe fd8e 	bl	8003190 <I2C_Flush_TXDR>
          I2C_ITSlaveSeqCplt(hi2c);
 8004674:	f7ff fb8b 	bl	8003d8e <I2C_ITSlaveSeqCplt>
 8004678:	e7c1      	b.n	80045fe <I2C_Slave_ISR_DMA+0x22>
        __HAL_I2C_CLEAR_FLAG(hi2c, I2C_FLAG_AF);
 800467a:	6823      	ldr	r3, [r4, #0]
 800467c:	2210      	movs	r2, #16
 800467e:	61da      	str	r2, [r3, #28]
        hi2c->ErrorCode |= HAL_I2C_ERROR_AF;
 8004680:	6c63      	ldr	r3, [r4, #68]	@ 0x44
 8004682:	f043 0304 	orr.w	r3, r3, #4
 8004686:	6463      	str	r3, [r4, #68]	@ 0x44
        tmpstate = hi2c->State;
 8004688:	f894 3041 	ldrb.w	r3, [r4, #65]	@ 0x41
        if ((tmpoptions == I2C_FIRST_FRAME) || (tmpoptions == I2C_NEXT_FRAME))
 800468c:	f035 7280 	bics.w	r2, r5, #16777216	@ 0x1000000
        tmpstate = hi2c->State;
 8004690:	b2db      	uxtb	r3, r3
        if ((tmpoptions == I2C_FIRST_FRAME) || (tmpoptions == I2C_NEXT_FRAME))
 8004692:	d1b4      	bne.n	80045fe <I2C_Slave_ISR_DMA+0x22>
          if ((tmpstate == HAL_I2C_STATE_BUSY_TX) || (tmpstate == HAL_I2C_STATE_BUSY_TX_LISTEN))
 8004694:	3b21      	subs	r3, #33	@ 0x21
 8004696:	2b09      	cmp	r3, #9
 8004698:	d808      	bhi.n	80046ac <I2C_Slave_ISR_DMA+0xd0>
 800469a:	e8df f003 	tbb	[pc, r3]
 800469e:	0c05      	.short	0x0c05
 80046a0:	07070707 	.word	0x07070707
 80046a4:	0c050707 	.word	0x0c050707
            hi2c->PreviousState = I2C_STATE_SLAVE_BUSY_TX;
 80046a8:	2321      	movs	r3, #33	@ 0x21
            hi2c->PreviousState = I2C_STATE_SLAVE_BUSY_RX;
 80046aa:	6323      	str	r3, [r4, #48]	@ 0x30
          I2C_ITError(hi2c, hi2c->ErrorCode);
 80046ac:	6c61      	ldr	r1, [r4, #68]	@ 0x44
 80046ae:	4620      	mov	r0, r4
 80046b0:	f7ff fc30 	bl	8003f14 <I2C_ITError>
 80046b4:	e7a3      	b.n	80045fe <I2C_Slave_ISR_DMA+0x22>
            hi2c->PreviousState = I2C_STATE_SLAVE_BUSY_RX;
 80046b6:	2322      	movs	r3, #34	@ 0x22
 80046b8:	e7f7      	b.n	80046aa <I2C_Slave_ISR_DMA+0xce>
      __HAL_I2C_CLEAR_FLAG(hi2c, I2C_FLAG_AF);
 80046ba:	6823      	ldr	r3, [r4, #0]
 80046bc:	2210      	movs	r2, #16
 80046be:	61da      	str	r2, [r3, #28]
 80046c0:	e79d      	b.n	80045fe <I2C_Slave_ISR_DMA+0x22>
  else if ((I2C_CHECK_FLAG(ITFlags, I2C_FLAG_ADDR) != RESET) && \
 80046c2:	0719      	lsls	r1, r3, #28
 80046c4:	d59b      	bpl.n	80045fe <I2C_Slave_ISR_DMA+0x22>
 80046c6:	0713      	lsls	r3, r2, #28
 80046c8:	d599      	bpl.n	80045fe <I2C_Slave_ISR_DMA+0x22>
    I2C_ITAddrCplt(hi2c, ITFlags);
 80046ca:	4620      	mov	r0, r4
 80046cc:	f7ff fb96 	bl	8003dfc <I2C_ITAddrCplt.constprop.0>
 80046d0:	e795      	b.n	80045fe <I2C_Slave_ISR_DMA+0x22>
  __HAL_LOCK(hi2c);
 80046d2:	2002      	movs	r0, #2
 80046d4:	e796      	b.n	8004604 <I2C_Slave_ISR_DMA+0x28>

080046d6 <I2C_Slave_ISR_IT>:
{
 80046d6:	b570      	push	{r4, r5, r6, lr}
  __HAL_LOCK(hi2c);
 80046d8:	f890 6040 	ldrb.w	r6, [r0, #64]	@ 0x40
  uint32_t tmpoptions = hi2c->XferOptions;
 80046dc:	6ac5      	ldr	r5, [r0, #44]	@ 0x2c
  __HAL_LOCK(hi2c);
 80046de:	2e01      	cmp	r6, #1
{
 80046e0:	4604      	mov	r4, r0
 80046e2:	460b      	mov	r3, r1
  __HAL_LOCK(hi2c);
 80046e4:	d07e      	beq.n	80047e4 <I2C_Slave_ISR_IT+0x10e>
 80046e6:	2601      	movs	r6, #1
 80046e8:	f880 6040 	strb.w	r6, [r0, #64]	@ 0x40
  if ((I2C_CHECK_FLAG(tmpITFlags, I2C_FLAG_STOPF) != RESET) && \
 80046ec:	068e      	lsls	r6, r1, #26
 80046ee:	d507      	bpl.n	8004700 <I2C_Slave_ISR_IT+0x2a>
 80046f0:	0696      	lsls	r6, r2, #26
 80046f2:	d505      	bpl.n	8004700 <I2C_Slave_ISR_IT+0x2a>
    I2C_ITSlaveCplt(hi2c, tmpITFlags);
 80046f4:	f7ff fe98 	bl	8004428 <I2C_ITSlaveCplt.constprop.0>
  __HAL_UNLOCK(hi2c);
 80046f8:	2000      	movs	r0, #0
 80046fa:	f884 0040 	strb.w	r0, [r4, #64]	@ 0x40
}
 80046fe:	bd70      	pop	{r4, r5, r6, pc}
  else if ((I2C_CHECK_FLAG(tmpITFlags, I2C_FLAG_AF) != RESET) && \
 8004700:	06d9      	lsls	r1, r3, #27
 8004702:	d530      	bpl.n	8004766 <I2C_Slave_ISR_IT+0x90>
 8004704:	06d6      	lsls	r6, r2, #27
 8004706:	d52e      	bpl.n	8004766 <I2C_Slave_ISR_IT+0x90>
    if (hi2c->XferCount == 0U)
 8004708:	8d62      	ldrh	r2, [r4, #42]	@ 0x2a
 800470a:	b292      	uxth	r2, r2
 800470c:	b9e2      	cbnz	r2, 8004748 <I2C_Slave_ISR_IT+0x72>
      if ((hi2c->State == HAL_I2C_STATE_LISTEN) && (tmpoptions == I2C_FIRST_AND_LAST_FRAME))
 800470e:	f894 2041 	ldrb.w	r2, [r4, #65]	@ 0x41
 8004712:	2a28      	cmp	r2, #40	@ 0x28
 8004714:	d107      	bne.n	8004726 <I2C_Slave_ISR_IT+0x50>
 8004716:	f1b5 7f00 	cmp.w	r5, #33554432	@ 0x2000000
 800471a:	d104      	bne.n	8004726 <I2C_Slave_ISR_IT+0x50>
        I2C_ITListenCplt(hi2c, tmpITFlags);
 800471c:	4619      	mov	r1, r3
 800471e:	4620      	mov	r0, r4
 8004720:	f7ff fbb0 	bl	8003e84 <I2C_ITListenCplt>
 8004724:	e7e8      	b.n	80046f8 <I2C_Slave_ISR_IT+0x22>
      else if ((hi2c->State == HAL_I2C_STATE_BUSY_TX_LISTEN) && (tmpoptions != I2C_NO_OPTION_FRAME))
 8004726:	f894 2041 	ldrb.w	r2, [r4, #65]	@ 0x41
        __HAL_I2C_CLEAR_FLAG(hi2c, I2C_FLAG_AF);
 800472a:	6823      	ldr	r3, [r4, #0]
      else if ((hi2c->State == HAL_I2C_STATE_BUSY_TX_LISTEN) && (tmpoptions != I2C_NO_OPTION_FRAME))
 800472c:	2a29      	cmp	r2, #41	@ 0x29
 800472e:	f04f 0210 	mov.w	r2, #16
        __HAL_I2C_CLEAR_FLAG(hi2c, I2C_FLAG_AF);
 8004732:	61da      	str	r2, [r3, #28]
      else if ((hi2c->State == HAL_I2C_STATE_BUSY_TX_LISTEN) && (tmpoptions != I2C_NO_OPTION_FRAME))
 8004734:	d1e0      	bne.n	80046f8 <I2C_Slave_ISR_IT+0x22>
 8004736:	f515 3f80 	cmn.w	r5, #65536	@ 0x10000
 800473a:	d0dd      	beq.n	80046f8 <I2C_Slave_ISR_IT+0x22>
        I2C_Flush_TXDR(hi2c);
 800473c:	4620      	mov	r0, r4
 800473e:	f7fe fd27 	bl	8003190 <I2C_Flush_TXDR>
      I2C_ITSlaveSeqCplt(hi2c);
 8004742:	f7ff fb24 	bl	8003d8e <I2C_ITSlaveSeqCplt>
 8004746:	e7d7      	b.n	80046f8 <I2C_Slave_ISR_IT+0x22>
      __HAL_I2C_CLEAR_FLAG(hi2c, I2C_FLAG_AF);
 8004748:	6823      	ldr	r3, [r4, #0]
 800474a:	2210      	movs	r2, #16
 800474c:	61da      	str	r2, [r3, #28]
      hi2c->ErrorCode |= HAL_I2C_ERROR_AF;
 800474e:	6c63      	ldr	r3, [r4, #68]	@ 0x44
 8004750:	f043 0304 	orr.w	r3, r3, #4
 8004754:	6463      	str	r3, [r4, #68]	@ 0x44
      if ((tmpoptions == I2C_FIRST_FRAME) || (tmpoptions == I2C_NEXT_FRAME))
 8004756:	f035 7380 	bics.w	r3, r5, #16777216	@ 0x1000000
 800475a:	d1cd      	bne.n	80046f8 <I2C_Slave_ISR_IT+0x22>
        I2C_ITError(hi2c, hi2c->ErrorCode);
 800475c:	6c61      	ldr	r1, [r4, #68]	@ 0x44
 800475e:	4620      	mov	r0, r4
 8004760:	f7ff fbd8 	bl	8003f14 <I2C_ITError>
 8004764:	e7c8      	b.n	80046f8 <I2C_Slave_ISR_IT+0x22>
  else if ((I2C_CHECK_FLAG(tmpITFlags, I2C_FLAG_RXNE) != RESET) && \
 8004766:	0758      	lsls	r0, r3, #29
 8004768:	d51b      	bpl.n	80047a2 <I2C_Slave_ISR_IT+0xcc>
 800476a:	0751      	lsls	r1, r2, #29
 800476c:	d519      	bpl.n	80047a2 <I2C_Slave_ISR_IT+0xcc>
    if (hi2c->XferCount > 0U)
 800476e:	8d63      	ldrh	r3, [r4, #42]	@ 0x2a
 8004770:	b29b      	uxth	r3, r3
 8004772:	b16b      	cbz	r3, 8004790 <I2C_Slave_ISR_IT+0xba>
      *hi2c->pBuffPtr = (uint8_t)hi2c->Instance->RXDR;
 8004774:	6823      	ldr	r3, [r4, #0]
 8004776:	6a5a      	ldr	r2, [r3, #36]	@ 0x24
 8004778:	6a63      	ldr	r3, [r4, #36]	@ 0x24
 800477a:	701a      	strb	r2, [r3, #0]
      hi2c->pBuffPtr++;
 800477c:	6a63      	ldr	r3, [r4, #36]	@ 0x24
 800477e:	3301      	adds	r3, #1
 8004780:	6263      	str	r3, [r4, #36]	@ 0x24
      hi2c->XferSize--;
 8004782:	8d23      	ldrh	r3, [r4, #40]	@ 0x28
 8004784:	3b01      	subs	r3, #1
 8004786:	8523      	strh	r3, [r4, #40]	@ 0x28
      hi2c->XferCount--;
 8004788:	8d63      	ldrh	r3, [r4, #42]	@ 0x2a
 800478a:	3b01      	subs	r3, #1
 800478c:	b29b      	uxth	r3, r3
 800478e:	8563      	strh	r3, [r4, #42]	@ 0x2a
    if ((hi2c->XferCount == 0U) && \
 8004790:	8d63      	ldrh	r3, [r4, #42]	@ 0x2a
 8004792:	b29b      	uxth	r3, r3
 8004794:	2b00      	cmp	r3, #0
 8004796:	d1af      	bne.n	80046f8 <I2C_Slave_ISR_IT+0x22>
 8004798:	f515 3f80 	cmn.w	r5, #65536	@ 0x10000
 800479c:	d0ac      	beq.n	80046f8 <I2C_Slave_ISR_IT+0x22>
      I2C_ITSlaveSeqCplt(hi2c);
 800479e:	4620      	mov	r0, r4
 80047a0:	e7cf      	b.n	8004742 <I2C_Slave_ISR_IT+0x6c>
  else if ((I2C_CHECK_FLAG(tmpITFlags, I2C_FLAG_ADDR) != RESET) && \
 80047a2:	071e      	lsls	r6, r3, #28
 80047a4:	d505      	bpl.n	80047b2 <I2C_Slave_ISR_IT+0xdc>
 80047a6:	0710      	lsls	r0, r2, #28
 80047a8:	d503      	bpl.n	80047b2 <I2C_Slave_ISR_IT+0xdc>
    I2C_ITAddrCplt(hi2c, tmpITFlags);
 80047aa:	4620      	mov	r0, r4
 80047ac:	f7ff fb26 	bl	8003dfc <I2C_ITAddrCplt.constprop.0>
 80047b0:	e7a2      	b.n	80046f8 <I2C_Slave_ISR_IT+0x22>
  else if ((I2C_CHECK_FLAG(tmpITFlags, I2C_FLAG_TXIS) != RESET) && \
 80047b2:	0799      	lsls	r1, r3, #30
 80047b4:	d5a0      	bpl.n	80046f8 <I2C_Slave_ISR_IT+0x22>
 80047b6:	0793      	lsls	r3, r2, #30
 80047b8:	d59e      	bpl.n	80046f8 <I2C_Slave_ISR_IT+0x22>
    if (hi2c->XferCount > 0U)
 80047ba:	8d63      	ldrh	r3, [r4, #42]	@ 0x2a
 80047bc:	b29b      	uxth	r3, r3
 80047be:	b16b      	cbz	r3, 80047dc <I2C_Slave_ISR_IT+0x106>
      hi2c->Instance->TXDR = *hi2c->pBuffPtr;
 80047c0:	6a63      	ldr	r3, [r4, #36]	@ 0x24
 80047c2:	6822      	ldr	r2, [r4, #0]
 80047c4:	f813 1b01 	ldrb.w	r1, [r3], #1
 80047c8:	6291      	str	r1, [r2, #40]	@ 0x28
      hi2c->pBuffPtr++;
 80047ca:	6263      	str	r3, [r4, #36]	@ 0x24
      hi2c->XferCount--;
 80047cc:	8d63      	ldrh	r3, [r4, #42]	@ 0x2a
 80047ce:	3b01      	subs	r3, #1
 80047d0:	b29b      	uxth	r3, r3
 80047d2:	8563      	strh	r3, [r4, #42]	@ 0x2a
      hi2c->XferSize--;
 80047d4:	8d23      	ldrh	r3, [r4, #40]	@ 0x28
 80047d6:	3b01      	subs	r3, #1
 80047d8:	8523      	strh	r3, [r4, #40]	@ 0x28
 80047da:	e78d      	b.n	80046f8 <I2C_Slave_ISR_IT+0x22>
      if ((tmpoptions == I2C_NEXT_FRAME) || (tmpoptions == I2C_FIRST_FRAME))
 80047dc:	f035 7380 	bics.w	r3, r5, #16777216	@ 0x1000000
 80047e0:	d18a      	bne.n	80046f8 <I2C_Slave_ISR_IT+0x22>
 80047e2:	e7dc      	b.n	800479e <I2C_Slave_ISR_IT+0xc8>
  __HAL_LOCK(hi2c);
 80047e4:	2002      	movs	r0, #2
 80047e6:	e78a      	b.n	80046fe <I2C_Slave_ISR_IT+0x28>

080047e8 <I2C_DMAAbort>:
  I2C_HandleTypeDef *hi2c = (I2C_HandleTypeDef *)(((DMA_HandleTypeDef *)hdma)->Parent);
 80047e8:	6a40      	ldr	r0, [r0, #36]	@ 0x24
  if (hi2c->hdmatx != NULL)
 80047ea:	6b83      	ldr	r3, [r0, #56]	@ 0x38
 80047ec:	b10b      	cbz	r3, 80047f2 <I2C_DMAAbort+0xa>
    hi2c->hdmatx->XferAbortCallback = NULL;
 80047ee:	2200      	movs	r2, #0
 80047f0:	635a      	str	r2, [r3, #52]	@ 0x34
  if (hi2c->hdmarx != NULL)
 80047f2:	6bc3      	ldr	r3, [r0, #60]	@ 0x3c
 80047f4:	b10b      	cbz	r3, 80047fa <I2C_DMAAbort+0x12>
    hi2c->hdmarx->XferAbortCallback = NULL;
 80047f6:	2200      	movs	r2, #0
 80047f8:	635a      	str	r2, [r3, #52]	@ 0x34
  I2C_TreatErrorCallback(hi2c);
 80047fa:	f7ff bb75 	b.w	8003ee8 <I2C_TreatErrorCallback>

080047fe <HAL_I2CEx_ConfigAnalogFilter>:
  *                the configuration information for the specified I2Cx peripheral.
  * @param  AnalogFilter New state of the Analog filter.
  * @retval HAL status
  */
HAL_StatusTypeDef HAL_I2CEx_ConfigAnalogFilter(I2C_HandleTypeDef *hi2c, uint32_t AnalogFilter)
{
 80047fe:	b510      	push	{r4, lr}
  /* Check the parameters */
  assert_param(IS_I2C_ALL_INSTANCE(hi2c->Instance));
  assert_param(IS_I2C_ANALOG_FILTER(AnalogFilter));

  if (hi2c->State == HAL_I2C_STATE_READY)
 8004800:	f890 2041 	ldrb.w	r2, [r0, #65]	@ 0x41
 8004804:	2a20      	cmp	r2, #32
{
 8004806:	4603      	mov	r3, r0
  if (hi2c->State == HAL_I2C_STATE_READY)
 8004808:	b2d4      	uxtb	r4, r2
 800480a:	d11c      	bne.n	8004846 <HAL_I2CEx_ConfigAnalogFilter+0x48>
  {
    /* Process Locked */
    __HAL_LOCK(hi2c);
 800480c:	f890 2040 	ldrb.w	r2, [r0, #64]	@ 0x40
 8004810:	2a01      	cmp	r2, #1
 8004812:	d018      	beq.n	8004846 <HAL_I2CEx_ConfigAnalogFilter+0x48>

    hi2c->State = HAL_I2C_STATE_BUSY;
 8004814:	2224      	movs	r2, #36	@ 0x24
 8004816:	f880 2041 	strb.w	r2, [r0, #65]	@ 0x41

    /* Disable the selected I2C peripheral */
    __HAL_I2C_DISABLE(hi2c);
 800481a:	6802      	ldr	r2, [r0, #0]
 800481c:	6810      	ldr	r0, [r2, #0]
 800481e:	f020 0001 	bic.w	r0, r0, #1
 8004822:	6010      	str	r0, [r2, #0]

    /* Reset I2Cx ANOFF bit */
    hi2c->Instance->CR1 &= ~(I2C_CR1_ANFOFF);
 8004824:	6810      	ldr	r0, [r2, #0]
 8004826:	f420 5080 	bic.w	r0, r0, #4096	@ 0x1000
 800482a:	6010      	str	r0, [r2, #0]

    /* Set analog filter bit*/
    hi2c->Instance->CR1 |= AnalogFilter;
 800482c:	6810      	ldr	r0, [r2, #0]
 800482e:	4301      	orrs	r1, r0
 8004830:	6011      	str	r1, [r2, #0]

    __HAL_I2C_ENABLE(hi2c);
 8004832:	6811      	ldr	r1, [r2, #0]

    hi2c->State = HAL_I2C_STATE_READY;

    /* Process Unlocked */
    __HAL_UNLOCK(hi2c);
 8004834:	2000      	movs	r0, #0
    __HAL_I2C_ENABLE(hi2c);
 8004836:	f041 0101 	orr.w	r1, r1, #1
 800483a:	6011      	str	r1, [r2, #0]
    hi2c->State = HAL_I2C_STATE_READY;
 800483c:	f883 4041 	strb.w	r4, [r3, #65]	@ 0x41
    __HAL_UNLOCK(hi2c);
 8004840:	f883 0040 	strb.w	r0, [r3, #64]	@ 0x40
  }
  else
  {
    return HAL_BUSY;
  }
}
 8004844:	bd10      	pop	{r4, pc}
    __HAL_LOCK(hi2c);
 8004846:	2002      	movs	r0, #2
 8004848:	e7fc      	b.n	8004844 <HAL_I2CEx_ConfigAnalogFilter+0x46>

0800484a <HAL_I2CEx_ConfigDigitalFilter>:
  *                the configuration information for the specified I2Cx peripheral.
  * @param  DigitalFilter Coefficient of digital noise filter between Min_Data=0x00 and Max_Data=0x0F.
  * @retval HAL status
  */
HAL_StatusTypeDef HAL_I2CEx_ConfigDigitalFilter(I2C_HandleTypeDef *hi2c, uint32_t DigitalFilter)
{
 800484a:	b510      	push	{r4, lr}

  /* Check the parameters */
  assert_param(IS_I2C_ALL_INSTANCE(hi2c->Instance));
  assert_param(IS_I2C_DIGITAL_FILTER(DigitalFilter));

  if (hi2c->State == HAL_I2C_STATE_READY)
 800484c:	f890 2041 	ldrb.w	r2, [r0, #65]	@ 0x41
 8004850:	2a20      	cmp	r2, #32
{
 8004852:	4603      	mov	r3, r0
  if (hi2c->State == HAL_I2C_STATE_READY)
 8004854:	b2d4      	uxtb	r4, r2
 8004856:	d11b      	bne.n	8004890 <HAL_I2CEx_ConfigDigitalFilter+0x46>
  {
    /* Process Locked */
    __HAL_LOCK(hi2c);
 8004858:	f890 2040 	ldrb.w	r2, [r0, #64]	@ 0x40
 800485c:	2a01      	cmp	r2, #1
 800485e:	d017      	beq.n	8004890 <HAL_I2CEx_ConfigDigitalFilter+0x46>

    hi2c->State = HAL_I2C_STATE_BUSY;
 8004860:	2224      	movs	r2, #36	@ 0x24
 8004862:	f880 2041 	strb.w	r2, [r0, #65]	@ 0x41

    /* Disable the selected I2C peripheral */
    __HAL_I2C_DISABLE(hi2c);
 8004866:	6802      	ldr	r2, [r0, #0]
 8004868:	6810      	ldr	r0, [r2, #0]
 800486a:	f020 0001 	bic.w	r0, r0, #1
 800486e:	6010      	str	r0, [r2, #0]

    /* Get the old register value */
    tmpreg = hi2c->Instance->CR1;
 8004870:	6810      	ldr	r0, [r2, #0]

    /* Reset I2Cx DNF bits [11:8] */
    tmpreg &= ~(I2C_CR1_DNF);
 8004872:	f420 6070 	bic.w	r0, r0, #3840	@ 0xf00

    /* Set I2Cx DNF coefficient */
    tmpreg |= DigitalFilter << 8U;
 8004876:	ea40 2101 	orr.w	r1, r0, r1, lsl #8

    /* Store the new register value */
    hi2c->Instance->CR1 = tmpreg;
 800487a:	6011      	str	r1, [r2, #0]

    __HAL_I2C_ENABLE(hi2c);
 800487c:	6811      	ldr	r1, [r2, #0]

    hi2c->State = HAL_I2C_STATE_READY;

    /* Process Unlocked */
    __HAL_UNLOCK(hi2c);
 800487e:	2000      	movs	r0, #0
    __HAL_I2C_ENABLE(hi2c);
 8004880:	f041 0101 	orr.w	r1, r1, #1
 8004884:	6011      	str	r1, [r2, #0]
    hi2c->State = HAL_I2C_STATE_READY;
 8004886:	f883 4041 	strb.w	r4, [r3, #65]	@ 0x41
    __HAL_UNLOCK(hi2c);
 800488a:	f883 0040 	strb.w	r0, [r3, #64]	@ 0x40
  }
  else
  {
    return HAL_BUSY;
  }
}
 800488e:	bd10      	pop	{r4, pc}
    __HAL_LOCK(hi2c);
 8004890:	2002      	movs	r0, #2
 8004892:	e7fc      	b.n	800488e <HAL_I2CEx_ConfigDigitalFilter+0x44>

08004894 <HAL_RCC_OscConfig>:
  *         supported by this macro. User should request a transition to HSE Off
  *         first and then HSE On or HSE Bypass.
  * @retval HAL status
  */
HAL_StatusTypeDef HAL_RCC_OscConfig(RCC_OscInitTypeDef  *RCC_OscInitStruct)
{
 8004894:	e92d 47f3 	stmdb	sp!, {r0, r1, r4, r5, r6, r7, r8, r9, sl, lr}
#if defined(RCC_CFGR_PLLSRC_HSI_PREDIV)
  uint32_t pll_config2;
#endif /* RCC_CFGR_PLLSRC_HSI_PREDIV */

  /* Check Null pointer */
  if(RCC_OscInitStruct == NULL)
 8004898:	4605      	mov	r5, r0
 800489a:	2800      	cmp	r0, #0
 800489c:	d033      	beq.n	8004906 <HAL_RCC_OscConfig+0x72>

  /* Check the parameters */
  assert_param(IS_RCC_OSCILLATORTYPE(RCC_OscInitStruct->OscillatorType));

  /*------------------------------- HSE Configuration ------------------------*/ 
  if(((RCC_OscInitStruct->OscillatorType) & RCC_OSCILLATORTYPE_HSE) == RCC_OSCILLATORTYPE_HSE)
 800489e:	6803      	ldr	r3, [r0, #0]
 80048a0:	07da      	lsls	r2, r3, #31
 80048a2:	d411      	bmi.n	80048c8 <HAL_RCC_OscConfig+0x34>
        }
      }
    }
  }
  /*----------------------------- HSI Configuration --------------------------*/ 
  if(((RCC_OscInitStruct->OscillatorType) & RCC_OSCILLATORTYPE_HSI) == RCC_OSCILLATORTYPE_HSI)
 80048a4:	682b      	ldr	r3, [r5, #0]
 80048a6:	079b      	lsls	r3, r3, #30
 80048a8:	f100 8081 	bmi.w	80049ae <HAL_RCC_OscConfig+0x11a>
        }
      }
    }
  }
  /*------------------------------ LSI Configuration -------------------------*/ 
  if(((RCC_OscInitStruct->OscillatorType) & RCC_OSCILLATORTYPE_LSI) == RCC_OSCILLATORTYPE_LSI)
 80048ac:	682b      	ldr	r3, [r5, #0]
 80048ae:	071c      	lsls	r4, r3, #28
 80048b0:	f100 80eb 	bmi.w	8004a8a <HAL_RCC_OscConfig+0x1f6>
        }
      }
    }
  }
  /*------------------------------ LSE Configuration -------------------------*/ 
  if(((RCC_OscInitStruct->OscillatorType) & RCC_OSCILLATORTYPE_LSE) == RCC_OSCILLATORTYPE_LSE)
 80048b4:	682b      	ldr	r3, [r5, #0]
 80048b6:	0758      	lsls	r0, r3, #29
 80048b8:	f100 8130 	bmi.w	8004b1c <HAL_RCC_OscConfig+0x288>
  }

  /*-------------------------------- PLL Configuration -----------------------*/
  /* Check the parameters */
  assert_param(IS_RCC_PLL(RCC_OscInitStruct->PLL.PLLState));
  if ((RCC_OscInitStruct->PLL.PLLState) != RCC_PLL_NONE)
 80048bc:	69eb      	ldr	r3, [r5, #28]
 80048be:	2b00      	cmp	r3, #0
 80048c0:	f040 81b5 	bne.w	8004c2e <HAL_RCC_OscConfig+0x39a>
        }
      }
    }
  }

  return HAL_OK;
 80048c4:	2000      	movs	r0, #0
 80048c6:	e047      	b.n	8004958 <HAL_RCC_OscConfig+0xc4>
    if((__HAL_RCC_GET_SYSCLK_SOURCE() == RCC_SYSCLKSOURCE_STATUS_HSE) 
 80048c8:	4cb0      	ldr	r4, [pc, #704]	@ (8004b8c <HAL_RCC_OscConfig+0x2f8>)
 80048ca:	6863      	ldr	r3, [r4, #4]
 80048cc:	f003 030c 	and.w	r3, r3, #12
 80048d0:	2b04      	cmp	r3, #4
 80048d2:	d007      	beq.n	80048e4 <HAL_RCC_OscConfig+0x50>
       || ((__HAL_RCC_GET_SYSCLK_SOURCE() == RCC_SYSCLKSOURCE_STATUS_PLLCLK) && (__HAL_RCC_GET_PLL_OSCSOURCE() == RCC_PLLSOURCE_HSE)))
 80048d4:	6863      	ldr	r3, [r4, #4]
 80048d6:	f003 030c 	and.w	r3, r3, #12
 80048da:	2b08      	cmp	r3, #8
 80048dc:	d115      	bne.n	800490a <HAL_RCC_OscConfig+0x76>
 80048de:	6863      	ldr	r3, [r4, #4]
 80048e0:	03df      	lsls	r7, r3, #15
 80048e2:	d512      	bpl.n	800490a <HAL_RCC_OscConfig+0x76>
  uint32_t result;

#if ((defined (__ARM_ARCH_7M__      ) && (__ARM_ARCH_7M__      == 1)) || \
     (defined (__ARM_ARCH_7EM__     ) && (__ARM_ARCH_7EM__     == 1)) || \
     (defined (__ARM_ARCH_8M_MAIN__ ) && (__ARM_ARCH_8M_MAIN__ == 1))    )
   __ASM volatile ("rbit %0, %1" : "=r" (result) : "r" (value) );
 80048e4:	f44f 3300 	mov.w	r3, #131072	@ 0x20000
 80048e8:	fa93 f2a3 	rbit	r2, r3
      if((__HAL_RCC_GET_FLAG(RCC_FLAG_HSERDY) != RESET) && (RCC_OscInitStruct->HSEState == RCC_HSE_OFF))
 80048ec:	6821      	ldr	r1, [r4, #0]
 80048ee:	fa93 f3a3 	rbit	r3, r3
 80048f2:	2201      	movs	r2, #1
 80048f4:	fab3 f383 	clz	r3, r3
 80048f8:	fa02 f303 	lsl.w	r3, r2, r3
 80048fc:	420b      	tst	r3, r1
 80048fe:	d0d1      	beq.n	80048a4 <HAL_RCC_OscConfig+0x10>
 8004900:	686b      	ldr	r3, [r5, #4]
 8004902:	2b00      	cmp	r3, #0
 8004904:	d1ce      	bne.n	80048a4 <HAL_RCC_OscConfig+0x10>
    return HAL_ERROR;
 8004906:	2001      	movs	r0, #1
 8004908:	e026      	b.n	8004958 <HAL_RCC_OscConfig+0xc4>
      __HAL_RCC_HSE_CONFIG(RCC_OscInitStruct->HSEState);
 800490a:	686a      	ldr	r2, [r5, #4]
 800490c:	f5b2 3f80 	cmp.w	r2, #65536	@ 0x10000
 8004910:	d125      	bne.n	800495e <HAL_RCC_OscConfig+0xca>
 8004912:	6823      	ldr	r3, [r4, #0]
 8004914:	f443 3380 	orr.w	r3, r3, #65536	@ 0x10000
 8004918:	6023      	str	r3, [r4, #0]
      __HAL_RCC_HSE_PREDIV_CONFIG(RCC_OscInitStruct->HSEPredivValue);
 800491a:	6ae3      	ldr	r3, [r4, #44]	@ 0x2c
 800491c:	68a9      	ldr	r1, [r5, #8]
 800491e:	f023 030f 	bic.w	r3, r3, #15
 8004922:	430b      	orrs	r3, r1
 8004924:	62e3      	str	r3, [r4, #44]	@ 0x2c
      if(RCC_OscInitStruct->HSEState != RCC_HSE_OFF)
 8004926:	b352      	cbz	r2, 800497e <HAL_RCC_OscConfig+0xea>
        tickstart = HAL_GetTick();
 8004928:	f7fe f93a 	bl	8002ba0 <HAL_GetTick>
 800492c:	f44f 3700 	mov.w	r7, #131072	@ 0x20000
 8004930:	4606      	mov	r6, r0
        while(__HAL_RCC_GET_FLAG(RCC_FLAG_HSERDY) == RESET)
 8004932:	f04f 0801 	mov.w	r8, #1
 8004936:	fa97 f3a7 	rbit	r3, r7
 800493a:	6822      	ldr	r2, [r4, #0]
 800493c:	fa97 f3a7 	rbit	r3, r7
 8004940:	fab3 f383 	clz	r3, r3
 8004944:	fa08 f303 	lsl.w	r3, r8, r3
 8004948:	4213      	tst	r3, r2
 800494a:	d1ab      	bne.n	80048a4 <HAL_RCC_OscConfig+0x10>
          if((HAL_GetTick() - tickstart ) > HSE_TIMEOUT_VALUE)
 800494c:	f7fe f928 	bl	8002ba0 <HAL_GetTick>
 8004950:	1b80      	subs	r0, r0, r6
 8004952:	2864      	cmp	r0, #100	@ 0x64
 8004954:	d9ef      	bls.n	8004936 <HAL_RCC_OscConfig+0xa2>
            return HAL_TIMEOUT;
 8004956:	2003      	movs	r0, #3
}
 8004958:	b002      	add	sp, #8
 800495a:	e8bd 87f0 	ldmia.w	sp!, {r4, r5, r6, r7, r8, r9, sl, pc}
      __HAL_RCC_HSE_CONFIG(RCC_OscInitStruct->HSEState);
 800495e:	6823      	ldr	r3, [r4, #0]
 8004960:	b932      	cbnz	r2, 8004970 <HAL_RCC_OscConfig+0xdc>
 8004962:	f423 3380 	bic.w	r3, r3, #65536	@ 0x10000
 8004966:	6023      	str	r3, [r4, #0]
 8004968:	6823      	ldr	r3, [r4, #0]
 800496a:	f423 2380 	bic.w	r3, r3, #262144	@ 0x40000
 800496e:	e7d3      	b.n	8004918 <HAL_RCC_OscConfig+0x84>
 8004970:	f5b2 2fa0 	cmp.w	r2, #327680	@ 0x50000
 8004974:	d1f5      	bne.n	8004962 <HAL_RCC_OscConfig+0xce>
 8004976:	f443 2380 	orr.w	r3, r3, #262144	@ 0x40000
 800497a:	6023      	str	r3, [r4, #0]
 800497c:	e7c9      	b.n	8004912 <HAL_RCC_OscConfig+0x7e>
        tickstart = HAL_GetTick();
 800497e:	f7fe f90f 	bl	8002ba0 <HAL_GetTick>
 8004982:	f44f 3700 	mov.w	r7, #131072	@ 0x20000
 8004986:	4606      	mov	r6, r0
        while(__HAL_RCC_GET_FLAG(RCC_FLAG_HSERDY) != RESET)
 8004988:	f04f 0801 	mov.w	r8, #1
 800498c:	fa97 f3a7 	rbit	r3, r7
 8004990:	6822      	ldr	r2, [r4, #0]
 8004992:	fa97 f3a7 	rbit	r3, r7
 8004996:	fab3 f383 	clz	r3, r3
 800499a:	fa08 f303 	lsl.w	r3, r8, r3
 800499e:	4213      	tst	r3, r2
 80049a0:	d080      	beq.n	80048a4 <HAL_RCC_OscConfig+0x10>
           if((HAL_GetTick() - tickstart ) > HSE_TIMEOUT_VALUE)
 80049a2:	f7fe f8fd 	bl	8002ba0 <HAL_GetTick>
 80049a6:	1b80      	subs	r0, r0, r6
 80049a8:	2864      	cmp	r0, #100	@ 0x64
 80049aa:	d9ef      	bls.n	800498c <HAL_RCC_OscConfig+0xf8>
 80049ac:	e7d3      	b.n	8004956 <HAL_RCC_OscConfig+0xc2>
    if((__HAL_RCC_GET_SYSCLK_SOURCE() == RCC_SYSCLKSOURCE_STATUS_HSI) 
 80049ae:	4c77      	ldr	r4, [pc, #476]	@ (8004b8c <HAL_RCC_OscConfig+0x2f8>)
 80049b0:	6863      	ldr	r3, [r4, #4]
 80049b2:	f013 0f0c 	tst.w	r3, #12
 80049b6:	d007      	beq.n	80049c8 <HAL_RCC_OscConfig+0x134>
       || ((__HAL_RCC_GET_SYSCLK_SOURCE() == RCC_SYSCLKSOURCE_STATUS_PLLCLK) && (__HAL_RCC_GET_PLL_OSCSOURCE() == RCC_PLLSOURCE_HSI)))
 80049b8:	6863      	ldr	r3, [r4, #4]
 80049ba:	f003 030c 	and.w	r3, r3, #12
 80049be:	2b08      	cmp	r3, #8
 80049c0:	d11f      	bne.n	8004a02 <HAL_RCC_OscConfig+0x16e>
 80049c2:	6863      	ldr	r3, [r4, #4]
 80049c4:	03de      	lsls	r6, r3, #15
 80049c6:	d41c      	bmi.n	8004a02 <HAL_RCC_OscConfig+0x16e>
 80049c8:	2302      	movs	r3, #2
 80049ca:	fa93 f2a3 	rbit	r2, r3
      if((__HAL_RCC_GET_FLAG(RCC_FLAG_HSIRDY) != RESET) && (RCC_OscInitStruct->HSIState != RCC_HSI_ON))
 80049ce:	6821      	ldr	r1, [r4, #0]
 80049d0:	fa93 f3a3 	rbit	r3, r3
 80049d4:	2201      	movs	r2, #1
 80049d6:	fab3 f383 	clz	r3, r3
 80049da:	fa02 f303 	lsl.w	r3, r2, r3
 80049de:	420b      	tst	r3, r1
 80049e0:	d002      	beq.n	80049e8 <HAL_RCC_OscConfig+0x154>
 80049e2:	692b      	ldr	r3, [r5, #16]
 80049e4:	4293      	cmp	r3, r2
 80049e6:	d18e      	bne.n	8004906 <HAL_RCC_OscConfig+0x72>
        __HAL_RCC_HSI_CALIBRATIONVALUE_ADJUST(RCC_OscInitStruct->HSICalibrationValue);
 80049e8:	6821      	ldr	r1, [r4, #0]
 80049ea:	22f8      	movs	r2, #248	@ 0xf8
 80049ec:	fa92 f2a2 	rbit	r2, r2
 80049f0:	696b      	ldr	r3, [r5, #20]
 80049f2:	fab2 f282 	clz	r2, r2
 80049f6:	4093      	lsls	r3, r2
 80049f8:	f021 02f8 	bic.w	r2, r1, #248	@ 0xf8
 80049fc:	4313      	orrs	r3, r2
 80049fe:	6023      	str	r3, [r4, #0]
 8004a00:	e754      	b.n	80048ac <HAL_RCC_OscConfig+0x18>
      if(RCC_OscInitStruct->HSIState != RCC_HSI_OFF)
 8004a02:	692a      	ldr	r2, [r5, #16]
 8004a04:	2601      	movs	r6, #1
 8004a06:	b1fa      	cbz	r2, 8004a48 <HAL_RCC_OscConfig+0x1b4>
 8004a08:	fa96 f3a6 	rbit	r3, r6
        __HAL_RCC_HSI_ENABLE();
 8004a0c:	fab3 f383 	clz	r3, r3
 8004a10:	f103 5384 	add.w	r3, r3, #276824064	@ 0x10800000
 8004a14:	f503 1384 	add.w	r3, r3, #1081344	@ 0x108000
 8004a18:	009b      	lsls	r3, r3, #2
 8004a1a:	f04f 0802 	mov.w	r8, #2
 8004a1e:	601e      	str	r6, [r3, #0]
        tickstart = HAL_GetTick();
 8004a20:	f7fe f8be 	bl	8002ba0 <HAL_GetTick>
 8004a24:	4607      	mov	r7, r0
 8004a26:	fa98 f3a8 	rbit	r3, r8
        while(__HAL_RCC_GET_FLAG(RCC_FLAG_HSIRDY) == RESET)
 8004a2a:	6822      	ldr	r2, [r4, #0]
 8004a2c:	fa98 f3a8 	rbit	r3, r8
 8004a30:	fab3 f383 	clz	r3, r3
 8004a34:	fa06 f303 	lsl.w	r3, r6, r3
 8004a38:	4213      	tst	r3, r2
 8004a3a:	d1d5      	bne.n	80049e8 <HAL_RCC_OscConfig+0x154>
          if((HAL_GetTick() - tickstart ) > HSI_TIMEOUT_VALUE)
 8004a3c:	f7fe f8b0 	bl	8002ba0 <HAL_GetTick>
 8004a40:	1bc0      	subs	r0, r0, r7
 8004a42:	2802      	cmp	r0, #2
 8004a44:	d9ef      	bls.n	8004a26 <HAL_RCC_OscConfig+0x192>
 8004a46:	e786      	b.n	8004956 <HAL_RCC_OscConfig+0xc2>
 8004a48:	fa96 f3a6 	rbit	r3, r6
        __HAL_RCC_HSI_DISABLE();
 8004a4c:	fab3 f383 	clz	r3, r3
 8004a50:	f103 5384 	add.w	r3, r3, #276824064	@ 0x10800000
 8004a54:	f503 1384 	add.w	r3, r3, #1081344	@ 0x108000
 8004a58:	009b      	lsls	r3, r3, #2
 8004a5a:	f04f 0802 	mov.w	r8, #2
 8004a5e:	601a      	str	r2, [r3, #0]
        tickstart = HAL_GetTick();
 8004a60:	f7fe f89e 	bl	8002ba0 <HAL_GetTick>
 8004a64:	4607      	mov	r7, r0
 8004a66:	fa98 f3a8 	rbit	r3, r8
        while(__HAL_RCC_GET_FLAG(RCC_FLAG_HSIRDY) != RESET)
 8004a6a:	6822      	ldr	r2, [r4, #0]
 8004a6c:	fa98 f3a8 	rbit	r3, r8
 8004a70:	fab3 f383 	clz	r3, r3
 8004a74:	fa06 f303 	lsl.w	r3, r6, r3
 8004a78:	4213      	tst	r3, r2
 8004a7a:	f43f af17 	beq.w	80048ac <HAL_RCC_OscConfig+0x18>
          if((HAL_GetTick() - tickstart ) > HSI_TIMEOUT_VALUE)
 8004a7e:	f7fe f88f 	bl	8002ba0 <HAL_GetTick>
 8004a82:	1bc0      	subs	r0, r0, r7
 8004a84:	2802      	cmp	r0, #2
 8004a86:	d9ee      	bls.n	8004a66 <HAL_RCC_OscConfig+0x1d2>
 8004a88:	e765      	b.n	8004956 <HAL_RCC_OscConfig+0xc2>
    if(RCC_OscInitStruct->LSIState != RCC_LSI_OFF)
 8004a8a:	69aa      	ldr	r2, [r5, #24]
 8004a8c:	4e3f      	ldr	r6, [pc, #252]	@ (8004b8c <HAL_RCC_OscConfig+0x2f8>)
 8004a8e:	4940      	ldr	r1, [pc, #256]	@ (8004b90 <HAL_RCC_OscConfig+0x2fc>)
 8004a90:	2401      	movs	r4, #1
 8004a92:	b30a      	cbz	r2, 8004ad8 <HAL_RCC_OscConfig+0x244>
 8004a94:	fa94 f3a4 	rbit	r3, r4
      __HAL_RCC_LSI_ENABLE();
 8004a98:	fab3 f383 	clz	r3, r3
 8004a9c:	440b      	add	r3, r1
 8004a9e:	009b      	lsls	r3, r3, #2
 8004aa0:	2702      	movs	r7, #2
 8004aa2:	601c      	str	r4, [r3, #0]
      tickstart = HAL_GetTick();
 8004aa4:	f7fe f87c 	bl	8002ba0 <HAL_GetTick>
 8004aa8:	4680      	mov	r8, r0
 8004aaa:	fa97 f3a7 	rbit	r3, r7
 8004aae:	fa97 f3a7 	rbit	r3, r7
 8004ab2:	fa97 f3a7 	rbit	r3, r7
      while(__HAL_RCC_GET_FLAG(RCC_FLAG_LSIRDY) == RESET)
 8004ab6:	6a72      	ldr	r2, [r6, #36]	@ 0x24
 8004ab8:	fa97 f3a7 	rbit	r3, r7
 8004abc:	fab3 f383 	clz	r3, r3
 8004ac0:	fa04 f303 	lsl.w	r3, r4, r3
 8004ac4:	4213      	tst	r3, r2
 8004ac6:	f47f aef5 	bne.w	80048b4 <HAL_RCC_OscConfig+0x20>
        if((HAL_GetTick() - tickstart ) > LSI_TIMEOUT_VALUE)
 8004aca:	f7fe f869 	bl	8002ba0 <HAL_GetTick>
 8004ace:	eba0 0008 	sub.w	r0, r0, r8
 8004ad2:	2802      	cmp	r0, #2
 8004ad4:	d9e9      	bls.n	8004aaa <HAL_RCC_OscConfig+0x216>
 8004ad6:	e73e      	b.n	8004956 <HAL_RCC_OscConfig+0xc2>
 8004ad8:	fa94 f3a4 	rbit	r3, r4
      __HAL_RCC_LSI_DISABLE();
 8004adc:	fab3 f383 	clz	r3, r3
 8004ae0:	440b      	add	r3, r1
 8004ae2:	009b      	lsls	r3, r3, #2
 8004ae4:	2702      	movs	r7, #2
 8004ae6:	601a      	str	r2, [r3, #0]
      tickstart = HAL_GetTick();
 8004ae8:	f7fe f85a 	bl	8002ba0 <HAL_GetTick>
 8004aec:	4680      	mov	r8, r0
 8004aee:	fa97 f3a7 	rbit	r3, r7
 8004af2:	fa97 f3a7 	rbit	r3, r7
 8004af6:	fa97 f3a7 	rbit	r3, r7
      while(__HAL_RCC_GET_FLAG(RCC_FLAG_LSIRDY) != RESET)
 8004afa:	6a72      	ldr	r2, [r6, #36]	@ 0x24
 8004afc:	fa97 f3a7 	rbit	r3, r7
 8004b00:	fab3 f383 	clz	r3, r3
 8004b04:	fa04 f303 	lsl.w	r3, r4, r3
 8004b08:	4213      	tst	r3, r2
 8004b0a:	f43f aed3 	beq.w	80048b4 <HAL_RCC_OscConfig+0x20>
        if((HAL_GetTick() - tickstart ) > LSI_TIMEOUT_VALUE)
 8004b0e:	f7fe f847 	bl	8002ba0 <HAL_GetTick>
 8004b12:	eba0 0008 	sub.w	r0, r0, r8
 8004b16:	2802      	cmp	r0, #2
 8004b18:	d9e9      	bls.n	8004aee <HAL_RCC_OscConfig+0x25a>
 8004b1a:	e71c      	b.n	8004956 <HAL_RCC_OscConfig+0xc2>
    if(__HAL_RCC_PWR_IS_CLK_DISABLED())
 8004b1c:	4c1b      	ldr	r4, [pc, #108]	@ (8004b8c <HAL_RCC_OscConfig+0x2f8>)
 8004b1e:	69e3      	ldr	r3, [r4, #28]
 8004b20:	00d9      	lsls	r1, r3, #3
 8004b22:	d431      	bmi.n	8004b88 <HAL_RCC_OscConfig+0x2f4>
      __HAL_RCC_PWR_CLK_ENABLE();
 8004b24:	69e3      	ldr	r3, [r4, #28]
 8004b26:	f043 5380 	orr.w	r3, r3, #268435456	@ 0x10000000
 8004b2a:	61e3      	str	r3, [r4, #28]
 8004b2c:	69e3      	ldr	r3, [r4, #28]
 8004b2e:	f003 5380 	and.w	r3, r3, #268435456	@ 0x10000000
 8004b32:	9301      	str	r3, [sp, #4]
 8004b34:	9b01      	ldr	r3, [sp, #4]
      pwrclkchanged = SET;
 8004b36:	2601      	movs	r6, #1
    if(HAL_IS_BIT_CLR(PWR->CR, PWR_CR_DBP))
 8004b38:	4f16      	ldr	r7, [pc, #88]	@ (8004b94 <HAL_RCC_OscConfig+0x300>)
 8004b3a:	683b      	ldr	r3, [r7, #0]
 8004b3c:	05da      	lsls	r2, r3, #23
 8004b3e:	d52b      	bpl.n	8004b98 <HAL_RCC_OscConfig+0x304>
    __HAL_RCC_LSE_CONFIG(RCC_OscInitStruct->LSEState);
 8004b40:	68eb      	ldr	r3, [r5, #12]
 8004b42:	2b01      	cmp	r3, #1
 8004b44:	d139      	bne.n	8004bba <HAL_RCC_OscConfig+0x326>
 8004b46:	6a23      	ldr	r3, [r4, #32]
 8004b48:	f043 0301 	orr.w	r3, r3, #1
 8004b4c:	6223      	str	r3, [r4, #32]
      tickstart = HAL_GetTick();
 8004b4e:	f7fe f827 	bl	8002ba0 <HAL_GetTick>
 8004b52:	2702      	movs	r7, #2
 8004b54:	4680      	mov	r8, r0
      while(__HAL_RCC_GET_FLAG(RCC_FLAG_LSERDY) == RESET)
 8004b56:	f04f 0901 	mov.w	r9, #1
        if((HAL_GetTick() - tickstart ) > RCC_LSE_TIMEOUT_VALUE)
 8004b5a:	f241 3a88 	movw	sl, #5000	@ 0x1388
 8004b5e:	fa97 f3a7 	rbit	r3, r7
 8004b62:	fa97 f3a7 	rbit	r3, r7
      while(__HAL_RCC_GET_FLAG(RCC_FLAG_LSERDY) == RESET)
 8004b66:	6a22      	ldr	r2, [r4, #32]
 8004b68:	fa97 f3a7 	rbit	r3, r7
 8004b6c:	fab3 f383 	clz	r3, r3
 8004b70:	fa09 f303 	lsl.w	r3, r9, r3
 8004b74:	4213      	tst	r3, r2
 8004b76:	d053      	beq.n	8004c20 <HAL_RCC_OscConfig+0x38c>
    if(pwrclkchanged == SET)
 8004b78:	2e00      	cmp	r6, #0
 8004b7a:	f43f ae9f 	beq.w	80048bc <HAL_RCC_OscConfig+0x28>
      __HAL_RCC_PWR_CLK_DISABLE();
 8004b7e:	69e3      	ldr	r3, [r4, #28]
 8004b80:	f023 5380 	bic.w	r3, r3, #268435456	@ 0x10000000
 8004b84:	61e3      	str	r3, [r4, #28]
 8004b86:	e699      	b.n	80048bc <HAL_RCC_OscConfig+0x28>
    FlagStatus       pwrclkchanged = RESET;
 8004b88:	2600      	movs	r6, #0
 8004b8a:	e7d5      	b.n	8004b38 <HAL_RCC_OscConfig+0x2a4>
 8004b8c:	40021000 	.word	0x40021000
 8004b90:	10908120 	.word	0x10908120
 8004b94:	40007000 	.word	0x40007000
      SET_BIT(PWR->CR, PWR_CR_DBP);
 8004b98:	683b      	ldr	r3, [r7, #0]
 8004b9a:	f443 7380 	orr.w	r3, r3, #256	@ 0x100
 8004b9e:	603b      	str	r3, [r7, #0]
      tickstart = HAL_GetTick();
 8004ba0:	f7fd fffe 	bl	8002ba0 <HAL_GetTick>
 8004ba4:	4680      	mov	r8, r0
      while(HAL_IS_BIT_CLR(PWR->CR, PWR_CR_DBP))
 8004ba6:	683b      	ldr	r3, [r7, #0]
 8004ba8:	05db      	lsls	r3, r3, #23
 8004baa:	d4c9      	bmi.n	8004b40 <HAL_RCC_OscConfig+0x2ac>
        if((HAL_GetTick() - tickstart) > RCC_DBP_TIMEOUT_VALUE)
 8004bac:	f7fd fff8 	bl	8002ba0 <HAL_GetTick>
 8004bb0:	eba0 0008 	sub.w	r0, r0, r8
 8004bb4:	2864      	cmp	r0, #100	@ 0x64
 8004bb6:	d9f6      	bls.n	8004ba6 <HAL_RCC_OscConfig+0x312>
 8004bb8:	e6cd      	b.n	8004956 <HAL_RCC_OscConfig+0xc2>
    __HAL_RCC_LSE_CONFIG(RCC_OscInitStruct->LSEState);
 8004bba:	bb1b      	cbnz	r3, 8004c04 <HAL_RCC_OscConfig+0x370>
 8004bbc:	6a23      	ldr	r3, [r4, #32]
 8004bbe:	f023 0301 	bic.w	r3, r3, #1
 8004bc2:	6223      	str	r3, [r4, #32]
 8004bc4:	6a23      	ldr	r3, [r4, #32]
 8004bc6:	f023 0304 	bic.w	r3, r3, #4
 8004bca:	6223      	str	r3, [r4, #32]
      tickstart = HAL_GetTick();
 8004bcc:	f7fd ffe8 	bl	8002ba0 <HAL_GetTick>
 8004bd0:	2702      	movs	r7, #2
 8004bd2:	4680      	mov	r8, r0
      while(__HAL_RCC_GET_FLAG(RCC_FLAG_LSERDY) != RESET)
 8004bd4:	f04f 0901 	mov.w	r9, #1
        if((HAL_GetTick() - tickstart ) > RCC_LSE_TIMEOUT_VALUE)
 8004bd8:	f241 3a88 	movw	sl, #5000	@ 0x1388
 8004bdc:	fa97 f3a7 	rbit	r3, r7
 8004be0:	fa97 f3a7 	rbit	r3, r7
      while(__HAL_RCC_GET_FLAG(RCC_FLAG_LSERDY) != RESET)
 8004be4:	6a22      	ldr	r2, [r4, #32]
 8004be6:	fa97 f3a7 	rbit	r3, r7
 8004bea:	fab3 f383 	clz	r3, r3
 8004bee:	fa09 f303 	lsl.w	r3, r9, r3
 8004bf2:	4213      	tst	r3, r2
 8004bf4:	d0c0      	beq.n	8004b78 <HAL_RCC_OscConfig+0x2e4>
        if((HAL_GetTick() - tickstart ) > RCC_LSE_TIMEOUT_VALUE)
 8004bf6:	f7fd ffd3 	bl	8002ba0 <HAL_GetTick>
 8004bfa:	eba0 0008 	sub.w	r0, r0, r8
 8004bfe:	4550      	cmp	r0, sl
 8004c00:	d9ec      	bls.n	8004bdc <HAL_RCC_OscConfig+0x348>
 8004c02:	e6a8      	b.n	8004956 <HAL_RCC_OscConfig+0xc2>
    __HAL_RCC_LSE_CONFIG(RCC_OscInitStruct->LSEState);
 8004c04:	2b05      	cmp	r3, #5
 8004c06:	6a23      	ldr	r3, [r4, #32]
 8004c08:	d103      	bne.n	8004c12 <HAL_RCC_OscConfig+0x37e>
 8004c0a:	f043 0304 	orr.w	r3, r3, #4
 8004c0e:	6223      	str	r3, [r4, #32]
 8004c10:	e799      	b.n	8004b46 <HAL_RCC_OscConfig+0x2b2>
 8004c12:	f023 0301 	bic.w	r3, r3, #1
 8004c16:	6223      	str	r3, [r4, #32]
 8004c18:	6a23      	ldr	r3, [r4, #32]
 8004c1a:	f023 0304 	bic.w	r3, r3, #4
 8004c1e:	e795      	b.n	8004b4c <HAL_RCC_OscConfig+0x2b8>
        if((HAL_GetTick() - tickstart ) > RCC_LSE_TIMEOUT_VALUE)
 8004c20:	f7fd ffbe 	bl	8002ba0 <HAL_GetTick>
 8004c24:	eba0 0008 	sub.w	r0, r0, r8
 8004c28:	4550      	cmp	r0, sl
 8004c2a:	d998      	bls.n	8004b5e <HAL_RCC_OscConfig+0x2ca>
 8004c2c:	e693      	b.n	8004956 <HAL_RCC_OscConfig+0xc2>
    if(__HAL_RCC_GET_SYSCLK_SOURCE() != RCC_SYSCLKSOURCE_STATUS_PLLCLK)
 8004c2e:	4c46      	ldr	r4, [pc, #280]	@ (8004d48 <HAL_RCC_OscConfig+0x4b4>)
 8004c30:	6862      	ldr	r2, [r4, #4]
 8004c32:	f002 020c 	and.w	r2, r2, #12
 8004c36:	2a08      	cmp	r2, #8
 8004c38:	d074      	beq.n	8004d24 <HAL_RCC_OscConfig+0x490>
      if((RCC_OscInitStruct->PLL.PLLState) == RCC_PLL_ON)
 8004c3a:	2b02      	cmp	r3, #2
 8004c3c:	f04f 7380 	mov.w	r3, #16777216	@ 0x1000000
 8004c40:	d14d      	bne.n	8004cde <HAL_RCC_OscConfig+0x44a>
 8004c42:	fa93 f3a3 	rbit	r3, r3
        __HAL_RCC_PLL_DISABLE();
 8004c46:	fab3 f383 	clz	r3, r3
 8004c4a:	f103 5384 	add.w	r3, r3, #276824064	@ 0x10800000
 8004c4e:	f503 1384 	add.w	r3, r3, #1081344	@ 0x108000
 8004c52:	009b      	lsls	r3, r3, #2
 8004c54:	2200      	movs	r2, #0
 8004c56:	601a      	str	r2, [r3, #0]
        tickstart = HAL_GetTick();
 8004c58:	f7fd ffa2 	bl	8002ba0 <HAL_GetTick>
 8004c5c:	f04f 7800 	mov.w	r8, #33554432	@ 0x2000000
 8004c60:	4607      	mov	r7, r0
        while(__HAL_RCC_GET_FLAG(RCC_FLAG_PLLRDY)  != RESET)
 8004c62:	2601      	movs	r6, #1
 8004c64:	fa98 f3a8 	rbit	r3, r8
 8004c68:	6822      	ldr	r2, [r4, #0]
 8004c6a:	fa98 f3a8 	rbit	r3, r8
 8004c6e:	fab3 f383 	clz	r3, r3
 8004c72:	fa06 f303 	lsl.w	r3, r6, r3
 8004c76:	4213      	tst	r3, r2
 8004c78:	d12b      	bne.n	8004cd2 <HAL_RCC_OscConfig+0x43e>
      __HAL_RCC_PLL_CONFIG(RCC_OscInitStruct->PLL.PLLSource,
 8004c7a:	e9d5 1308 	ldrd	r1, r3, [r5, #32]
 8004c7e:	6862      	ldr	r2, [r4, #4]
 8004c80:	430b      	orrs	r3, r1
 8004c82:	f422 1274 	bic.w	r2, r2, #3997696	@ 0x3d0000
 8004c86:	4313      	orrs	r3, r2
 8004c88:	6063      	str	r3, [r4, #4]
 8004c8a:	f04f 7380 	mov.w	r3, #16777216	@ 0x1000000
 8004c8e:	fa93 f3a3 	rbit	r3, r3
        __HAL_RCC_PLL_ENABLE();
 8004c92:	fab3 f383 	clz	r3, r3
 8004c96:	f103 5384 	add.w	r3, r3, #276824064	@ 0x10800000
 8004c9a:	f503 1384 	add.w	r3, r3, #1081344	@ 0x108000
 8004c9e:	009b      	lsls	r3, r3, #2
        while(__HAL_RCC_GET_FLAG(RCC_FLAG_PLLRDY)  == RESET)
 8004ca0:	2701      	movs	r7, #1
        __HAL_RCC_PLL_ENABLE();
 8004ca2:	601e      	str	r6, [r3, #0]
        tickstart = HAL_GetTick();
 8004ca4:	f7fd ff7c 	bl	8002ba0 <HAL_GetTick>
 8004ca8:	f04f 7600 	mov.w	r6, #33554432	@ 0x2000000
 8004cac:	4605      	mov	r5, r0
 8004cae:	fa96 f3a6 	rbit	r3, r6
        while(__HAL_RCC_GET_FLAG(RCC_FLAG_PLLRDY)  == RESET)
 8004cb2:	6822      	ldr	r2, [r4, #0]
 8004cb4:	fa96 f3a6 	rbit	r3, r6
 8004cb8:	fab3 f383 	clz	r3, r3
 8004cbc:	fa07 f303 	lsl.w	r3, r7, r3
 8004cc0:	4213      	tst	r3, r2
 8004cc2:	f47f adff 	bne.w	80048c4 <HAL_RCC_OscConfig+0x30>
          if((HAL_GetTick() - tickstart ) > PLL_TIMEOUT_VALUE)
 8004cc6:	f7fd ff6b 	bl	8002ba0 <HAL_GetTick>
 8004cca:	1b40      	subs	r0, r0, r5
 8004ccc:	2802      	cmp	r0, #2
 8004cce:	d9ee      	bls.n	8004cae <HAL_RCC_OscConfig+0x41a>
 8004cd0:	e641      	b.n	8004956 <HAL_RCC_OscConfig+0xc2>
          if((HAL_GetTick() - tickstart ) > PLL_TIMEOUT_VALUE)
 8004cd2:	f7fd ff65 	bl	8002ba0 <HAL_GetTick>
 8004cd6:	1bc0      	subs	r0, r0, r7
 8004cd8:	2802      	cmp	r0, #2
 8004cda:	d9c3      	bls.n	8004c64 <HAL_RCC_OscConfig+0x3d0>
 8004cdc:	e63b      	b.n	8004956 <HAL_RCC_OscConfig+0xc2>
 8004cde:	fa93 f3a3 	rbit	r3, r3
        __HAL_RCC_PLL_DISABLE();
 8004ce2:	fab3 f383 	clz	r3, r3
 8004ce6:	f103 5384 	add.w	r3, r3, #276824064	@ 0x10800000
 8004cea:	f503 1384 	add.w	r3, r3, #1081344	@ 0x108000
 8004cee:	009b      	lsls	r3, r3, #2
 8004cf0:	2200      	movs	r2, #0
 8004cf2:	601a      	str	r2, [r3, #0]
        tickstart = HAL_GetTick();
 8004cf4:	f7fd ff54 	bl	8002ba0 <HAL_GetTick>
 8004cf8:	f04f 7600 	mov.w	r6, #33554432	@ 0x2000000
 8004cfc:	4605      	mov	r5, r0
        while(__HAL_RCC_GET_FLAG(RCC_FLAG_PLLRDY)  != RESET)
 8004cfe:	2701      	movs	r7, #1
 8004d00:	fa96 f3a6 	rbit	r3, r6
 8004d04:	6822      	ldr	r2, [r4, #0]
 8004d06:	fa96 f3a6 	rbit	r3, r6
 8004d0a:	fab3 f383 	clz	r3, r3
 8004d0e:	fa07 f303 	lsl.w	r3, r7, r3
 8004d12:	4213      	tst	r3, r2
 8004d14:	f43f add6 	beq.w	80048c4 <HAL_RCC_OscConfig+0x30>
          if((HAL_GetTick() - tickstart ) > PLL_TIMEOUT_VALUE)
 8004d18:	f7fd ff42 	bl	8002ba0 <HAL_GetTick>
 8004d1c:	1b40      	subs	r0, r0, r5
 8004d1e:	2802      	cmp	r0, #2
 8004d20:	d9ee      	bls.n	8004d00 <HAL_RCC_OscConfig+0x46c>
 8004d22:	e618      	b.n	8004956 <HAL_RCC_OscConfig+0xc2>
      if((RCC_OscInitStruct->PLL.PLLState) == RCC_PLL_OFF)
 8004d24:	2b01      	cmp	r3, #1
 8004d26:	f43f adee 	beq.w	8004906 <HAL_RCC_OscConfig+0x72>
        pll_config = RCC->CFGR;
 8004d2a:	6860      	ldr	r0, [r4, #4]
        if((READ_BIT(pll_config, RCC_CFGR_PLLSRC)   != RCC_OscInitStruct->PLL.PLLSource) ||      
 8004d2c:	6a2b      	ldr	r3, [r5, #32]
 8004d2e:	f400 3280 	and.w	r2, r0, #65536	@ 0x10000
 8004d32:	429a      	cmp	r2, r3
 8004d34:	f47f ade7 	bne.w	8004906 <HAL_RCC_OscConfig+0x72>
 8004d38:	6a6b      	ldr	r3, [r5, #36]	@ 0x24
           (READ_BIT(pll_config, RCC_CFGR_PLLMUL)   != RCC_OscInitStruct->PLL.PLLMUL))
 8004d3a:	f400 1070 	and.w	r0, r0, #3932160	@ 0x3c0000
        if((READ_BIT(pll_config, RCC_CFGR_PLLSRC)   != RCC_OscInitStruct->PLL.PLLSource) ||      
 8004d3e:	1ac0      	subs	r0, r0, r3
 8004d40:	bf18      	it	ne
 8004d42:	2001      	movne	r0, #1
 8004d44:	e608      	b.n	8004958 <HAL_RCC_OscConfig+0xc4>
 8004d46:	bf00      	nop
 8004d48:	40021000 	.word	0x40021000

08004d4c <HAL_RCC_GetSysClockFreq>:
uint32_t HAL_RCC_GetSysClockFreq(void)
{
  uint32_t tmpreg = 0U, prediv = 0U, pllclk = 0U, pllmul = 0U;
  uint32_t sysclockfreq = 0U;
  
  tmpreg = RCC->CFGR;
 8004d4c:	4b0c      	ldr	r3, [pc, #48]	@ (8004d80 <HAL_RCC_GetSysClockFreq+0x34>)
 8004d4e:	685a      	ldr	r2, [r3, #4]
  
  /* Get SYSCLK source -------------------------------------------------------*/
  switch (tmpreg & RCC_CFGR_SWS)
 8004d50:	f002 010c 	and.w	r1, r2, #12
 8004d54:	2908      	cmp	r1, #8
 8004d56:	d111      	bne.n	8004d7c <HAL_RCC_GetSysClockFreq+0x30>
      break;
    }
    case RCC_SYSCLKSOURCE_STATUS_PLLCLK:  /* PLL used as system clock */
    {
      pllmul = aPLLMULFactorTable[(uint32_t)(tmpreg & RCC_CFGR_PLLMUL) >> RCC_CFGR_PLLMUL_Pos];
      prediv = aPredivFactorTable[(uint32_t)(RCC->CFGR2 & RCC_CFGR2_PREDIV) >> RCC_CFGR2_PREDIV_Pos];
 8004d58:	6adb      	ldr	r3, [r3, #44]	@ 0x2c
      pllmul = aPLLMULFactorTable[(uint32_t)(tmpreg & RCC_CFGR_PLLMUL) >> RCC_CFGR_PLLMUL_Pos];
 8004d5a:	480a      	ldr	r0, [pc, #40]	@ (8004d84 <HAL_RCC_GetSysClockFreq+0x38>)
 8004d5c:	f3c2 4183 	ubfx	r1, r2, #18, #4
#if defined(RCC_CFGR_PLLSRC_HSI_DIV2)
      if ((tmpreg & RCC_CFGR_PLLSRC) != RCC_PLLSOURCE_HSI)
 8004d60:	03d2      	lsls	r2, r2, #15
      prediv = aPredivFactorTable[(uint32_t)(RCC->CFGR2 & RCC_CFGR2_PREDIV) >> RCC_CFGR2_PREDIV_Pos];
 8004d62:	bf44      	itt	mi
 8004d64:	f003 030f 	andmi.w	r3, r3, #15
 8004d68:	4a07      	ldrmi	r2, [pc, #28]	@ (8004d88 <HAL_RCC_GetSysClockFreq+0x3c>)
      pllmul = aPLLMULFactorTable[(uint32_t)(tmpreg & RCC_CFGR_PLLMUL) >> RCC_CFGR_PLLMUL_Pos];
 8004d6a:	5c40      	ldrb	r0, [r0, r1]
      prediv = aPredivFactorTable[(uint32_t)(RCC->CFGR2 & RCC_CFGR2_PREDIV) >> RCC_CFGR2_PREDIV_Pos];
 8004d6c:	bf49      	itett	mi
 8004d6e:	5cd2      	ldrbmi	r2, [r2, r3]
        pllclk = (uint32_t)((uint64_t) HSE_VALUE / (uint64_t) (prediv)) * ((uint64_t) pllmul);
      }
      else
      {
        /* HSI used as PLL clock source : PLLCLK = HSI/2 * PLLMUL */
        pllclk = (uint32_t)((uint64_t) (HSI_VALUE >> 1U) * ((uint64_t) pllmul));
 8004d70:	4b06      	ldrpl	r3, [pc, #24]	@ (8004d8c <HAL_RCC_GetSysClockFreq+0x40>)
        pllclk = (uint32_t)((uint64_t) HSE_VALUE / (uint64_t) (prediv)) * ((uint64_t) pllmul);
 8004d72:	4b07      	ldrmi	r3, [pc, #28]	@ (8004d90 <HAL_RCC_GetSysClockFreq+0x44>)
 8004d74:	fbb3 f3f2 	udivmi	r3, r3, r2
        pllclk = (uint32_t)((uint64_t) (HSI_VALUE >> 1U) * ((uint64_t) pllmul));
 8004d78:	4358      	muls	r0, r3
 8004d7a:	4770      	bx	lr
      sysclockfreq = HSE_VALUE;
 8004d7c:	4804      	ldr	r0, [pc, #16]	@ (8004d90 <HAL_RCC_GetSysClockFreq+0x44>)
      sysclockfreq = HSI_VALUE;
      break;
    }
  }
  return sysclockfreq;
}
 8004d7e:	4770      	bx	lr
 8004d80:	40021000 	.word	0x40021000
 8004d84:	0800c920 	.word	0x0800c920
 8004d88:	0800c910 	.word	0x0800c910
 8004d8c:	003d0900 	.word	0x003d0900
 8004d90:	007a1200 	.word	0x007a1200

08004d94 <HAL_RCC_ClockConfig>:
{
 8004d94:	e92d 41f0 	stmdb	sp!, {r4, r5, r6, r7, r8, lr}
 8004d98:	460d      	mov	r5, r1
  if(RCC_ClkInitStruct == NULL)
 8004d9a:	4604      	mov	r4, r0
 8004d9c:	b910      	cbnz	r0, 8004da4 <HAL_RCC_ClockConfig+0x10>
    return HAL_ERROR;
 8004d9e:	2001      	movs	r0, #1
}
 8004da0:	e8bd 81f0 	ldmia.w	sp!, {r4, r5, r6, r7, r8, pc}
  if(FLatency > __HAL_FLASH_GET_LATENCY())
 8004da4:	4a4a      	ldr	r2, [pc, #296]	@ (8004ed0 <HAL_RCC_ClockConfig+0x13c>)
 8004da6:	6813      	ldr	r3, [r2, #0]
 8004da8:	f003 0307 	and.w	r3, r3, #7
 8004dac:	428b      	cmp	r3, r1
 8004dae:	d32e      	bcc.n	8004e0e <HAL_RCC_ClockConfig+0x7a>
  if(((RCC_ClkInitStruct->ClockType) & RCC_CLOCKTYPE_HCLK) == RCC_CLOCKTYPE_HCLK)
 8004db0:	6822      	ldr	r2, [r4, #0]
 8004db2:	0791      	lsls	r1, r2, #30
 8004db4:	d436      	bmi.n	8004e24 <HAL_RCC_ClockConfig+0x90>
  if(((RCC_ClkInitStruct->ClockType) & RCC_CLOCKTYPE_SYSCLK) == RCC_CLOCKTYPE_SYSCLK)
 8004db6:	07d2      	lsls	r2, r2, #31
 8004db8:	d43c      	bmi.n	8004e34 <HAL_RCC_ClockConfig+0xa0>
  if(FLatency < __HAL_FLASH_GET_LATENCY())
 8004dba:	4a45      	ldr	r2, [pc, #276]	@ (8004ed0 <HAL_RCC_ClockConfig+0x13c>)
 8004dbc:	6813      	ldr	r3, [r2, #0]
 8004dbe:	f003 0307 	and.w	r3, r3, #7
 8004dc2:	42ab      	cmp	r3, r5
 8004dc4:	d870      	bhi.n	8004ea8 <HAL_RCC_ClockConfig+0x114>
  if(((RCC_ClkInitStruct->ClockType) & RCC_CLOCKTYPE_PCLK1) == RCC_CLOCKTYPE_PCLK1)
 8004dc6:	6822      	ldr	r2, [r4, #0]
 8004dc8:	4d42      	ldr	r5, [pc, #264]	@ (8004ed4 <HAL_RCC_ClockConfig+0x140>)
 8004dca:	f012 0f04 	tst.w	r2, #4
 8004dce:	d177      	bne.n	8004ec0 <HAL_RCC_ClockConfig+0x12c>
  if(((RCC_ClkInitStruct->ClockType) & RCC_CLOCKTYPE_PCLK2) == RCC_CLOCKTYPE_PCLK2)
 8004dd0:	0713      	lsls	r3, r2, #28
 8004dd2:	d506      	bpl.n	8004de2 <HAL_RCC_ClockConfig+0x4e>
    MODIFY_REG(RCC->CFGR, RCC_CFGR_PPRE2, ((RCC_ClkInitStruct->APB2CLKDivider) << 3U));
 8004dd4:	686b      	ldr	r3, [r5, #4]
 8004dd6:	6922      	ldr	r2, [r4, #16]
 8004dd8:	f423 5360 	bic.w	r3, r3, #14336	@ 0x3800
 8004ddc:	ea43 03c2 	orr.w	r3, r3, r2, lsl #3
 8004de0:	606b      	str	r3, [r5, #4]
  SystemCoreClock = HAL_RCC_GetSysClockFreq() >> AHBPrescTable[(RCC->CFGR & RCC_CFGR_HPRE)>> RCC_CFGR_HPRE_BITNUMBER];
 8004de2:	f7ff ffb3 	bl	8004d4c <HAL_RCC_GetSysClockFreq>
 8004de6:	686b      	ldr	r3, [r5, #4]
 8004de8:	22f0      	movs	r2, #240	@ 0xf0
 8004dea:	fa92 f2a2 	rbit	r2, r2
 8004dee:	fab2 f282 	clz	r2, r2
 8004df2:	f003 03f0 	and.w	r3, r3, #240	@ 0xf0
 8004df6:	40d3      	lsrs	r3, r2
 8004df8:	4a37      	ldr	r2, [pc, #220]	@ (8004ed8 <HAL_RCC_ClockConfig+0x144>)
 8004dfa:	5cd3      	ldrb	r3, [r2, r3]
 8004dfc:	40d8      	lsrs	r0, r3
 8004dfe:	4b37      	ldr	r3, [pc, #220]	@ (8004edc <HAL_RCC_ClockConfig+0x148>)
 8004e00:	6018      	str	r0, [r3, #0]
  HAL_InitTick (uwTickPrio);
 8004e02:	4b37      	ldr	r3, [pc, #220]	@ (8004ee0 <HAL_RCC_ClockConfig+0x14c>)
 8004e04:	6818      	ldr	r0, [r3, #0]
 8004e06:	f7fd fe89 	bl	8002b1c <HAL_InitTick>
  return HAL_OK;
 8004e0a:	2000      	movs	r0, #0
 8004e0c:	e7c8      	b.n	8004da0 <HAL_RCC_ClockConfig+0xc>
    __HAL_FLASH_SET_LATENCY(FLatency);
 8004e0e:	6813      	ldr	r3, [r2, #0]
 8004e10:	f023 0307 	bic.w	r3, r3, #7
 8004e14:	430b      	orrs	r3, r1
 8004e16:	6013      	str	r3, [r2, #0]
    if(__HAL_FLASH_GET_LATENCY() != FLatency)
 8004e18:	6813      	ldr	r3, [r2, #0]
 8004e1a:	f003 0307 	and.w	r3, r3, #7
 8004e1e:	428b      	cmp	r3, r1
 8004e20:	d1bd      	bne.n	8004d9e <HAL_RCC_ClockConfig+0xa>
 8004e22:	e7c5      	b.n	8004db0 <HAL_RCC_ClockConfig+0x1c>
    MODIFY_REG(RCC->CFGR, RCC_CFGR_HPRE, RCC_ClkInitStruct->AHBCLKDivider);
 8004e24:	492b      	ldr	r1, [pc, #172]	@ (8004ed4 <HAL_RCC_ClockConfig+0x140>)
 8004e26:	68a0      	ldr	r0, [r4, #8]
 8004e28:	684b      	ldr	r3, [r1, #4]
 8004e2a:	f023 03f0 	bic.w	r3, r3, #240	@ 0xf0
 8004e2e:	4303      	orrs	r3, r0
 8004e30:	604b      	str	r3, [r1, #4]
 8004e32:	e7c0      	b.n	8004db6 <HAL_RCC_ClockConfig+0x22>
    if(RCC_ClkInitStruct->SYSCLKSource == RCC_SYSCLKSOURCE_HSE)
 8004e34:	6862      	ldr	r2, [r4, #4]
 8004e36:	4e27      	ldr	r6, [pc, #156]	@ (8004ed4 <HAL_RCC_ClockConfig+0x140>)
 8004e38:	2a01      	cmp	r2, #1
 8004e3a:	d124      	bne.n	8004e86 <HAL_RCC_ClockConfig+0xf2>
 8004e3c:	f44f 3300 	mov.w	r3, #131072	@ 0x20000
 8004e40:	fa93 f1a3 	rbit	r1, r3
      if(__HAL_RCC_GET_FLAG(RCC_FLAG_HSERDY) == RESET)
 8004e44:	6831      	ldr	r1, [r6, #0]
 8004e46:	fa93 f3a3 	rbit	r3, r3
 8004e4a:	fab3 f383 	clz	r3, r3
 8004e4e:	fa02 f303 	lsl.w	r3, r2, r3
 8004e52:	420b      	tst	r3, r1
      if(__HAL_RCC_GET_FLAG(RCC_FLAG_HSIRDY) == RESET)
 8004e54:	d0a3      	beq.n	8004d9e <HAL_RCC_ClockConfig+0xa>
    __HAL_RCC_SYSCLK_CONFIG(RCC_ClkInitStruct->SYSCLKSource);
 8004e56:	6873      	ldr	r3, [r6, #4]
 8004e58:	f023 0303 	bic.w	r3, r3, #3
 8004e5c:	4313      	orrs	r3, r2
 8004e5e:	6073      	str	r3, [r6, #4]
    tickstart = HAL_GetTick();
 8004e60:	f7fd fe9e 	bl	8002ba0 <HAL_GetTick>
      if ((HAL_GetTick() - tickstart) > CLOCKSWITCH_TIMEOUT_VALUE)
 8004e64:	f241 3888 	movw	r8, #5000	@ 0x1388
    tickstart = HAL_GetTick();
 8004e68:	4607      	mov	r7, r0
    while (__HAL_RCC_GET_SYSCLK_SOURCE() != (RCC_ClkInitStruct->SYSCLKSource << RCC_CFGR_SWS_Pos))
 8004e6a:	6873      	ldr	r3, [r6, #4]
 8004e6c:	6862      	ldr	r2, [r4, #4]
 8004e6e:	f003 030c 	and.w	r3, r3, #12
 8004e72:	ebb3 0f82 	cmp.w	r3, r2, lsl #2
 8004e76:	d0a0      	beq.n	8004dba <HAL_RCC_ClockConfig+0x26>
      if ((HAL_GetTick() - tickstart) > CLOCKSWITCH_TIMEOUT_VALUE)
 8004e78:	f7fd fe92 	bl	8002ba0 <HAL_GetTick>
 8004e7c:	1bc0      	subs	r0, r0, r7
 8004e7e:	4540      	cmp	r0, r8
 8004e80:	d9f3      	bls.n	8004e6a <HAL_RCC_ClockConfig+0xd6>
        return HAL_TIMEOUT;
 8004e82:	2003      	movs	r0, #3
 8004e84:	e78c      	b.n	8004da0 <HAL_RCC_ClockConfig+0xc>
    else if(RCC_ClkInitStruct->SYSCLKSource == RCC_SYSCLKSOURCE_PLLCLK)
 8004e86:	2a02      	cmp	r2, #2
 8004e88:	bf0c      	ite	eq
 8004e8a:	f04f 7300 	moveq.w	r3, #33554432	@ 0x2000000
 8004e8e:	2302      	movne	r3, #2
 8004e90:	fa93 f1a3 	rbit	r1, r3
      if(__HAL_RCC_GET_FLAG(RCC_FLAG_HSIRDY) == RESET)
 8004e94:	6830      	ldr	r0, [r6, #0]
 8004e96:	fa93 f3a3 	rbit	r3, r3
 8004e9a:	2101      	movs	r1, #1
 8004e9c:	fab3 f383 	clz	r3, r3
 8004ea0:	fa01 f303 	lsl.w	r3, r1, r3
 8004ea4:	4203      	tst	r3, r0
 8004ea6:	e7d5      	b.n	8004e54 <HAL_RCC_ClockConfig+0xc0>
    __HAL_FLASH_SET_LATENCY(FLatency);
 8004ea8:	6813      	ldr	r3, [r2, #0]
 8004eaa:	f023 0307 	bic.w	r3, r3, #7
 8004eae:	432b      	orrs	r3, r5
 8004eb0:	6013      	str	r3, [r2, #0]
    if(__HAL_FLASH_GET_LATENCY() != FLatency)
 8004eb2:	6813      	ldr	r3, [r2, #0]
 8004eb4:	f003 0307 	and.w	r3, r3, #7
 8004eb8:	42ab      	cmp	r3, r5
 8004eba:	f47f af70 	bne.w	8004d9e <HAL_RCC_ClockConfig+0xa>
 8004ebe:	e782      	b.n	8004dc6 <HAL_RCC_ClockConfig+0x32>
    MODIFY_REG(RCC->CFGR, RCC_CFGR_PPRE1, RCC_ClkInitStruct->APB1CLKDivider);
 8004ec0:	686b      	ldr	r3, [r5, #4]
 8004ec2:	68e1      	ldr	r1, [r4, #12]
 8004ec4:	f423 63e0 	bic.w	r3, r3, #1792	@ 0x700
 8004ec8:	430b      	orrs	r3, r1
 8004eca:	606b      	str	r3, [r5, #4]
 8004ecc:	e780      	b.n	8004dd0 <HAL_RCC_ClockConfig+0x3c>
 8004ece:	bf00      	nop
 8004ed0:	40022000 	.word	0x40022000
 8004ed4:	40021000 	.word	0x40021000
 8004ed8:	0800c900 	.word	0x0800c900
 8004edc:	200000a8 	.word	0x200000a8
 8004ee0:	200000b0 	.word	0x200000b0

08004ee4 <HAL_RCC_GetPCLK1Freq>:
  * @retval PCLK1 frequency
  */
uint32_t HAL_RCC_GetPCLK1Freq(void)
{
  /* Get HCLK source and Compute PCLK1 frequency ---------------------------*/
  return (HAL_RCC_GetHCLKFreq() >> APBPrescTable[(RCC->CFGR & RCC_CFGR_PPRE1) >> RCC_CFGR_PPRE1_BITNUMBER]);
 8004ee4:	4b08      	ldr	r3, [pc, #32]	@ (8004f08 <HAL_RCC_GetPCLK1Freq+0x24>)
 8004ee6:	f44f 62e0 	mov.w	r2, #1792	@ 0x700
 8004eea:	685b      	ldr	r3, [r3, #4]
 8004eec:	fa92 f2a2 	rbit	r2, r2
 8004ef0:	fab2 f282 	clz	r2, r2
 8004ef4:	f403 63e0 	and.w	r3, r3, #1792	@ 0x700
 8004ef8:	40d3      	lsrs	r3, r2
 8004efa:	4a04      	ldr	r2, [pc, #16]	@ (8004f0c <HAL_RCC_GetPCLK1Freq+0x28>)
 8004efc:	5cd3      	ldrb	r3, [r2, r3]
 8004efe:	4a04      	ldr	r2, [pc, #16]	@ (8004f10 <HAL_RCC_GetPCLK1Freq+0x2c>)
 8004f00:	6810      	ldr	r0, [r2, #0]
}    
 8004f02:	40d8      	lsrs	r0, r3
 8004f04:	4770      	bx	lr
 8004f06:	bf00      	nop
 8004f08:	40021000 	.word	0x40021000
 8004f0c:	0800c8f8 	.word	0x0800c8f8
 8004f10:	200000a8 	.word	0x200000a8

08004f14 <HAL_RCC_GetPCLK2Freq>:
  * @retval PCLK2 frequency
  */
uint32_t HAL_RCC_GetPCLK2Freq(void)
{
  /* Get HCLK source and Compute PCLK2 frequency ---------------------------*/
  return (HAL_RCC_GetHCLKFreq()>> APBPrescTable[(RCC->CFGR & RCC_CFGR_PPRE2) >> RCC_CFGR_PPRE2_BITNUMBER]);
 8004f14:	4b08      	ldr	r3, [pc, #32]	@ (8004f38 <HAL_RCC_GetPCLK2Freq+0x24>)
 8004f16:	f44f 5260 	mov.w	r2, #14336	@ 0x3800
 8004f1a:	685b      	ldr	r3, [r3, #4]
 8004f1c:	fa92 f2a2 	rbit	r2, r2
 8004f20:	fab2 f282 	clz	r2, r2
 8004f24:	f403 5360 	and.w	r3, r3, #14336	@ 0x3800
 8004f28:	40d3      	lsrs	r3, r2
 8004f2a:	4a04      	ldr	r2, [pc, #16]	@ (8004f3c <HAL_RCC_GetPCLK2Freq+0x28>)
 8004f2c:	5cd3      	ldrb	r3, [r2, r3]
 8004f2e:	4a04      	ldr	r2, [pc, #16]	@ (8004f40 <HAL_RCC_GetPCLK2Freq+0x2c>)
 8004f30:	6810      	ldr	r0, [r2, #0]
} 
 8004f32:	40d8      	lsrs	r0, r3
 8004f34:	4770      	bx	lr
 8004f36:	bf00      	nop
 8004f38:	40021000 	.word	0x40021000
 8004f3c:	0800c8f8 	.word	0x0800c8f8
 8004f40:	200000a8 	.word	0x200000a8

08004f44 <HAL_RCCEx_PeriphCLKConfig>:
    
  /* Check the parameters */
  assert_param(IS_RCC_PERIPHCLOCK(PeriphClkInit->PeriphClockSelection));
  
  /*---------------------------- RTC configuration -------------------------------*/
  if(((PeriphClkInit->PeriphClockSelection) & RCC_PERIPHCLK_RTC) == (RCC_PERIPHCLK_RTC))
 8004f44:	6803      	ldr	r3, [r0, #0]
{
 8004f46:	e92d 47f3 	stmdb	sp!, {r0, r1, r4, r5, r6, r7, r8, r9, sl, lr}
  if(((PeriphClkInit->PeriphClockSelection) & RCC_PERIPHCLK_RTC) == (RCC_PERIPHCLK_RTC))
 8004f4a:	03dc      	lsls	r4, r3, #15
{
 8004f4c:	4605      	mov	r5, r0
  if(((PeriphClkInit->PeriphClockSelection) & RCC_PERIPHCLK_RTC) == (RCC_PERIPHCLK_RTC))
 8004f4e:	d521      	bpl.n	8004f94 <HAL_RCCEx_PeriphCLKConfig+0x50>


    /* As soon as function is called to change RTC clock source, activation of the 
       power domain is done. */
    /* Requires to enable write access to Backup Domain of necessary */
    if(__HAL_RCC_PWR_IS_CLK_DISABLED())
 8004f50:	4c4c      	ldr	r4, [pc, #304]	@ (8005084 <HAL_RCCEx_PeriphCLKConfig+0x140>)
 8004f52:	69e3      	ldr	r3, [r4, #28]
 8004f54:	00d8      	lsls	r0, r3, #3
 8004f56:	d43d      	bmi.n	8004fd4 <HAL_RCCEx_PeriphCLKConfig+0x90>
    {
      __HAL_RCC_PWR_CLK_ENABLE();
 8004f58:	69e3      	ldr	r3, [r4, #28]
 8004f5a:	f043 5380 	orr.w	r3, r3, #268435456	@ 0x10000000
 8004f5e:	61e3      	str	r3, [r4, #28]
 8004f60:	69e3      	ldr	r3, [r4, #28]
 8004f62:	f003 5380 	and.w	r3, r3, #268435456	@ 0x10000000
 8004f66:	9301      	str	r3, [sp, #4]
 8004f68:	9b01      	ldr	r3, [sp, #4]
      pwrclkchanged = SET;
 8004f6a:	2601      	movs	r6, #1
    }
    
    if(HAL_IS_BIT_CLR(PWR->CR, PWR_CR_DBP))
 8004f6c:	4f46      	ldr	r7, [pc, #280]	@ (8005088 <HAL_RCCEx_PeriphCLKConfig+0x144>)
 8004f6e:	683b      	ldr	r3, [r7, #0]
 8004f70:	05d9      	lsls	r1, r3, #23
 8004f72:	d531      	bpl.n	8004fd8 <HAL_RCCEx_PeriphCLKConfig+0x94>
        }
      }
    }
    
    /* Reset the Backup domain only if the RTC Clock source selection is modified from reset value */ 
    temp_reg = (RCC->BDCR & RCC_BDCR_RTCSEL);
 8004f74:	6a23      	ldr	r3, [r4, #32]
    if((temp_reg != 0x00000000U) && (temp_reg != (PeriphClkInit->RTCClockSelection & RCC_BDCR_RTCSEL)))
 8004f76:	686a      	ldr	r2, [r5, #4]
 8004f78:	f413 7340 	ands.w	r3, r3, #768	@ 0x300
 8004f7c:	d140      	bne.n	8005000 <HAL_RCCEx_PeriphCLKConfig+0xbc>
            return HAL_TIMEOUT;
          }      
        }  
      }
    }
    __HAL_RCC_RTC_CONFIG(PeriphClkInit->RTCClockSelection); 
 8004f7e:	6a23      	ldr	r3, [r4, #32]
 8004f80:	686a      	ldr	r2, [r5, #4]
 8004f82:	f423 7340 	bic.w	r3, r3, #768	@ 0x300
 8004f86:	4313      	orrs	r3, r2
 8004f88:	6223      	str	r3, [r4, #32]

    /* Require to disable power clock if necessary */
    if(pwrclkchanged == SET)
 8004f8a:	b11e      	cbz	r6, 8004f94 <HAL_RCCEx_PeriphCLKConfig+0x50>
    {
      __HAL_RCC_PWR_CLK_DISABLE();
 8004f8c:	69e3      	ldr	r3, [r4, #28]
 8004f8e:	f023 5380 	bic.w	r3, r3, #268435456	@ 0x10000000
 8004f92:	61e3      	str	r3, [r4, #28]
    }
  }

  /*------------------------------- USART1 Configuration ------------------------*/
  if(((PeriphClkInit->PeriphClockSelection) & RCC_PERIPHCLK_USART1) == RCC_PERIPHCLK_USART1)
 8004f94:	682a      	ldr	r2, [r5, #0]
 8004f96:	07d4      	lsls	r4, r2, #31
 8004f98:	d506      	bpl.n	8004fa8 <HAL_RCCEx_PeriphCLKConfig+0x64>
  {
    /* Check the parameters */
    assert_param(IS_RCC_USART1CLKSOURCE(PeriphClkInit->Usart1ClockSelection));
    
    /* Configure the USART1 clock source */
    __HAL_RCC_USART1_CONFIG(PeriphClkInit->Usart1ClockSelection);
 8004f9a:	493a      	ldr	r1, [pc, #232]	@ (8005084 <HAL_RCCEx_PeriphCLKConfig+0x140>)
 8004f9c:	68a8      	ldr	r0, [r5, #8]
 8004f9e:	6b0b      	ldr	r3, [r1, #48]	@ 0x30
 8004fa0:	f023 0303 	bic.w	r3, r3, #3
 8004fa4:	4303      	orrs	r3, r0
 8004fa6:	630b      	str	r3, [r1, #48]	@ 0x30
    __HAL_RCC_USART3_CONFIG(PeriphClkInit->Usart3ClockSelection);
  }
#endif /* RCC_CFGR3_USART3SW */

  /*------------------------------ I2C1 Configuration ------------------------*/ 
  if(((PeriphClkInit->PeriphClockSelection) & RCC_PERIPHCLK_I2C1) == RCC_PERIPHCLK_I2C1)
 8004fa8:	0690      	lsls	r0, r2, #26
 8004faa:	d506      	bpl.n	8004fba <HAL_RCCEx_PeriphCLKConfig+0x76>
  {
    /* Check the parameters */
    assert_param(IS_RCC_I2C1CLKSOURCE(PeriphClkInit->I2c1ClockSelection));
    
    /* Configure the I2C1 clock source */
    __HAL_RCC_I2C1_CONFIG(PeriphClkInit->I2c1ClockSelection);
 8004fac:	4935      	ldr	r1, [pc, #212]	@ (8005084 <HAL_RCCEx_PeriphCLKConfig+0x140>)
 8004fae:	68e8      	ldr	r0, [r5, #12]
 8004fb0:	6b0b      	ldr	r3, [r1, #48]	@ 0x30
 8004fb2:	f023 0310 	bic.w	r3, r3, #16
 8004fb6:	4303      	orrs	r3, r0
 8004fb8:	630b      	str	r3, [r1, #48]	@ 0x30
#if defined(STM32F302xE) || defined(STM32F303xE) || defined(STM32F398xx)\
 || defined(STM32F302xC) || defined(STM32F303xC) || defined(STM32F358xx)\
 || defined(STM32F303x8) || defined(STM32F334x8) || defined(STM32F328xx)
      
  /*------------------------------ ADC1 & ADC2 clock Configuration -------------*/ 
  if(((PeriphClkInit->PeriphClockSelection) & RCC_PERIPHCLK_ADC12) == RCC_PERIPHCLK_ADC12)
 8004fba:	0611      	lsls	r1, r2, #24
 8004fbc:	d506      	bpl.n	8004fcc <HAL_RCCEx_PeriphCLKConfig+0x88>
  {
    /* Check the parameters */
    assert_param(IS_RCC_ADC12PLLCLK_DIV(PeriphClkInit->Adc12ClockSelection));
    
    /* Configure the ADC12 clock source */
    __HAL_RCC_ADC12_CONFIG(PeriphClkInit->Adc12ClockSelection);
 8004fbe:	4931      	ldr	r1, [pc, #196]	@ (8005084 <HAL_RCCEx_PeriphCLKConfig+0x140>)
 8004fc0:	6928      	ldr	r0, [r5, #16]
 8004fc2:	6acb      	ldr	r3, [r1, #44]	@ 0x2c
 8004fc4:	f423 73f8 	bic.w	r3, r3, #496	@ 0x1f0
 8004fc8:	4303      	orrs	r3, r0
 8004fca:	62cb      	str	r3, [r1, #44]	@ 0x2c
 || defined(STM32F302xC) || defined(STM32F303xC) || defined(STM32F358xx)\
 || defined(STM32F303x8) || defined(STM32F334x8) || defined(STM32F328xx)\
 || defined(STM32F301x8) || defined(STM32F302x8) || defined(STM32F318xx)

  /*------------------------------ TIM1 clock Configuration ----------------*/ 
  if(((PeriphClkInit->PeriphClockSelection) & RCC_PERIPHCLK_TIM1) == RCC_PERIPHCLK_TIM1)
 8004fcc:	04d3      	lsls	r3, r2, #19
 8004fce:	d450      	bmi.n	8005072 <HAL_RCCEx_PeriphCLKConfig+0x12e>
    __HAL_RCC_TIM20_CONFIG(PeriphClkInit->Tim20ClockSelection);
  }
#endif /* STM32F303xE || STM32F398xx */  

  
  return HAL_OK;
 8004fd0:	2000      	movs	r0, #0
 8004fd2:	e012      	b.n	8004ffa <HAL_RCCEx_PeriphCLKConfig+0xb6>
  FlagStatus       pwrclkchanged = RESET;
 8004fd4:	2600      	movs	r6, #0
 8004fd6:	e7c9      	b.n	8004f6c <HAL_RCCEx_PeriphCLKConfig+0x28>
      SET_BIT(PWR->CR, PWR_CR_DBP);
 8004fd8:	683b      	ldr	r3, [r7, #0]
 8004fda:	f443 7380 	orr.w	r3, r3, #256	@ 0x100
 8004fde:	603b      	str	r3, [r7, #0]
      tickstart = HAL_GetTick();
 8004fe0:	f7fd fdde 	bl	8002ba0 <HAL_GetTick>
 8004fe4:	4680      	mov	r8, r0
      while(HAL_IS_BIT_CLR(PWR->CR, PWR_CR_DBP))
 8004fe6:	683b      	ldr	r3, [r7, #0]
 8004fe8:	05da      	lsls	r2, r3, #23
 8004fea:	d4c3      	bmi.n	8004f74 <HAL_RCCEx_PeriphCLKConfig+0x30>
          if((HAL_GetTick() - tickstart) > RCC_DBP_TIMEOUT_VALUE)
 8004fec:	f7fd fdd8 	bl	8002ba0 <HAL_GetTick>
 8004ff0:	eba0 0008 	sub.w	r0, r0, r8
 8004ff4:	2864      	cmp	r0, #100	@ 0x64
 8004ff6:	d9f6      	bls.n	8004fe6 <HAL_RCCEx_PeriphCLKConfig+0xa2>
          return HAL_TIMEOUT;
 8004ff8:	2003      	movs	r0, #3
}
 8004ffa:	b002      	add	sp, #8
 8004ffc:	e8bd 87f0 	ldmia.w	sp!, {r4, r5, r6, r7, r8, r9, sl, pc}
    if((temp_reg != 0x00000000U) && (temp_reg != (PeriphClkInit->RTCClockSelection & RCC_BDCR_RTCSEL)))
 8005000:	f402 7240 	and.w	r2, r2, #768	@ 0x300
 8005004:	429a      	cmp	r2, r3
 8005006:	d0ba      	beq.n	8004f7e <HAL_RCCEx_PeriphCLKConfig+0x3a>
      temp_reg = (RCC->BDCR & ~(RCC_BDCR_RTCSEL));
 8005008:	6a21      	ldr	r1, [r4, #32]
 800500a:	f44f 3380 	mov.w	r3, #65536	@ 0x10000
 800500e:	f421 7040 	bic.w	r0, r1, #768	@ 0x300
 8005012:	fa93 f2a3 	rbit	r2, r3
      __HAL_RCC_BACKUPRESET_FORCE();
 8005016:	f8df c074 	ldr.w	ip, [pc, #116]	@ 800508c <HAL_RCCEx_PeriphCLKConfig+0x148>
 800501a:	fab2 f282 	clz	r2, r2
 800501e:	4462      	add	r2, ip
 8005020:	0092      	lsls	r2, r2, #2
 8005022:	2701      	movs	r7, #1
 8005024:	6017      	str	r7, [r2, #0]
 8005026:	fa93 f3a3 	rbit	r3, r3
      __HAL_RCC_BACKUPRESET_RELEASE();
 800502a:	fab3 f383 	clz	r3, r3
 800502e:	4463      	add	r3, ip
 8005030:	009b      	lsls	r3, r3, #2
 8005032:	2200      	movs	r2, #0
 8005034:	601a      	str	r2, [r3, #0]
      if (HAL_IS_BIT_SET(temp_reg, RCC_BDCR_LSEON))
 8005036:	07cb      	lsls	r3, r1, #31
      RCC->BDCR = temp_reg;
 8005038:	6220      	str	r0, [r4, #32]
      if (HAL_IS_BIT_SET(temp_reg, RCC_BDCR_LSEON))
 800503a:	d5a0      	bpl.n	8004f7e <HAL_RCCEx_PeriphCLKConfig+0x3a>
        tickstart = HAL_GetTick();
 800503c:	f7fd fdb0 	bl	8002ba0 <HAL_GetTick>
 8005040:	f04f 0802 	mov.w	r8, #2
 8005044:	4681      	mov	r9, r0
            if((HAL_GetTick() - tickstart) > RCC_LSE_TIMEOUT_VALUE)
 8005046:	f241 3a88 	movw	sl, #5000	@ 0x1388
 800504a:	fa98 f3a8 	rbit	r3, r8
 800504e:	fa98 f3a8 	rbit	r3, r8
        while(__HAL_RCC_GET_FLAG(RCC_FLAG_LSERDY) == RESET)
 8005052:	6a22      	ldr	r2, [r4, #32]
 8005054:	fa98 f3a8 	rbit	r3, r8
 8005058:	fab3 f383 	clz	r3, r3
 800505c:	fa07 f303 	lsl.w	r3, r7, r3
 8005060:	4213      	tst	r3, r2
 8005062:	d18c      	bne.n	8004f7e <HAL_RCCEx_PeriphCLKConfig+0x3a>
            if((HAL_GetTick() - tickstart) > RCC_LSE_TIMEOUT_VALUE)
 8005064:	f7fd fd9c 	bl	8002ba0 <HAL_GetTick>
 8005068:	eba0 0009 	sub.w	r0, r0, r9
 800506c:	4550      	cmp	r0, sl
 800506e:	d9ec      	bls.n	800504a <HAL_RCCEx_PeriphCLKConfig+0x106>
 8005070:	e7c2      	b.n	8004ff8 <HAL_RCCEx_PeriphCLKConfig+0xb4>
    __HAL_RCC_TIM1_CONFIG(PeriphClkInit->Tim1ClockSelection);
 8005072:	4a04      	ldr	r2, [pc, #16]	@ (8005084 <HAL_RCCEx_PeriphCLKConfig+0x140>)
 8005074:	6969      	ldr	r1, [r5, #20]
 8005076:	6b13      	ldr	r3, [r2, #48]	@ 0x30
 8005078:	f423 7380 	bic.w	r3, r3, #256	@ 0x100
 800507c:	430b      	orrs	r3, r1
 800507e:	6313      	str	r3, [r2, #48]	@ 0x30
 8005080:	e7a6      	b.n	8004fd0 <HAL_RCCEx_PeriphCLKConfig+0x8c>
 8005082:	bf00      	nop
 8005084:	40021000 	.word	0x40021000
 8005088:	40007000 	.word	0x40007000
 800508c:	10908100 	.word	0x10908100

08005090 <UART_EndRxTransfer>:
  * @retval None
  */
static void UART_EndRxTransfer(UART_HandleTypeDef *huart)
{
  /* Disable RXNE, PE and ERR (Frame error, noise error, overrun error) interrupts */
  ATOMIC_CLEAR_BIT(huart->Instance->CR1, (USART_CR1_RXNEIE | USART_CR1_PEIE));
 8005090:	6802      	ldr	r2, [r0, #0]
 */
__STATIC_FORCEINLINE uint32_t __LDREXW(volatile uint32_t *addr)
{
    uint32_t result;

   __ASM volatile ("ldrex %0, %1" : "=r" (result) : "Q" (*addr) );
 8005092:	e852 3f00 	ldrex	r3, [r2]
 8005096:	f423 7390 	bic.w	r3, r3, #288	@ 0x120
 */
__STATIC_FORCEINLINE uint32_t __STREXW(uint32_t value, volatile uint32_t *addr)
{
   uint32_t result;

   __ASM volatile ("strex %0, %2, %1" : "=&r" (result), "=Q" (*addr) : "r" (value) );
 800509a:	e842 3100 	strex	r1, r3, [r2]
   return(result);
 800509e:	6802      	ldr	r2, [r0, #0]
 80050a0:	2900      	cmp	r1, #0
 80050a2:	d1f5      	bne.n	8005090 <UART_EndRxTransfer>
   __ASM volatile ("ldrex %0, %1" : "=r" (result) : "Q" (*addr) );
 80050a4:	f102 0308 	add.w	r3, r2, #8
 80050a8:	e853 3f00 	ldrex	r3, [r3]
  ATOMIC_CLEAR_BIT(huart->Instance->CR3, USART_CR3_EIE);
 80050ac:	f023 0301 	bic.w	r3, r3, #1
   __ASM volatile ("strex %0, %2, %1" : "=&r" (result), "=Q" (*addr) : "r" (value) );
 80050b0:	f102 0c08 	add.w	ip, r2, #8
 80050b4:	e84c 3100 	strex	r1, r3, [ip]
 80050b8:	2900      	cmp	r1, #0
 80050ba:	d1f3      	bne.n	80050a4 <UART_EndRxTransfer+0x14>

  /* In case of reception waiting for IDLE event, disable also the IDLE IE interrupt source */
  if (huart->ReceptionType == HAL_UART_RECEPTION_TOIDLE)
 80050bc:	6e03      	ldr	r3, [r0, #96]	@ 0x60
 80050be:	2b01      	cmp	r3, #1
 80050c0:	d107      	bne.n	80050d2 <UART_EndRxTransfer+0x42>
   __ASM volatile ("ldrex %0, %1" : "=r" (result) : "Q" (*addr) );
 80050c2:	e852 3f00 	ldrex	r3, [r2]
  {
    ATOMIC_CLEAR_BIT(huart->Instance->CR1, USART_CR1_IDLEIE);
 80050c6:	f023 0310 	bic.w	r3, r3, #16
   __ASM volatile ("strex %0, %2, %1" : "=&r" (result), "=Q" (*addr) : "r" (value) );
 80050ca:	e842 3100 	strex	r1, r3, [r2]
 80050ce:	2900      	cmp	r1, #0
 80050d0:	d1f7      	bne.n	80050c2 <UART_EndRxTransfer+0x32>
  }

  /* At end of Rx process, restore huart->RxState to Ready */
  huart->RxState = HAL_UART_STATE_READY;
 80050d2:	2320      	movs	r3, #32
 80050d4:	f8c0 3080 	str.w	r3, [r0, #128]	@ 0x80
  huart->ReceptionType = HAL_UART_RECEPTION_STANDARD;
 80050d8:	2300      	movs	r3, #0
 80050da:	6603      	str	r3, [r0, #96]	@ 0x60

  /* Reset RxIsr function pointer */
  huart->RxISR = NULL;
 80050dc:	6683      	str	r3, [r0, #104]	@ 0x68
}
 80050de:	4770      	bx	lr

080050e0 <HAL_UART_Transmit_DMA>:
{
 80050e0:	b5f8      	push	{r3, r4, r5, r6, r7, lr}
 80050e2:	4604      	mov	r4, r0
 80050e4:	4613      	mov	r3, r2
  if (huart->gState == HAL_UART_STATE_READY)
 80050e6:	6fe5      	ldr	r5, [r4, #124]	@ 0x7c
 80050e8:	2d20      	cmp	r5, #32
 80050ea:	d130      	bne.n	800514e <HAL_UART_Transmit_DMA+0x6e>
    if ((pData == NULL) || (Size == 0U))
 80050ec:	b1e1      	cbz	r1, 8005128 <HAL_UART_Transmit_DMA+0x48>
 80050ee:	b1da      	cbz	r2, 8005128 <HAL_UART_Transmit_DMA+0x48>
    if (huart->hdmatx != NULL)
 80050f0:	6f20      	ldr	r0, [r4, #112]	@ 0x70
    huart->TxXferCount = Size;
 80050f2:	f8a4 2052 	strh.w	r2, [r4, #82]	@ 0x52
    huart->TxXferSize  = Size;
 80050f6:	f8a4 2050 	strh.w	r2, [r4, #80]	@ 0x50
    huart->ErrorCode = HAL_UART_ERROR_NONE;
 80050fa:	2600      	movs	r6, #0
    huart->gState = HAL_UART_STATE_BUSY_TX;
 80050fc:	2221      	movs	r2, #33	@ 0x21
    huart->ErrorCode = HAL_UART_ERROR_NONE;
 80050fe:	f8c4 6084 	str.w	r6, [r4, #132]	@ 0x84
    huart->pTxBuffPtr  = pData;
 8005102:	64e1      	str	r1, [r4, #76]	@ 0x4c
    huart->gState = HAL_UART_STATE_BUSY_TX;
 8005104:	67e2      	str	r2, [r4, #124]	@ 0x7c
      if (HAL_DMA_Start_IT(huart->hdmatx, (uint32_t)huart->pTxBuffPtr, (uint32_t)&huart->Instance->TDR, Size) != HAL_OK)
 8005106:	6822      	ldr	r2, [r4, #0]
    if (huart->hdmatx != NULL)
 8005108:	b180      	cbz	r0, 800512c <HAL_UART_Transmit_DMA+0x4c>
      huart->hdmatx->XferCpltCallback = UART_DMATransmitCplt;
 800510a:	4f12      	ldr	r7, [pc, #72]	@ (8005154 <HAL_UART_Transmit_DMA+0x74>)
 800510c:	6287      	str	r7, [r0, #40]	@ 0x28
      huart->hdmatx->XferHalfCpltCallback = UART_DMATxHalfCplt;
 800510e:	4f12      	ldr	r7, [pc, #72]	@ (8005158 <HAL_UART_Transmit_DMA+0x78>)
 8005110:	62c7      	str	r7, [r0, #44]	@ 0x2c
      huart->hdmatx->XferErrorCallback = UART_DMAError;
 8005112:	4f12      	ldr	r7, [pc, #72]	@ (800515c <HAL_UART_Transmit_DMA+0x7c>)
      if (HAL_DMA_Start_IT(huart->hdmatx, (uint32_t)huart->pTxBuffPtr, (uint32_t)&huart->Instance->TDR, Size) != HAL_OK)
 8005114:	3228      	adds	r2, #40	@ 0x28
      huart->hdmatx->XferAbortCallback = NULL;
 8005116:	e9c0 760c 	strd	r7, r6, [r0, #48]	@ 0x30
      if (HAL_DMA_Start_IT(huart->hdmatx, (uint32_t)huart->pTxBuffPtr, (uint32_t)&huart->Instance->TDR, Size) != HAL_OK)
 800511a:	f7fd feb9 	bl	8002e90 <HAL_DMA_Start_IT>
 800511e:	b128      	cbz	r0, 800512c <HAL_UART_Transmit_DMA+0x4c>
        huart->ErrorCode = HAL_UART_ERROR_DMA;
 8005120:	2310      	movs	r3, #16
 8005122:	f8c4 3084 	str.w	r3, [r4, #132]	@ 0x84
        huart->gState = HAL_UART_STATE_READY;
 8005126:	67e5      	str	r5, [r4, #124]	@ 0x7c
      return HAL_ERROR;
 8005128:	2001      	movs	r0, #1
}
 800512a:	bdf8      	pop	{r3, r4, r5, r6, r7, pc}
    __HAL_UART_CLEAR_FLAG(huart, UART_CLEAR_TCF);
 800512c:	6823      	ldr	r3, [r4, #0]
 800512e:	2240      	movs	r2, #64	@ 0x40
 8005130:	621a      	str	r2, [r3, #32]
 8005132:	6822      	ldr	r2, [r4, #0]
   __ASM volatile ("ldrex %0, %1" : "=r" (result) : "Q" (*addr) );
 8005134:	f102 0308 	add.w	r3, r2, #8
 8005138:	e853 3f00 	ldrex	r3, [r3]
    ATOMIC_SET_BIT(huart->Instance->CR3, USART_CR3_DMAT);
 800513c:	f043 0380 	orr.w	r3, r3, #128	@ 0x80
   __ASM volatile ("strex %0, %2, %1" : "=&r" (result), "=Q" (*addr) : "r" (value) );
 8005140:	f102 0108 	add.w	r1, r2, #8
 8005144:	e841 3000 	strex	r0, r3, [r1]
 8005148:	2800      	cmp	r0, #0
 800514a:	d1f3      	bne.n	8005134 <HAL_UART_Transmit_DMA+0x54>
 800514c:	e7ed      	b.n	800512a <HAL_UART_Transmit_DMA+0x4a>
    return HAL_BUSY;
 800514e:	2002      	movs	r0, #2
 8005150:	e7eb      	b.n	800512a <HAL_UART_Transmit_DMA+0x4a>
 8005152:	bf00      	nop
 8005154:	08005161 	.word	0x08005161
 8005158:	080051a7 	.word	0x080051a7
 800515c:	080051b5 	.word	0x080051b5

08005160 <UART_DMATransmitCplt>:
  * @brief DMA UART transmit process complete callback.
  * @param hdma DMA handle.
  * @retval None
  */
static void UART_DMATransmitCplt(DMA_HandleTypeDef *hdma)
{
 8005160:	b508      	push	{r3, lr}
 8005162:	4603      	mov	r3, r0
  UART_HandleTypeDef *huart = (UART_HandleTypeDef *)(hdma->Parent);
 8005164:	6a40      	ldr	r0, [r0, #36]	@ 0x24

  /* DMA Normal mode */
  if (hdma->Init.Mode != DMA_CIRCULAR)
 8005166:	699b      	ldr	r3, [r3, #24]
 8005168:	2b20      	cmp	r3, #32
 800516a:	d018      	beq.n	800519e <UART_DMATransmitCplt+0x3e>
  {
    huart->TxXferCount = 0U;
 800516c:	2300      	movs	r3, #0
 800516e:	f8a0 3052 	strh.w	r3, [r0, #82]	@ 0x52

    /* Disable the DMA transfer for transmit request by resetting the DMAT bit
       in the UART CR3 register */
    ATOMIC_CLEAR_BIT(huart->Instance->CR3, USART_CR3_DMAT);
 8005172:	6802      	ldr	r2, [r0, #0]
   __ASM volatile ("ldrex %0, %1" : "=r" (result) : "Q" (*addr) );
 8005174:	f102 0308 	add.w	r3, r2, #8
 8005178:	e853 3f00 	ldrex	r3, [r3]
 800517c:	f023 0380 	bic.w	r3, r3, #128	@ 0x80
   __ASM volatile ("strex %0, %2, %1" : "=&r" (result), "=Q" (*addr) : "r" (value) );
 8005180:	3208      	adds	r2, #8
 8005182:	e842 3100 	strex	r1, r3, [r2]
   return(result);
 8005186:	6802      	ldr	r2, [r0, #0]
 8005188:	2900      	cmp	r1, #0
 800518a:	d1f2      	bne.n	8005172 <UART_DMATransmitCplt+0x12>
   __ASM volatile ("ldrex %0, %1" : "=r" (result) : "Q" (*addr) );
 800518c:	e852 3f00 	ldrex	r3, [r2]

    /* Enable the UART Transmit Complete Interrupt */
    ATOMIC_SET_BIT(huart->Instance->CR1, USART_CR1_TCIE);
 8005190:	f043 0340 	orr.w	r3, r3, #64	@ 0x40
   __ASM volatile ("strex %0, %2, %1" : "=&r" (result), "=Q" (*addr) : "r" (value) );
 8005194:	e842 3100 	strex	r1, r3, [r2]
 8005198:	2900      	cmp	r1, #0
 800519a:	d1f7      	bne.n	800518c <UART_DMATransmitCplt+0x2c>
#else
    /*Call legacy weak Tx complete callback*/
    HAL_UART_TxCpltCallback(huart);
#endif /* USE_HAL_UART_REGISTER_CALLBACKS */
  }
}
 800519c:	bd08      	pop	{r3, pc}
    HAL_UART_TxCpltCallback(huart);
 800519e:	f7fc f921 	bl	80013e4 <HAL_UART_TxCpltCallback>
}
 80051a2:	e7fb      	b.n	800519c <UART_DMATransmitCplt+0x3c>

080051a4 <HAL_UART_TxHalfCpltCallback>:
__weak void HAL_UART_TxHalfCpltCallback(UART_HandleTypeDef *huart)
 80051a4:	4770      	bx	lr

080051a6 <UART_DMATxHalfCplt>:
  * @brief DMA UART transmit process half complete callback.
  * @param hdma DMA handle.
  * @retval None
  */
static void UART_DMATxHalfCplt(DMA_HandleTypeDef *hdma)
{
 80051a6:	b508      	push	{r3, lr}
#if (USE_HAL_UART_REGISTER_CALLBACKS == 1)
  /*Call registered Tx Half complete callback*/
  huart->TxHalfCpltCallback(huart);
#else
  /*Call legacy weak Tx Half complete callback*/
  HAL_UART_TxHalfCpltCallback(huart);
 80051a8:	6a40      	ldr	r0, [r0, #36]	@ 0x24
 80051aa:	f7ff fffb 	bl	80051a4 <HAL_UART_TxHalfCpltCallback>
#endif /* USE_HAL_UART_REGISTER_CALLBACKS */
}
 80051ae:	bd08      	pop	{r3, pc}

080051b0 <HAL_UART_RxCpltCallback>:
__weak void HAL_UART_RxCpltCallback(UART_HandleTypeDef *huart)
 80051b0:	4770      	bx	lr

080051b2 <HAL_UART_RxHalfCpltCallback>:
__weak void HAL_UART_RxHalfCpltCallback(UART_HandleTypeDef *huart)
 80051b2:	4770      	bx	lr

080051b4 <UART_DMAError>:
  * @param hdma DMA handle.
  * @retval None
  */
static void UART_DMAError(DMA_HandleTypeDef *hdma)
{
  UART_HandleTypeDef *huart = (UART_HandleTypeDef *)(hdma->Parent);
 80051b4:	6a40      	ldr	r0, [r0, #36]	@ 0x24

  const HAL_UART_StateTypeDef gstate = huart->gState;
  const HAL_UART_StateTypeDef rxstate = huart->RxState;

  /* Stop UART DMA Tx request if ongoing */
  if ((HAL_IS_BIT_SET(huart->Instance->CR3, USART_CR3_DMAT)) &&
 80051b6:	6803      	ldr	r3, [r0, #0]
  const HAL_UART_StateTypeDef gstate = huart->gState;
 80051b8:	6fc2      	ldr	r2, [r0, #124]	@ 0x7c
  const HAL_UART_StateTypeDef rxstate = huart->RxState;
 80051ba:	f8d0 1080 	ldr.w	r1, [r0, #128]	@ 0x80
{
 80051be:	b510      	push	{r4, lr}
  if ((HAL_IS_BIT_SET(huart->Instance->CR3, USART_CR3_DMAT)) &&
 80051c0:	689c      	ldr	r4, [r3, #8]
 80051c2:	0624      	lsls	r4, r4, #24
 80051c4:	d50e      	bpl.n	80051e4 <UART_DMAError+0x30>
 80051c6:	2a21      	cmp	r2, #33	@ 0x21
 80051c8:	d10c      	bne.n	80051e4 <UART_DMAError+0x30>
      (gstate == HAL_UART_STATE_BUSY_TX))
  {
    huart->TxXferCount = 0U;
 80051ca:	2200      	movs	r2, #0
 80051cc:	f8a0 2052 	strh.w	r2, [r0, #82]	@ 0x52
   __ASM volatile ("ldrex %0, %1" : "=r" (result) : "Q" (*addr) );
 80051d0:	e853 2f00 	ldrex	r2, [r3]
  ATOMIC_CLEAR_BIT(huart->Instance->CR1, (USART_CR1_TXEIE | USART_CR1_TCIE));
 80051d4:	f022 02c0 	bic.w	r2, r2, #192	@ 0xc0
   __ASM volatile ("strex %0, %2, %1" : "=&r" (result), "=Q" (*addr) : "r" (value) );
 80051d8:	e843 2400 	strex	r4, r2, [r3]
 80051dc:	2c00      	cmp	r4, #0
 80051de:	d1f7      	bne.n	80051d0 <UART_DMAError+0x1c>
  huart->gState = HAL_UART_STATE_READY;
 80051e0:	2220      	movs	r2, #32
 80051e2:	67c2      	str	r2, [r0, #124]	@ 0x7c
    UART_EndTxTransfer(huart);
  }

  /* Stop UART DMA Rx request if ongoing */
  if ((HAL_IS_BIT_SET(huart->Instance->CR3, USART_CR3_DMAR)) &&
 80051e4:	689b      	ldr	r3, [r3, #8]
 80051e6:	065b      	lsls	r3, r3, #25
 80051e8:	d506      	bpl.n	80051f8 <UART_DMAError+0x44>
 80051ea:	2922      	cmp	r1, #34	@ 0x22
 80051ec:	d104      	bne.n	80051f8 <UART_DMAError+0x44>
      (rxstate == HAL_UART_STATE_BUSY_RX))
  {
    huart->RxXferCount = 0U;
 80051ee:	2300      	movs	r3, #0
 80051f0:	f8a0 305a 	strh.w	r3, [r0, #90]	@ 0x5a
    UART_EndRxTransfer(huart);
 80051f4:	f7ff ff4c 	bl	8005090 <UART_EndRxTransfer>
  }

  huart->ErrorCode |= HAL_UART_ERROR_DMA;
 80051f8:	f8d0 3084 	ldr.w	r3, [r0, #132]	@ 0x84
 80051fc:	f043 0310 	orr.w	r3, r3, #16
 8005200:	f8c0 3084 	str.w	r3, [r0, #132]	@ 0x84
#if (USE_HAL_UART_REGISTER_CALLBACKS == 1)
  /*Call registered error callback*/
  huart->ErrorCallback(huart);
#else
  /*Call legacy weak error callback*/
  HAL_UART_ErrorCallback(huart);
 8005204:	f7fc f8c0 	bl	8001388 <HAL_UART_ErrorCallback>
#endif /* USE_HAL_UART_REGISTER_CALLBACKS */
}
 8005208:	bd10      	pop	{r4, pc}

0800520a <UART_DMAAbortOnError>:
  *         (To be called at end of DMA Abort procedure following error occurrence).
  * @param  hdma DMA handle.
  * @retval None
  */
static void UART_DMAAbortOnError(DMA_HandleTypeDef *hdma)
{
 800520a:	b508      	push	{r3, lr}
  UART_HandleTypeDef *huart = (UART_HandleTypeDef *)(hdma->Parent);
 800520c:	6a40      	ldr	r0, [r0, #36]	@ 0x24
  huart->RxXferCount = 0U;
 800520e:	2300      	movs	r3, #0
 8005210:	f8a0 305a 	strh.w	r3, [r0, #90]	@ 0x5a
  huart->TxXferCount = 0U;
 8005214:	f8a0 3052 	strh.w	r3, [r0, #82]	@ 0x52
#if (USE_HAL_UART_REGISTER_CALLBACKS == 1)
  /*Call registered error callback*/
  huart->ErrorCallback(huart);
#else
  /*Call legacy weak error callback*/
  HAL_UART_ErrorCallback(huart);
 8005218:	f7fc f8b6 	bl	8001388 <HAL_UART_ErrorCallback>
#endif /* USE_HAL_UART_REGISTER_CALLBACKS */
}
 800521c:	bd08      	pop	{r3, pc}
	...

08005220 <HAL_UART_IRQHandler>:
  uint32_t isrflags   = READ_REG(huart->Instance->ISR);
 8005220:	6803      	ldr	r3, [r0, #0]
 8005222:	69da      	ldr	r2, [r3, #28]
  uint32_t cr1its     = READ_REG(huart->Instance->CR1);
 8005224:	6819      	ldr	r1, [r3, #0]
{
 8005226:	b570      	push	{r4, r5, r6, lr}
  if (errorflags == 0U)
 8005228:	f640 060f 	movw	r6, #2063	@ 0x80f
 800522c:	4232      	tst	r2, r6
  uint32_t cr3its     = READ_REG(huart->Instance->CR3);
 800522e:	689d      	ldr	r5, [r3, #8]
{
 8005230:	4604      	mov	r4, r0
  if (errorflags == 0U)
 8005232:	d10b      	bne.n	800524c <HAL_UART_IRQHandler+0x2c>
    if (((isrflags & USART_ISR_RXNE) != 0U)
 8005234:	0696      	lsls	r6, r2, #26
 8005236:	f140 8088 	bpl.w	800534a <HAL_UART_IRQHandler+0x12a>
        && ((cr1its & USART_CR1_RXNEIE) != 0U))
 800523a:	068e      	lsls	r6, r1, #26
 800523c:	f140 8085 	bpl.w	800534a <HAL_UART_IRQHandler+0x12a>
      if (huart->RxISR != NULL)
 8005240:	6e83      	ldr	r3, [r0, #104]	@ 0x68
 8005242:	2b00      	cmp	r3, #0
 8005244:	d07b      	beq.n	800533e <HAL_UART_IRQHandler+0x11e>
}
 8005246:	e8bd 4070 	ldmia.w	sp!, {r4, r5, r6, lr}
      huart->TxISR(huart);
 800524a:	4718      	bx	r3
          || ((cr1its & (USART_CR1_RXNEIE | USART_CR1_PEIE | USART_CR1_RTOIE)) != 0U)))
 800524c:	4e9a      	ldr	r6, [pc, #616]	@ (80054b8 <HAL_UART_IRQHandler+0x298>)
      && (((cr3its & USART_CR3_EIE) != 0U)
 800524e:	f005 0001 	and.w	r0, r5, #1
          || ((cr1its & (USART_CR1_RXNEIE | USART_CR1_PEIE | USART_CR1_RTOIE)) != 0U)))
 8005252:	400e      	ands	r6, r1
 8005254:	4306      	orrs	r6, r0
 8005256:	d078      	beq.n	800534a <HAL_UART_IRQHandler+0x12a>
    if (((isrflags & USART_ISR_PE) != 0U) && ((cr1its & USART_CR1_PEIE) != 0U))
 8005258:	07d5      	lsls	r5, r2, #31
 800525a:	d509      	bpl.n	8005270 <HAL_UART_IRQHandler+0x50>
 800525c:	05ce      	lsls	r6, r1, #23
 800525e:	d507      	bpl.n	8005270 <HAL_UART_IRQHandler+0x50>
      __HAL_UART_CLEAR_FLAG(huart, UART_CLEAR_PEF);
 8005260:	2501      	movs	r5, #1
 8005262:	621d      	str	r5, [r3, #32]
      huart->ErrorCode |= HAL_UART_ERROR_PE;
 8005264:	f8d4 5084 	ldr.w	r5, [r4, #132]	@ 0x84
 8005268:	f045 0501 	orr.w	r5, r5, #1
 800526c:	f8c4 5084 	str.w	r5, [r4, #132]	@ 0x84
    if (((isrflags & USART_ISR_FE) != 0U) && ((cr3its & USART_CR3_EIE) != 0U))
 8005270:	0795      	lsls	r5, r2, #30
 8005272:	d508      	bpl.n	8005286 <HAL_UART_IRQHandler+0x66>
 8005274:	b138      	cbz	r0, 8005286 <HAL_UART_IRQHandler+0x66>
      __HAL_UART_CLEAR_FLAG(huart, UART_CLEAR_FEF);
 8005276:	2502      	movs	r5, #2
 8005278:	621d      	str	r5, [r3, #32]
      huart->ErrorCode |= HAL_UART_ERROR_FE;
 800527a:	f8d4 5084 	ldr.w	r5, [r4, #132]	@ 0x84
 800527e:	f045 0504 	orr.w	r5, r5, #4
 8005282:	f8c4 5084 	str.w	r5, [r4, #132]	@ 0x84
    if (((isrflags & USART_ISR_NE) != 0U) && ((cr3its & USART_CR3_EIE) != 0U))
 8005286:	0756      	lsls	r6, r2, #29
 8005288:	d508      	bpl.n	800529c <HAL_UART_IRQHandler+0x7c>
 800528a:	b138      	cbz	r0, 800529c <HAL_UART_IRQHandler+0x7c>
      __HAL_UART_CLEAR_FLAG(huart, UART_CLEAR_NEF);
 800528c:	2504      	movs	r5, #4
 800528e:	621d      	str	r5, [r3, #32]
      huart->ErrorCode |= HAL_UART_ERROR_NE;
 8005290:	f8d4 5084 	ldr.w	r5, [r4, #132]	@ 0x84
 8005294:	f045 0502 	orr.w	r5, r5, #2
 8005298:	f8c4 5084 	str.w	r5, [r4, #132]	@ 0x84
    if (((isrflags & USART_ISR_ORE) != 0U)
 800529c:	0715      	lsls	r5, r2, #28
 800529e:	d50b      	bpl.n	80052b8 <HAL_UART_IRQHandler+0x98>
        && (((cr1its & USART_CR1_RXNEIE) != 0U) ||
 80052a0:	f001 0520 	and.w	r5, r1, #32
 80052a4:	4305      	orrs	r5, r0
 80052a6:	d007      	beq.n	80052b8 <HAL_UART_IRQHandler+0x98>
      __HAL_UART_CLEAR_FLAG(huart, UART_CLEAR_OREF);
 80052a8:	2008      	movs	r0, #8
 80052aa:	6218      	str	r0, [r3, #32]
      huart->ErrorCode |= HAL_UART_ERROR_ORE;
 80052ac:	f8d4 0084 	ldr.w	r0, [r4, #132]	@ 0x84
 80052b0:	f040 0008 	orr.w	r0, r0, #8
 80052b4:	f8c4 0084 	str.w	r0, [r4, #132]	@ 0x84
    if (((isrflags & USART_ISR_RTOF) != 0U) && ((cr1its & USART_CR1_RTOIE) != 0U))
 80052b8:	0516      	lsls	r6, r2, #20
 80052ba:	d50a      	bpl.n	80052d2 <HAL_UART_IRQHandler+0xb2>
 80052bc:	014d      	lsls	r5, r1, #5
 80052be:	d508      	bpl.n	80052d2 <HAL_UART_IRQHandler+0xb2>
      __HAL_UART_CLEAR_FLAG(huart, UART_CLEAR_RTOF);
 80052c0:	f44f 6000 	mov.w	r0, #2048	@ 0x800
 80052c4:	6218      	str	r0, [r3, #32]
      huart->ErrorCode |= HAL_UART_ERROR_RTO;
 80052c6:	f8d4 3084 	ldr.w	r3, [r4, #132]	@ 0x84
 80052ca:	f043 0320 	orr.w	r3, r3, #32
 80052ce:	f8c4 3084 	str.w	r3, [r4, #132]	@ 0x84
    if (huart->ErrorCode != HAL_UART_ERROR_NONE)
 80052d2:	f8d4 3084 	ldr.w	r3, [r4, #132]	@ 0x84
 80052d6:	2b00      	cmp	r3, #0
 80052d8:	d031      	beq.n	800533e <HAL_UART_IRQHandler+0x11e>
      if (((isrflags & USART_ISR_RXNE) != 0U)
 80052da:	0690      	lsls	r0, r2, #26
 80052dc:	d505      	bpl.n	80052ea <HAL_UART_IRQHandler+0xca>
          && ((cr1its & USART_CR1_RXNEIE) != 0U))
 80052de:	068a      	lsls	r2, r1, #26
 80052e0:	d503      	bpl.n	80052ea <HAL_UART_IRQHandler+0xca>
        if (huart->RxISR != NULL)
 80052e2:	6ea3      	ldr	r3, [r4, #104]	@ 0x68
 80052e4:	b10b      	cbz	r3, 80052ea <HAL_UART_IRQHandler+0xca>
          huart->RxISR(huart);
 80052e6:	4620      	mov	r0, r4
 80052e8:	4798      	blx	r3
      if ((HAL_IS_BIT_SET(huart->Instance->CR3, USART_CR3_DMAR)) ||
 80052ea:	6826      	ldr	r6, [r4, #0]
      errorcode = huart->ErrorCode;
 80052ec:	f8d4 2084 	ldr.w	r2, [r4, #132]	@ 0x84
      if ((HAL_IS_BIT_SET(huart->Instance->CR3, USART_CR3_DMAR)) ||
 80052f0:	68b3      	ldr	r3, [r6, #8]
          ((errorcode & (HAL_UART_ERROR_RTO | HAL_UART_ERROR_ORE)) != 0U))
 80052f2:	f002 0228 	and.w	r2, r2, #40	@ 0x28
      if ((HAL_IS_BIT_SET(huart->Instance->CR3, USART_CR3_DMAR)) ||
 80052f6:	f003 0340 	and.w	r3, r3, #64	@ 0x40
 80052fa:	ea53 0502 	orrs.w	r5, r3, r2
        UART_EndRxTransfer(huart);
 80052fe:	4620      	mov	r0, r4
      if ((HAL_IS_BIT_SET(huart->Instance->CR3, USART_CR3_DMAR)) ||
 8005300:	d01e      	beq.n	8005340 <HAL_UART_IRQHandler+0x120>
        UART_EndRxTransfer(huart);
 8005302:	f7ff fec5 	bl	8005090 <UART_EndRxTransfer>
        if (HAL_IS_BIT_SET(huart->Instance->CR3, USART_CR3_DMAR))
 8005306:	68b3      	ldr	r3, [r6, #8]
 8005308:	065b      	lsls	r3, r3, #25
 800530a:	d515      	bpl.n	8005338 <HAL_UART_IRQHandler+0x118>
          ATOMIC_CLEAR_BIT(huart->Instance->CR3, USART_CR3_DMAR);
 800530c:	6822      	ldr	r2, [r4, #0]
   __ASM volatile ("ldrex %0, %1" : "=r" (result) : "Q" (*addr) );
 800530e:	f102 0308 	add.w	r3, r2, #8
 8005312:	e853 3f00 	ldrex	r3, [r3]
 8005316:	f023 0340 	bic.w	r3, r3, #64	@ 0x40
   __ASM volatile ("strex %0, %2, %1" : "=&r" (result), "=Q" (*addr) : "r" (value) );
 800531a:	3208      	adds	r2, #8
 800531c:	e842 3100 	strex	r1, r3, [r2]
 8005320:	2900      	cmp	r1, #0
 8005322:	d1f3      	bne.n	800530c <HAL_UART_IRQHandler+0xec>
          if (huart->hdmarx != NULL)
 8005324:	6f60      	ldr	r0, [r4, #116]	@ 0x74
 8005326:	b138      	cbz	r0, 8005338 <HAL_UART_IRQHandler+0x118>
            huart->hdmarx->XferAbortCallback = UART_DMAAbortOnError;
 8005328:	4b64      	ldr	r3, [pc, #400]	@ (80054bc <HAL_UART_IRQHandler+0x29c>)
 800532a:	6343      	str	r3, [r0, #52]	@ 0x34
            if (HAL_DMA_Abort_IT(huart->hdmarx) != HAL_OK)
 800532c:	f7fd fe0a 	bl	8002f44 <HAL_DMA_Abort_IT>
 8005330:	b128      	cbz	r0, 800533e <HAL_UART_IRQHandler+0x11e>
              huart->hdmarx->XferAbortCallback(huart->hdmarx);
 8005332:	6f60      	ldr	r0, [r4, #116]	@ 0x74
 8005334:	6b43      	ldr	r3, [r0, #52]	@ 0x34
 8005336:	e786      	b.n	8005246 <HAL_UART_IRQHandler+0x26>
            HAL_UART_ErrorCallback(huart);
 8005338:	4620      	mov	r0, r4
 800533a:	f7fc f825 	bl	8001388 <HAL_UART_ErrorCallback>
}
 800533e:	bd70      	pop	{r4, r5, r6, pc}
        HAL_UART_ErrorCallback(huart);
 8005340:	f7fc f822 	bl	8001388 <HAL_UART_ErrorCallback>
        huart->ErrorCode = HAL_UART_ERROR_NONE;
 8005344:	f8c4 5084 	str.w	r5, [r4, #132]	@ 0x84
 8005348:	e7f9      	b.n	800533e <HAL_UART_IRQHandler+0x11e>
  if ((huart->ReceptionType == HAL_UART_RECEPTION_TOIDLE)
 800534a:	6e20      	ldr	r0, [r4, #96]	@ 0x60
 800534c:	2801      	cmp	r0, #1
 800534e:	f040 8087 	bne.w	8005460 <HAL_UART_IRQHandler+0x240>
      && ((isrflags & USART_ISR_IDLE) != 0U)
 8005352:	06d6      	lsls	r6, r2, #27
 8005354:	f140 8084 	bpl.w	8005460 <HAL_UART_IRQHandler+0x240>
      && ((cr1its & USART_ISR_IDLE) != 0U))
 8005358:	06c8      	lsls	r0, r1, #27
 800535a:	f140 8081 	bpl.w	8005460 <HAL_UART_IRQHandler+0x240>
    __HAL_UART_CLEAR_FLAG(huart, UART_CLEAR_IDLEF);
 800535e:	2210      	movs	r2, #16
 8005360:	621a      	str	r2, [r3, #32]
    if (HAL_IS_BIT_SET(huart->Instance->CR3, USART_CR3_DMAR))
 8005362:	689a      	ldr	r2, [r3, #8]
 8005364:	0652      	lsls	r2, r2, #25
 8005366:	d549      	bpl.n	80053fc <HAL_UART_IRQHandler+0x1dc>
      uint16_t nb_remaining_rx_data = (uint16_t) __HAL_DMA_GET_COUNTER(huart->hdmarx);
 8005368:	6f61      	ldr	r1, [r4, #116]	@ 0x74
 800536a:	680a      	ldr	r2, [r1, #0]
 800536c:	6852      	ldr	r2, [r2, #4]
 800536e:	b292      	uxth	r2, r2
      if ((nb_remaining_rx_data > 0U)
 8005370:	2a00      	cmp	r2, #0
 8005372:	d0e4      	beq.n	800533e <HAL_UART_IRQHandler+0x11e>
          && (nb_remaining_rx_data < huart->RxXferSize))
 8005374:	f8b4 0058 	ldrh.w	r0, [r4, #88]	@ 0x58
 8005378:	4290      	cmp	r0, r2
 800537a:	d9e0      	bls.n	800533e <HAL_UART_IRQHandler+0x11e>
        huart->RxXferCount = nb_remaining_rx_data;
 800537c:	f8a4 205a 	strh.w	r2, [r4, #90]	@ 0x5a
        if (huart->hdmarx->Init.Mode != DMA_CIRCULAR)
 8005380:	698a      	ldr	r2, [r1, #24]
 8005382:	2a20      	cmp	r2, #32
 8005384:	d02e      	beq.n	80053e4 <HAL_UART_IRQHandler+0x1c4>
   __ASM volatile ("ldrex %0, %1" : "=r" (result) : "Q" (*addr) );
 8005386:	e853 2f00 	ldrex	r2, [r3]
          ATOMIC_CLEAR_BIT(huart->Instance->CR1, USART_CR1_PEIE);
 800538a:	f422 7280 	bic.w	r2, r2, #256	@ 0x100
   __ASM volatile ("strex %0, %2, %1" : "=&r" (result), "=Q" (*addr) : "r" (value) );
 800538e:	e843 2100 	strex	r1, r2, [r3]
 8005392:	2900      	cmp	r1, #0
 8005394:	d1f7      	bne.n	8005386 <HAL_UART_IRQHandler+0x166>
   __ASM volatile ("ldrex %0, %1" : "=r" (result) : "Q" (*addr) );
 8005396:	f103 0208 	add.w	r2, r3, #8
 800539a:	e852 2f00 	ldrex	r2, [r2]
          ATOMIC_CLEAR_BIT(huart->Instance->CR3, USART_CR3_EIE);
 800539e:	f022 0201 	bic.w	r2, r2, #1
   __ASM volatile ("strex %0, %2, %1" : "=&r" (result), "=Q" (*addr) : "r" (value) );
 80053a2:	f103 0008 	add.w	r0, r3, #8
 80053a6:	e840 2100 	strex	r1, r2, [r0]
 80053aa:	2900      	cmp	r1, #0
 80053ac:	d1f3      	bne.n	8005396 <HAL_UART_IRQHandler+0x176>
   __ASM volatile ("ldrex %0, %1" : "=r" (result) : "Q" (*addr) );
 80053ae:	f103 0208 	add.w	r2, r3, #8
 80053b2:	e852 2f00 	ldrex	r2, [r2]
          ATOMIC_CLEAR_BIT(huart->Instance->CR3, USART_CR3_DMAR);
 80053b6:	f022 0240 	bic.w	r2, r2, #64	@ 0x40
   __ASM volatile ("strex %0, %2, %1" : "=&r" (result), "=Q" (*addr) : "r" (value) );
 80053ba:	f103 0008 	add.w	r0, r3, #8
 80053be:	e840 2100 	strex	r1, r2, [r0]
 80053c2:	2900      	cmp	r1, #0
 80053c4:	d1f3      	bne.n	80053ae <HAL_UART_IRQHandler+0x18e>
          huart->RxState = HAL_UART_STATE_READY;
 80053c6:	2220      	movs	r2, #32
 80053c8:	f8c4 2080 	str.w	r2, [r4, #128]	@ 0x80
          huart->ReceptionType = HAL_UART_RECEPTION_STANDARD;
 80053cc:	6621      	str	r1, [r4, #96]	@ 0x60
   __ASM volatile ("ldrex %0, %1" : "=r" (result) : "Q" (*addr) );
 80053ce:	e853 2f00 	ldrex	r2, [r3]
          ATOMIC_CLEAR_BIT(huart->Instance->CR1, USART_CR1_IDLEIE);
 80053d2:	f022 0210 	bic.w	r2, r2, #16
   __ASM volatile ("strex %0, %2, %1" : "=&r" (result), "=Q" (*addr) : "r" (value) );
 80053d6:	e843 2100 	strex	r1, r2, [r3]
 80053da:	2900      	cmp	r1, #0
 80053dc:	d1f7      	bne.n	80053ce <HAL_UART_IRQHandler+0x1ae>
          (void)HAL_DMA_Abort(huart->hdmarx);
 80053de:	6f60      	ldr	r0, [r4, #116]	@ 0x74
 80053e0:	f7fd fd91 	bl	8002f06 <HAL_DMA_Abort>
        huart->RxEventType = HAL_UART_RXEVENT_IDLE;
 80053e4:	2302      	movs	r3, #2
 80053e6:	6663      	str	r3, [r4, #100]	@ 0x64
        HAL_UARTEx_RxEventCallback(huart, (huart->RxXferSize - huart->RxXferCount));
 80053e8:	f8b4 305a 	ldrh.w	r3, [r4, #90]	@ 0x5a
 80053ec:	f8b4 1058 	ldrh.w	r1, [r4, #88]	@ 0x58
 80053f0:	1ac9      	subs	r1, r1, r3
 80053f2:	b289      	uxth	r1, r1
        HAL_UARTEx_RxEventCallback(huart, nb_rx_data);
 80053f4:	4620      	mov	r0, r4
 80053f6:	f7fb ffc9 	bl	800138c <HAL_UARTEx_RxEventCallback>
 80053fa:	e7a0      	b.n	800533e <HAL_UART_IRQHandler+0x11e>
      uint16_t nb_rx_data = huart->RxXferSize - huart->RxXferCount;
 80053fc:	f8b4 205a 	ldrh.w	r2, [r4, #90]	@ 0x5a
      if ((huart->RxXferCount > 0U)
 8005400:	f8b4 005a 	ldrh.w	r0, [r4, #90]	@ 0x5a
      uint16_t nb_rx_data = huart->RxXferSize - huart->RxXferCount;
 8005404:	f8b4 1058 	ldrh.w	r1, [r4, #88]	@ 0x58
      if ((huart->RxXferCount > 0U)
 8005408:	b280      	uxth	r0, r0
      uint16_t nb_rx_data = huart->RxXferSize - huart->RxXferCount;
 800540a:	b292      	uxth	r2, r2
      if ((huart->RxXferCount > 0U)
 800540c:	2800      	cmp	r0, #0
 800540e:	d096      	beq.n	800533e <HAL_UART_IRQHandler+0x11e>
      uint16_t nb_rx_data = huart->RxXferSize - huart->RxXferCount;
 8005410:	1a89      	subs	r1, r1, r2
 8005412:	b289      	uxth	r1, r1
          && (nb_rx_data > 0U))
 8005414:	2900      	cmp	r1, #0
 8005416:	d092      	beq.n	800533e <HAL_UART_IRQHandler+0x11e>
   __ASM volatile ("ldrex %0, %1" : "=r" (result) : "Q" (*addr) );
 8005418:	e853 2f00 	ldrex	r2, [r3]
        ATOMIC_CLEAR_BIT(huart->Instance->CR1, (USART_CR1_RXNEIE | USART_CR1_PEIE));
 800541c:	f422 7290 	bic.w	r2, r2, #288	@ 0x120
   __ASM volatile ("strex %0, %2, %1" : "=&r" (result), "=Q" (*addr) : "r" (value) );
 8005420:	e843 2000 	strex	r0, r2, [r3]
 8005424:	2800      	cmp	r0, #0
 8005426:	d1f7      	bne.n	8005418 <HAL_UART_IRQHandler+0x1f8>
   __ASM volatile ("ldrex %0, %1" : "=r" (result) : "Q" (*addr) );
 8005428:	f103 0208 	add.w	r2, r3, #8
 800542c:	e852 2f00 	ldrex	r2, [r2]
        ATOMIC_CLEAR_BIT(huart->Instance->CR3, USART_CR3_EIE);
 8005430:	f022 0201 	bic.w	r2, r2, #1
   __ASM volatile ("strex %0, %2, %1" : "=&r" (result), "=Q" (*addr) : "r" (value) );
 8005434:	f103 0508 	add.w	r5, r3, #8
 8005438:	e845 2000 	strex	r0, r2, [r5]
 800543c:	2800      	cmp	r0, #0
 800543e:	d1f3      	bne.n	8005428 <HAL_UART_IRQHandler+0x208>
        huart->RxState = HAL_UART_STATE_READY;
 8005440:	2220      	movs	r2, #32
 8005442:	f8c4 2080 	str.w	r2, [r4, #128]	@ 0x80
        huart->RxISR = NULL;
 8005446:	66a0      	str	r0, [r4, #104]	@ 0x68
        huart->ReceptionType = HAL_UART_RECEPTION_STANDARD;
 8005448:	6620      	str	r0, [r4, #96]	@ 0x60
   __ASM volatile ("ldrex %0, %1" : "=r" (result) : "Q" (*addr) );
 800544a:	e853 2f00 	ldrex	r2, [r3]
        ATOMIC_CLEAR_BIT(huart->Instance->CR1, USART_CR1_IDLEIE);
 800544e:	f022 0210 	bic.w	r2, r2, #16
   __ASM volatile ("strex %0, %2, %1" : "=&r" (result), "=Q" (*addr) : "r" (value) );
 8005452:	e843 2000 	strex	r0, r2, [r3]
 8005456:	2800      	cmp	r0, #0
 8005458:	d1f7      	bne.n	800544a <HAL_UART_IRQHandler+0x22a>
        huart->RxEventType = HAL_UART_RXEVENT_IDLE;
 800545a:	2302      	movs	r3, #2
 800545c:	6663      	str	r3, [r4, #100]	@ 0x64
 800545e:	e7c9      	b.n	80053f4 <HAL_UART_IRQHandler+0x1d4>
  if (((isrflags & USART_ISR_WUF) != 0U) && ((cr3its & USART_CR3_WUFIE) != 0U))
 8005460:	02d6      	lsls	r6, r2, #11
 8005462:	d509      	bpl.n	8005478 <HAL_UART_IRQHandler+0x258>
 8005464:	0268      	lsls	r0, r5, #9
 8005466:	d507      	bpl.n	8005478 <HAL_UART_IRQHandler+0x258>
    __HAL_UART_CLEAR_FLAG(huart, UART_CLEAR_WUF);
 8005468:	f44f 1280 	mov.w	r2, #1048576	@ 0x100000
    HAL_UARTEx_WakeupCallback(huart);
 800546c:	4620      	mov	r0, r4
    __HAL_UART_CLEAR_FLAG(huart, UART_CLEAR_WUF);
 800546e:	621a      	str	r2, [r3, #32]
}
 8005470:	e8bd 4070 	ldmia.w	sp!, {r4, r5, r6, lr}
    HAL_UARTEx_WakeupCallback(huart);
 8005474:	f000 ba86 	b.w	8005984 <HAL_UARTEx_WakeupCallback>
  if (((isrflags & USART_ISR_TXE) != 0U)
 8005478:	0616      	lsls	r6, r2, #24
 800547a:	d507      	bpl.n	800548c <HAL_UART_IRQHandler+0x26c>
      && ((cr1its & USART_CR1_TXEIE) != 0U))
 800547c:	060d      	lsls	r5, r1, #24
 800547e:	d505      	bpl.n	800548c <HAL_UART_IRQHandler+0x26c>
    if (huart->TxISR != NULL)
 8005480:	6ee3      	ldr	r3, [r4, #108]	@ 0x6c
 8005482:	2b00      	cmp	r3, #0
 8005484:	f43f af5b 	beq.w	800533e <HAL_UART_IRQHandler+0x11e>
      huart->TxISR(huart);
 8005488:	4620      	mov	r0, r4
 800548a:	e6dc      	b.n	8005246 <HAL_UART_IRQHandler+0x26>
  if (((isrflags & USART_ISR_TC) != 0U) && ((cr1its & USART_CR1_TCIE) != 0U))
 800548c:	0650      	lsls	r0, r2, #25
 800548e:	f57f af56 	bpl.w	800533e <HAL_UART_IRQHandler+0x11e>
 8005492:	064a      	lsls	r2, r1, #25
 8005494:	f57f af53 	bpl.w	800533e <HAL_UART_IRQHandler+0x11e>
   __ASM volatile ("ldrex %0, %1" : "=r" (result) : "Q" (*addr) );
 8005498:	e853 2f00 	ldrex	r2, [r3]
  * @retval None
  */
static void UART_EndTransmit_IT(UART_HandleTypeDef *huart)
{
  /* Disable the UART Transmit Complete Interrupt */
  ATOMIC_CLEAR_BIT(huart->Instance->CR1, USART_CR1_TCIE);
 800549c:	f022 0240 	bic.w	r2, r2, #64	@ 0x40
   __ASM volatile ("strex %0, %2, %1" : "=&r" (result), "=Q" (*addr) : "r" (value) );
 80054a0:	e843 2100 	strex	r1, r2, [r3]
 80054a4:	2900      	cmp	r1, #0
 80054a6:	d1f7      	bne.n	8005498 <HAL_UART_IRQHandler+0x278>

  /* Tx process is ended, restore huart->gState to Ready */
  huart->gState = HAL_UART_STATE_READY;
 80054a8:	2320      	movs	r3, #32
 80054aa:	67e3      	str	r3, [r4, #124]	@ 0x7c

  /* Cleat TxISR function pointer */
  huart->TxISR = NULL;
 80054ac:	66e1      	str	r1, [r4, #108]	@ 0x6c
#if (USE_HAL_UART_REGISTER_CALLBACKS == 1)
  /*Call registered Tx complete callback*/
  huart->TxCpltCallback(huart);
#else
  /*Call legacy weak Tx complete callback*/
  HAL_UART_TxCpltCallback(huart);
 80054ae:	4620      	mov	r0, r4
 80054b0:	f7fb ff98 	bl	80013e4 <HAL_UART_TxCpltCallback>
#endif /* USE_HAL_UART_REGISTER_CALLBACKS */
}
 80054b4:	e743      	b.n	800533e <HAL_UART_IRQHandler+0x11e>
 80054b6:	bf00      	nop
 80054b8:	04000120 	.word	0x04000120
 80054bc:	0800520b 	.word	0x0800520b

080054c0 <UART_DMARxHalfCplt>:
  UART_HandleTypeDef *huart = (UART_HandleTypeDef *)(hdma->Parent);
 80054c0:	6a40      	ldr	r0, [r0, #36]	@ 0x24
{
 80054c2:	b508      	push	{r3, lr}
  huart->RxEventType = HAL_UART_RXEVENT_HT;
 80054c4:	2301      	movs	r3, #1
 80054c6:	6643      	str	r3, [r0, #100]	@ 0x64
  if (huart->ReceptionType == HAL_UART_RECEPTION_TOIDLE)
 80054c8:	6e03      	ldr	r3, [r0, #96]	@ 0x60
 80054ca:	2b01      	cmp	r3, #1
 80054cc:	d105      	bne.n	80054da <UART_DMARxHalfCplt+0x1a>
    HAL_UARTEx_RxEventCallback(huart, huart->RxXferSize / 2U);
 80054ce:	f8b0 1058 	ldrh.w	r1, [r0, #88]	@ 0x58
 80054d2:	0849      	lsrs	r1, r1, #1
 80054d4:	f7fb ff5a 	bl	800138c <HAL_UARTEx_RxEventCallback>
}
 80054d8:	bd08      	pop	{r3, pc}
    HAL_UART_RxHalfCpltCallback(huart);
 80054da:	f7ff fe6a 	bl	80051b2 <HAL_UART_RxHalfCpltCallback>
}
 80054de:	e7fb      	b.n	80054d8 <UART_DMARxHalfCplt+0x18>

080054e0 <UART_DMAReceiveCplt>:
{
 80054e0:	b508      	push	{r3, lr}
 80054e2:	4603      	mov	r3, r0
  UART_HandleTypeDef *huart = (UART_HandleTypeDef *)(hdma->Parent);
 80054e4:	6a40      	ldr	r0, [r0, #36]	@ 0x24
  if (hdma->Init.Mode != DMA_CIRCULAR)
 80054e6:	699b      	ldr	r3, [r3, #24]
 80054e8:	2b20      	cmp	r3, #32
 80054ea:	d032      	beq.n	8005552 <UART_DMAReceiveCplt+0x72>
    huart->RxXferCount = 0U;
 80054ec:	2300      	movs	r3, #0
 80054ee:	f8a0 305a 	strh.w	r3, [r0, #90]	@ 0x5a
    ATOMIC_CLEAR_BIT(huart->Instance->CR1, USART_CR1_PEIE);
 80054f2:	6802      	ldr	r2, [r0, #0]
   __ASM volatile ("ldrex %0, %1" : "=r" (result) : "Q" (*addr) );
 80054f4:	e852 3f00 	ldrex	r3, [r2]
 80054f8:	f423 7380 	bic.w	r3, r3, #256	@ 0x100
   __ASM volatile ("strex %0, %2, %1" : "=&r" (result), "=Q" (*addr) : "r" (value) );
 80054fc:	e842 3100 	strex	r1, r3, [r2]
   return(result);
 8005500:	6803      	ldr	r3, [r0, #0]
 8005502:	2900      	cmp	r1, #0
 8005504:	d1f5      	bne.n	80054f2 <UART_DMAReceiveCplt+0x12>
   __ASM volatile ("ldrex %0, %1" : "=r" (result) : "Q" (*addr) );
 8005506:	f103 0208 	add.w	r2, r3, #8
 800550a:	e852 2f00 	ldrex	r2, [r2]
    ATOMIC_CLEAR_BIT(huart->Instance->CR3, USART_CR3_EIE);
 800550e:	f022 0201 	bic.w	r2, r2, #1
   __ASM volatile ("strex %0, %2, %1" : "=&r" (result), "=Q" (*addr) : "r" (value) );
 8005512:	f103 0c08 	add.w	ip, r3, #8
 8005516:	e84c 2100 	strex	r1, r2, [ip]
 800551a:	2900      	cmp	r1, #0
 800551c:	d1f3      	bne.n	8005506 <UART_DMAReceiveCplt+0x26>
   __ASM volatile ("ldrex %0, %1" : "=r" (result) : "Q" (*addr) );
 800551e:	f103 0208 	add.w	r2, r3, #8
 8005522:	e852 2f00 	ldrex	r2, [r2]
    ATOMIC_CLEAR_BIT(huart->Instance->CR3, USART_CR3_DMAR);
 8005526:	f022 0240 	bic.w	r2, r2, #64	@ 0x40
   __ASM volatile ("strex %0, %2, %1" : "=&r" (result), "=Q" (*addr) : "r" (value) );
 800552a:	f103 0c08 	add.w	ip, r3, #8
 800552e:	e84c 2100 	strex	r1, r2, [ip]
 8005532:	2900      	cmp	r1, #0
 8005534:	d1f3      	bne.n	800551e <UART_DMAReceiveCplt+0x3e>
    huart->RxState = HAL_UART_STATE_READY;
 8005536:	2220      	movs	r2, #32
 8005538:	f8c0 2080 	str.w	r2, [r0, #128]	@ 0x80
    if (huart->ReceptionType == HAL_UART_RECEPTION_TOIDLE)
 800553c:	6e02      	ldr	r2, [r0, #96]	@ 0x60
 800553e:	2a01      	cmp	r2, #1
 8005540:	d107      	bne.n	8005552 <UART_DMAReceiveCplt+0x72>
   __ASM volatile ("ldrex %0, %1" : "=r" (result) : "Q" (*addr) );
 8005542:	e853 2f00 	ldrex	r2, [r3]
      ATOMIC_CLEAR_BIT(huart->Instance->CR1, USART_CR1_IDLEIE);
 8005546:	f022 0210 	bic.w	r2, r2, #16
   __ASM volatile ("strex %0, %2, %1" : "=&r" (result), "=Q" (*addr) : "r" (value) );
 800554a:	e843 2100 	strex	r1, r2, [r3]
 800554e:	2900      	cmp	r1, #0
 8005550:	d1f7      	bne.n	8005542 <UART_DMAReceiveCplt+0x62>
  huart->RxEventType = HAL_UART_RXEVENT_TC;
 8005552:	2300      	movs	r3, #0
 8005554:	6643      	str	r3, [r0, #100]	@ 0x64
  if (huart->ReceptionType == HAL_UART_RECEPTION_TOIDLE)
 8005556:	6e03      	ldr	r3, [r0, #96]	@ 0x60
 8005558:	2b01      	cmp	r3, #1
 800555a:	d104      	bne.n	8005566 <UART_DMAReceiveCplt+0x86>
    HAL_UARTEx_RxEventCallback(huart, huart->RxXferSize);
 800555c:	f8b0 1058 	ldrh.w	r1, [r0, #88]	@ 0x58
 8005560:	f7fb ff14 	bl	800138c <HAL_UARTEx_RxEventCallback>
}
 8005564:	bd08      	pop	{r3, pc}
    HAL_UART_RxCpltCallback(huart);
 8005566:	f7ff fe23 	bl	80051b0 <HAL_UART_RxCpltCallback>
}
 800556a:	e7fb      	b.n	8005564 <UART_DMAReceiveCplt+0x84>

0800556c <UART_SetConfig>:
{
 800556c:	b538      	push	{r3, r4, r5, lr}
 800556e:	4604      	mov	r4, r0
  tmpreg = (uint32_t)huart->Init.WordLength | huart->Init.Parity | huart->Init.Mode | huart->Init.OverSampling ;
 8005570:	69c0      	ldr	r0, [r0, #28]
 8005572:	6921      	ldr	r1, [r4, #16]
 8005574:	68a2      	ldr	r2, [r4, #8]
  MODIFY_REG(huart->Instance->CR1, USART_CR1_FIELDS, tmpreg);
 8005576:	6823      	ldr	r3, [r4, #0]
  tmpreg = (uint32_t)huart->Init.WordLength | huart->Init.Parity | huart->Init.Mode | huart->Init.OverSampling ;
 8005578:	430a      	orrs	r2, r1
 800557a:	6961      	ldr	r1, [r4, #20]
  MODIFY_REG(huart->Instance->CR1, USART_CR1_FIELDS, tmpreg);
 800557c:	681d      	ldr	r5, [r3, #0]
  tmpreg = (uint32_t)huart->Init.WordLength | huart->Init.Parity | huart->Init.Mode | huart->Init.OverSampling ;
 800557e:	430a      	orrs	r2, r1
  MODIFY_REG(huart->Instance->CR1, USART_CR1_FIELDS, tmpreg);
 8005580:	4941      	ldr	r1, [pc, #260]	@ (8005688 <UART_SetConfig+0x11c>)
  tmpreg = (uint32_t)huart->Init.WordLength | huart->Init.Parity | huart->Init.Mode | huart->Init.OverSampling ;
 8005582:	4302      	orrs	r2, r0
  MODIFY_REG(huart->Instance->CR1, USART_CR1_FIELDS, tmpreg);
 8005584:	4029      	ands	r1, r5
 8005586:	430a      	orrs	r2, r1
 8005588:	601a      	str	r2, [r3, #0]
  MODIFY_REG(huart->Instance->CR2, USART_CR2_STOP, huart->Init.StopBits);
 800558a:	685a      	ldr	r2, [r3, #4]
 800558c:	68e1      	ldr	r1, [r4, #12]
  tmpreg |= huart->Init.OneBitSampling;
 800558e:	6a25      	ldr	r5, [r4, #32]
  MODIFY_REG(huart->Instance->CR2, USART_CR2_STOP, huart->Init.StopBits);
 8005590:	f422 5240 	bic.w	r2, r2, #12288	@ 0x3000
 8005594:	430a      	orrs	r2, r1
 8005596:	605a      	str	r2, [r3, #4]
  MODIFY_REG(huart->Instance->CR3, USART_CR3_FIELDS, tmpreg);
 8005598:	6899      	ldr	r1, [r3, #8]
  tmpreg = (uint32_t)huart->Init.HwFlowCtl;
 800559a:	69a2      	ldr	r2, [r4, #24]
  MODIFY_REG(huart->Instance->CR3, USART_CR3_FIELDS, tmpreg);
 800559c:	f421 6130 	bic.w	r1, r1, #2816	@ 0xb00
  tmpreg |= huart->Init.OneBitSampling;
 80055a0:	432a      	orrs	r2, r5
  MODIFY_REG(huart->Instance->CR3, USART_CR3_FIELDS, tmpreg);
 80055a2:	430a      	orrs	r2, r1
 80055a4:	609a      	str	r2, [r3, #8]
  UART_GETCLOCKSOURCE(huart, clocksource);
 80055a6:	4a39      	ldr	r2, [pc, #228]	@ (800568c <UART_SetConfig+0x120>)
 80055a8:	4293      	cmp	r3, r2
 80055aa:	d114      	bne.n	80055d6 <UART_SetConfig+0x6a>
 80055ac:	4b38      	ldr	r3, [pc, #224]	@ (8005690 <UART_SetConfig+0x124>)
 80055ae:	6b1b      	ldr	r3, [r3, #48]	@ 0x30
 80055b0:	f003 0303 	and.w	r3, r3, #3
 80055b4:	3b01      	subs	r3, #1
 80055b6:	2b02      	cmp	r3, #2
 80055b8:	d85a      	bhi.n	8005670 <UART_SetConfig+0x104>
 80055ba:	4a36      	ldr	r2, [pc, #216]	@ (8005694 <UART_SetConfig+0x128>)
 80055bc:	5cd3      	ldrb	r3, [r2, r3]
  if (huart->Init.OverSampling == UART_OVERSAMPLING_8)
 80055be:	f5b0 4f00 	cmp.w	r0, #32768	@ 0x8000
 80055c2:	d12e      	bne.n	8005622 <UART_SetConfig+0xb6>
    switch (clocksource)
 80055c4:	2b08      	cmp	r3, #8
 80055c6:	d851      	bhi.n	800566c <UART_SetConfig+0x100>
 80055c8:	e8df f003 	tbb	[pc, r3]
 80055cc:	50150f55 	.word	0x50150f55
 80055d0:	50505012 	.word	0x50505012
 80055d4:	16          	.byte	0x16
 80055d5:	00          	.byte	0x00
  UART_GETCLOCKSOURCE(huart, clocksource);
 80055d6:	4a30      	ldr	r2, [pc, #192]	@ (8005698 <UART_SetConfig+0x12c>)
 80055d8:	4293      	cmp	r3, r2
 80055da:	d049      	beq.n	8005670 <UART_SetConfig+0x104>
 80055dc:	f502 6280 	add.w	r2, r2, #1024	@ 0x400
 80055e0:	1a9b      	subs	r3, r3, r2
 80055e2:	bf18      	it	ne
 80055e4:	2301      	movne	r3, #1
 80055e6:	011b      	lsls	r3, r3, #4
 80055e8:	e7e9      	b.n	80055be <UART_SetConfig+0x52>
        pclk = HAL_RCC_GetPCLK2Freq();
 80055ea:	f7ff fc93 	bl	8004f14 <HAL_RCC_GetPCLK2Freq>
        break;
 80055ee:	e044      	b.n	800567a <UART_SetConfig+0x10e>
        pclk = HAL_RCC_GetSysClockFreq();
 80055f0:	f7ff fbac 	bl	8004d4c <HAL_RCC_GetSysClockFreq>
        break;
 80055f4:	e041      	b.n	800567a <UART_SetConfig+0x10e>
    switch (clocksource)
 80055f6:	4829      	ldr	r0, [pc, #164]	@ (800569c <UART_SetConfig+0x130>)
      usartdiv = (uint32_t)(UART_DIV_SAMPLING8(pclk, huart->Init.BaudRate));
 80055f8:	6862      	ldr	r2, [r4, #4]
 80055fa:	0853      	lsrs	r3, r2, #1
 80055fc:	eb03 0340 	add.w	r3, r3, r0, lsl #1
 8005600:	fbb3 f3f2 	udiv	r3, r3, r2
      if ((usartdiv >= UART_BRR_MIN) && (usartdiv <= UART_BRR_MAX))
 8005604:	f64f 72ef 	movw	r2, #65519	@ 0xffef
 8005608:	f1a3 0110 	sub.w	r1, r3, #16
 800560c:	4291      	cmp	r1, r2
 800560e:	d82d      	bhi.n	800566c <UART_SetConfig+0x100>
        brrtemp = (uint16_t)(usartdiv & 0xFFF0U);
 8005610:	f023 020f 	bic.w	r2, r3, #15
        huart->Instance->BRR = brrtemp;
 8005614:	6821      	ldr	r1, [r4, #0]
        brrtemp = (uint16_t)(usartdiv & 0xFFF0U);
 8005616:	b292      	uxth	r2, r2
        brrtemp |= (uint16_t)((usartdiv & (uint16_t)0x000FU) >> 1U);
 8005618:	f3c3 0342 	ubfx	r3, r3, #1, #3
        huart->Instance->BRR = brrtemp;
 800561c:	4313      	orrs	r3, r2
 800561e:	60cb      	str	r3, [r1, #12]
 8005620:	e02d      	b.n	800567e <UART_SetConfig+0x112>
    switch (clocksource)
 8005622:	2b08      	cmp	r3, #8
 8005624:	d822      	bhi.n	800566c <UART_SetConfig+0x100>
 8005626:	e8df f003 	tbb	[pc, r3]
 800562a:	1814      	.short	0x1814
 800562c:	211b2105 	.word	0x211b2105
 8005630:	2121      	.short	0x2121
 8005632:	1e          	.byte	0x1e
 8005633:	00          	.byte	0x00
        pclk = (uint32_t) HSI_VALUE;
 8005634:	4819      	ldr	r0, [pc, #100]	@ (800569c <UART_SetConfig+0x130>)
      usartdiv = (uint32_t)(UART_DIV_SAMPLING16(pclk, huart->Init.BaudRate));
 8005636:	6862      	ldr	r2, [r4, #4]
 8005638:	eb00 0352 	add.w	r3, r0, r2, lsr #1
 800563c:	fbb3 f3f2 	udiv	r3, r3, r2
      if ((usartdiv >= UART_BRR_MIN) && (usartdiv <= UART_BRR_MAX))
 8005640:	f64f 72ef 	movw	r2, #65519	@ 0xffef
 8005644:	f1a3 0110 	sub.w	r1, r3, #16
 8005648:	4291      	cmp	r1, r2
 800564a:	d80f      	bhi.n	800566c <UART_SetConfig+0x100>
        huart->Instance->BRR = (uint16_t)usartdiv;
 800564c:	6822      	ldr	r2, [r4, #0]
 800564e:	60d3      	str	r3, [r2, #12]
 8005650:	e015      	b.n	800567e <UART_SetConfig+0x112>
        pclk = HAL_RCC_GetPCLK1Freq();
 8005652:	f7ff fc47 	bl	8004ee4 <HAL_RCC_GetPCLK1Freq>
    if (pclk != 0U)
 8005656:	b190      	cbz	r0, 800567e <UART_SetConfig+0x112>
 8005658:	e7ed      	b.n	8005636 <UART_SetConfig+0xca>
        pclk = HAL_RCC_GetPCLK2Freq();
 800565a:	f7ff fc5b 	bl	8004f14 <HAL_RCC_GetPCLK2Freq>
        break;
 800565e:	e7fa      	b.n	8005656 <UART_SetConfig+0xea>
        pclk = HAL_RCC_GetSysClockFreq();
 8005660:	f7ff fb74 	bl	8004d4c <HAL_RCC_GetSysClockFreq>
        break;
 8005664:	e7f7      	b.n	8005656 <UART_SetConfig+0xea>
    switch (clocksource)
 8005666:	f44f 4000 	mov.w	r0, #32768	@ 0x8000
 800566a:	e7e4      	b.n	8005636 <UART_SetConfig+0xca>
        ret = HAL_ERROR;
 800566c:	2001      	movs	r0, #1
 800566e:	e007      	b.n	8005680 <UART_SetConfig+0x114>
  if (huart->Init.OverSampling == UART_OVERSAMPLING_8)
 8005670:	f5b0 4f00 	cmp.w	r0, #32768	@ 0x8000
 8005674:	d1ed      	bne.n	8005652 <UART_SetConfig+0xe6>
        pclk = HAL_RCC_GetPCLK1Freq();
 8005676:	f7ff fc35 	bl	8004ee4 <HAL_RCC_GetPCLK1Freq>
    if (pclk != 0U)
 800567a:	2800      	cmp	r0, #0
 800567c:	d1bc      	bne.n	80055f8 <UART_SetConfig+0x8c>
        pclk = (uint32_t) HSI_VALUE;
 800567e:	2000      	movs	r0, #0
  huart->RxISR = NULL;
 8005680:	2300      	movs	r3, #0
  huart->TxISR = NULL;
 8005682:	e9c4 331a 	strd	r3, r3, [r4, #104]	@ 0x68
}
 8005686:	bd38      	pop	{r3, r4, r5, pc}
 8005688:	efff69f3 	.word	0xefff69f3
 800568c:	40013800 	.word	0x40013800
 8005690:	40021000 	.word	0x40021000
 8005694:	0800c930 	.word	0x0800c930
 8005698:	40004400 	.word	0x40004400
 800569c:	007a1200 	.word	0x007a1200

080056a0 <UART_AdvFeatureConfig>:
  if (HAL_IS_BIT_SET(huart->AdvancedInit.AdvFeatureInit, UART_ADVFEATURE_SWAP_INIT))
 80056a0:	6a43      	ldr	r3, [r0, #36]	@ 0x24
 80056a2:	071a      	lsls	r2, r3, #28
{
 80056a4:	b510      	push	{r4, lr}
  if (HAL_IS_BIT_SET(huart->AdvancedInit.AdvFeatureInit, UART_ADVFEATURE_SWAP_INIT))
 80056a6:	d506      	bpl.n	80056b6 <UART_AdvFeatureConfig+0x16>
    MODIFY_REG(huart->Instance->CR2, USART_CR2_SWAP, huart->AdvancedInit.Swap);
 80056a8:	6801      	ldr	r1, [r0, #0]
 80056aa:	6b44      	ldr	r4, [r0, #52]	@ 0x34
 80056ac:	684a      	ldr	r2, [r1, #4]
 80056ae:	f422 4200 	bic.w	r2, r2, #32768	@ 0x8000
 80056b2:	4322      	orrs	r2, r4
 80056b4:	604a      	str	r2, [r1, #4]
  if (HAL_IS_BIT_SET(huart->AdvancedInit.AdvFeatureInit, UART_ADVFEATURE_TXINVERT_INIT))
 80056b6:	07dc      	lsls	r4, r3, #31
 80056b8:	d506      	bpl.n	80056c8 <UART_AdvFeatureConfig+0x28>
    MODIFY_REG(huart->Instance->CR2, USART_CR2_TXINV, huart->AdvancedInit.TxPinLevelInvert);
 80056ba:	6801      	ldr	r1, [r0, #0]
 80056bc:	6a84      	ldr	r4, [r0, #40]	@ 0x28
 80056be:	684a      	ldr	r2, [r1, #4]
 80056c0:	f422 3200 	bic.w	r2, r2, #131072	@ 0x20000
 80056c4:	4322      	orrs	r2, r4
 80056c6:	604a      	str	r2, [r1, #4]
  if (HAL_IS_BIT_SET(huart->AdvancedInit.AdvFeatureInit, UART_ADVFEATURE_RXINVERT_INIT))
 80056c8:	0799      	lsls	r1, r3, #30
 80056ca:	d506      	bpl.n	80056da <UART_AdvFeatureConfig+0x3a>
    MODIFY_REG(huart->Instance->CR2, USART_CR2_RXINV, huart->AdvancedInit.RxPinLevelInvert);
 80056cc:	6801      	ldr	r1, [r0, #0]
 80056ce:	6ac4      	ldr	r4, [r0, #44]	@ 0x2c
 80056d0:	684a      	ldr	r2, [r1, #4]
 80056d2:	f422 3280 	bic.w	r2, r2, #65536	@ 0x10000
 80056d6:	4322      	orrs	r2, r4
 80056d8:	604a      	str	r2, [r1, #4]
  if (HAL_IS_BIT_SET(huart->AdvancedInit.AdvFeatureInit, UART_ADVFEATURE_DATAINVERT_INIT))
 80056da:	075a      	lsls	r2, r3, #29
 80056dc:	d506      	bpl.n	80056ec <UART_AdvFeatureConfig+0x4c>
    MODIFY_REG(huart->Instance->CR2, USART_CR2_DATAINV, huart->AdvancedInit.DataInvert);
 80056de:	6801      	ldr	r1, [r0, #0]
 80056e0:	6b04      	ldr	r4, [r0, #48]	@ 0x30
 80056e2:	684a      	ldr	r2, [r1, #4]
 80056e4:	f422 2280 	bic.w	r2, r2, #262144	@ 0x40000
 80056e8:	4322      	orrs	r2, r4
 80056ea:	604a      	str	r2, [r1, #4]
  if (HAL_IS_BIT_SET(huart->AdvancedInit.AdvFeatureInit, UART_ADVFEATURE_RXOVERRUNDISABLE_INIT))
 80056ec:	06dc      	lsls	r4, r3, #27
 80056ee:	d506      	bpl.n	80056fe <UART_AdvFeatureConfig+0x5e>
    MODIFY_REG(huart->Instance->CR3, USART_CR3_OVRDIS, huart->AdvancedInit.OverrunDisable);
 80056f0:	6801      	ldr	r1, [r0, #0]
 80056f2:	6b84      	ldr	r4, [r0, #56]	@ 0x38
 80056f4:	688a      	ldr	r2, [r1, #8]
 80056f6:	f422 5280 	bic.w	r2, r2, #4096	@ 0x1000
 80056fa:	4322      	orrs	r2, r4
 80056fc:	608a      	str	r2, [r1, #8]
  if (HAL_IS_BIT_SET(huart->AdvancedInit.AdvFeatureInit, UART_ADVFEATURE_DMADISABLEONERROR_INIT))
 80056fe:	0699      	lsls	r1, r3, #26
 8005700:	d506      	bpl.n	8005710 <UART_AdvFeatureConfig+0x70>
    MODIFY_REG(huart->Instance->CR3, USART_CR3_DDRE, huart->AdvancedInit.DMADisableonRxError);
 8005702:	6801      	ldr	r1, [r0, #0]
 8005704:	6bc4      	ldr	r4, [r0, #60]	@ 0x3c
 8005706:	688a      	ldr	r2, [r1, #8]
 8005708:	f422 5200 	bic.w	r2, r2, #8192	@ 0x2000
 800570c:	4322      	orrs	r2, r4
 800570e:	608a      	str	r2, [r1, #8]
  if (HAL_IS_BIT_SET(huart->AdvancedInit.AdvFeatureInit, UART_ADVFEATURE_AUTOBAUDRATE_INIT))
 8005710:	065a      	lsls	r2, r3, #25
 8005712:	d50f      	bpl.n	8005734 <UART_AdvFeatureConfig+0x94>
    MODIFY_REG(huart->Instance->CR2, USART_CR2_ABREN, huart->AdvancedInit.AutoBaudRateEnable);
 8005714:	6801      	ldr	r1, [r0, #0]
 8005716:	6c04      	ldr	r4, [r0, #64]	@ 0x40
 8005718:	684a      	ldr	r2, [r1, #4]
 800571a:	f422 1280 	bic.w	r2, r2, #1048576	@ 0x100000
 800571e:	4322      	orrs	r2, r4
    if (huart->AdvancedInit.AutoBaudRateEnable == UART_ADVFEATURE_AUTOBAUDRATE_ENABLE)
 8005720:	f5b4 1f80 	cmp.w	r4, #1048576	@ 0x100000
    MODIFY_REG(huart->Instance->CR2, USART_CR2_ABREN, huart->AdvancedInit.AutoBaudRateEnable);
 8005724:	604a      	str	r2, [r1, #4]
    if (huart->AdvancedInit.AutoBaudRateEnable == UART_ADVFEATURE_AUTOBAUDRATE_ENABLE)
 8005726:	d105      	bne.n	8005734 <UART_AdvFeatureConfig+0x94>
      MODIFY_REG(huart->Instance->CR2, USART_CR2_ABRMODE, huart->AdvancedInit.AutoBaudRateMode);
 8005728:	684a      	ldr	r2, [r1, #4]
 800572a:	6c44      	ldr	r4, [r0, #68]	@ 0x44
 800572c:	f422 02c0 	bic.w	r2, r2, #6291456	@ 0x600000
 8005730:	4322      	orrs	r2, r4
 8005732:	604a      	str	r2, [r1, #4]
  if (HAL_IS_BIT_SET(huart->AdvancedInit.AdvFeatureInit, UART_ADVFEATURE_MSBFIRST_INIT))
 8005734:	061b      	lsls	r3, r3, #24
 8005736:	d506      	bpl.n	8005746 <UART_AdvFeatureConfig+0xa6>
    MODIFY_REG(huart->Instance->CR2, USART_CR2_MSBFIRST, huart->AdvancedInit.MSBFirst);
 8005738:	6802      	ldr	r2, [r0, #0]
 800573a:	6c81      	ldr	r1, [r0, #72]	@ 0x48
 800573c:	6853      	ldr	r3, [r2, #4]
 800573e:	f423 2300 	bic.w	r3, r3, #524288	@ 0x80000
 8005742:	430b      	orrs	r3, r1
 8005744:	6053      	str	r3, [r2, #4]
}
 8005746:	bd10      	pop	{r4, pc}

08005748 <UART_WaitOnFlagUntilTimeout>:
{
 8005748:	e92d 43f8 	stmdb	sp!, {r3, r4, r5, r6, r7, r8, r9, lr}
 800574c:	f8dd 9020 	ldr.w	r9, [sp, #32]
 8005750:	4604      	mov	r4, r0
 8005752:	460d      	mov	r5, r1
 8005754:	4617      	mov	r7, r2
 8005756:	4698      	mov	r8, r3
  while ((__HAL_UART_GET_FLAG(huart, Flag) ? SET : RESET) == Status)
 8005758:	6822      	ldr	r2, [r4, #0]
 800575a:	69d3      	ldr	r3, [r2, #28]
 800575c:	ea35 0303 	bics.w	r3, r5, r3
 8005760:	bf0c      	ite	eq
 8005762:	2301      	moveq	r3, #1
 8005764:	2300      	movne	r3, #0
 8005766:	42bb      	cmp	r3, r7
 8005768:	d001      	beq.n	800576e <UART_WaitOnFlagUntilTimeout+0x26>
  return HAL_OK;
 800576a:	2000      	movs	r0, #0
 800576c:	e022      	b.n	80057b4 <UART_WaitOnFlagUntilTimeout+0x6c>
    if (Timeout != HAL_MAX_DELAY)
 800576e:	f1b9 3fff 	cmp.w	r9, #4294967295
 8005772:	d0f2      	beq.n	800575a <UART_WaitOnFlagUntilTimeout+0x12>
      if (((HAL_GetTick() - Tickstart) > Timeout) || (Timeout == 0U))
 8005774:	f7fd fa14 	bl	8002ba0 <HAL_GetTick>
 8005778:	eba0 0008 	sub.w	r0, r0, r8
 800577c:	4548      	cmp	r0, r9
 800577e:	d829      	bhi.n	80057d4 <UART_WaitOnFlagUntilTimeout+0x8c>
 8005780:	f1b9 0f00 	cmp.w	r9, #0
 8005784:	d026      	beq.n	80057d4 <UART_WaitOnFlagUntilTimeout+0x8c>
      if ((READ_BIT(huart->Instance->CR1, USART_CR1_RE) != 0U) && (Flag != UART_FLAG_TXE) && (Flag != UART_FLAG_TC))
 8005786:	6821      	ldr	r1, [r4, #0]
 8005788:	680b      	ldr	r3, [r1, #0]
 800578a:	075a      	lsls	r2, r3, #29
 800578c:	d5e4      	bpl.n	8005758 <UART_WaitOnFlagUntilTimeout+0x10>
 800578e:	2d80      	cmp	r5, #128	@ 0x80
 8005790:	d0e2      	beq.n	8005758 <UART_WaitOnFlagUntilTimeout+0x10>
 8005792:	2d40      	cmp	r5, #64	@ 0x40
 8005794:	d0e0      	beq.n	8005758 <UART_WaitOnFlagUntilTimeout+0x10>
        if (__HAL_UART_GET_FLAG(huart, UART_FLAG_ORE) == SET)
 8005796:	69ce      	ldr	r6, [r1, #28]
 8005798:	f016 0608 	ands.w	r6, r6, #8
 800579c:	d00c      	beq.n	80057b8 <UART_WaitOnFlagUntilTimeout+0x70>
          __HAL_UART_CLEAR_FLAG(huart, UART_CLEAR_OREF);
 800579e:	2508      	movs	r5, #8
          UART_EndRxTransfer(huart);
 80057a0:	4620      	mov	r0, r4
          __HAL_UART_CLEAR_FLAG(huart, UART_CLEAR_OREF);
 80057a2:	620d      	str	r5, [r1, #32]
          UART_EndRxTransfer(huart);
 80057a4:	f7ff fc74 	bl	8005090 <UART_EndRxTransfer>
          __HAL_UNLOCK(huart);
 80057a8:	2300      	movs	r3, #0
          huart->ErrorCode = HAL_UART_ERROR_ORE;
 80057aa:	f8c4 5084 	str.w	r5, [r4, #132]	@ 0x84
          __HAL_UNLOCK(huart);
 80057ae:	f884 3078 	strb.w	r3, [r4, #120]	@ 0x78
          return HAL_ERROR;
 80057b2:	2001      	movs	r0, #1
}
 80057b4:	e8bd 83f8 	ldmia.w	sp!, {r3, r4, r5, r6, r7, r8, r9, pc}
        if (__HAL_UART_GET_FLAG(huart, UART_FLAG_RTOF) == SET)
 80057b8:	69cb      	ldr	r3, [r1, #28]
 80057ba:	051b      	lsls	r3, r3, #20
 80057bc:	d5cc      	bpl.n	8005758 <UART_WaitOnFlagUntilTimeout+0x10>
          __HAL_UART_CLEAR_FLAG(huart, UART_CLEAR_RTOF);
 80057be:	f44f 6300 	mov.w	r3, #2048	@ 0x800
 80057c2:	620b      	str	r3, [r1, #32]
          UART_EndRxTransfer(huart);
 80057c4:	4620      	mov	r0, r4
 80057c6:	f7ff fc63 	bl	8005090 <UART_EndRxTransfer>
          huart->ErrorCode = HAL_UART_ERROR_RTO;
 80057ca:	2320      	movs	r3, #32
 80057cc:	f8c4 3084 	str.w	r3, [r4, #132]	@ 0x84
          __HAL_UNLOCK(huart);
 80057d0:	f884 6078 	strb.w	r6, [r4, #120]	@ 0x78
        return HAL_TIMEOUT;
 80057d4:	2003      	movs	r0, #3
 80057d6:	e7ed      	b.n	80057b4 <UART_WaitOnFlagUntilTimeout+0x6c>

080057d8 <UART_CheckIdleState>:
{
 80057d8:	b573      	push	{r0, r1, r4, r5, r6, lr}
 80057da:	4604      	mov	r4, r0
  huart->ErrorCode = HAL_UART_ERROR_NONE;
 80057dc:	2600      	movs	r6, #0
 80057de:	f8c0 6084 	str.w	r6, [r0, #132]	@ 0x84
  tickstart = HAL_GetTick();
 80057e2:	f7fd f9dd 	bl	8002ba0 <HAL_GetTick>
  if ((huart->Instance->CR1 & USART_CR1_TE) == USART_CR1_TE)
 80057e6:	6823      	ldr	r3, [r4, #0]
 80057e8:	681b      	ldr	r3, [r3, #0]
 80057ea:	071a      	lsls	r2, r3, #28
  tickstart = HAL_GetTick();
 80057ec:	4605      	mov	r5, r0
  if ((huart->Instance->CR1 & USART_CR1_TE) == USART_CR1_TE)
 80057ee:	d51b      	bpl.n	8005828 <UART_CheckIdleState+0x50>
    if (UART_WaitOnFlagUntilTimeout(huart, USART_ISR_TEACK, RESET, tickstart, HAL_UART_TIMEOUT_VALUE) != HAL_OK)
 80057f0:	f06f 437e 	mvn.w	r3, #4261412864	@ 0xfe000000
 80057f4:	9300      	str	r3, [sp, #0]
 80057f6:	4632      	mov	r2, r6
 80057f8:	4603      	mov	r3, r0
 80057fa:	f44f 1100 	mov.w	r1, #2097152	@ 0x200000
 80057fe:	4620      	mov	r0, r4
 8005800:	f7ff ffa2 	bl	8005748 <UART_WaitOnFlagUntilTimeout>
 8005804:	b180      	cbz	r0, 8005828 <UART_CheckIdleState+0x50>
      ATOMIC_CLEAR_BIT(huart->Instance->CR1, (USART_CR1_TXEIE));
 8005806:	6822      	ldr	r2, [r4, #0]
   __ASM volatile ("ldrex %0, %1" : "=r" (result) : "Q" (*addr) );
 8005808:	e852 3f00 	ldrex	r3, [r2]
 800580c:	f023 0380 	bic.w	r3, r3, #128	@ 0x80
   __ASM volatile ("strex %0, %2, %1" : "=&r" (result), "=Q" (*addr) : "r" (value) );
 8005810:	e842 3100 	strex	r1, r3, [r2]
 8005814:	2900      	cmp	r1, #0
 8005816:	d1f6      	bne.n	8005806 <UART_CheckIdleState+0x2e>
      huart->gState = HAL_UART_STATE_READY;
 8005818:	2320      	movs	r3, #32
 800581a:	67e3      	str	r3, [r4, #124]	@ 0x7c
      return HAL_TIMEOUT;
 800581c:	2003      	movs	r0, #3
      __HAL_UNLOCK(huart);
 800581e:	2300      	movs	r3, #0
 8005820:	f884 3078 	strb.w	r3, [r4, #120]	@ 0x78
}
 8005824:	b002      	add	sp, #8
 8005826:	bd70      	pop	{r4, r5, r6, pc}
  if ((huart->Instance->CR1 & USART_CR1_RE) == USART_CR1_RE)
 8005828:	6823      	ldr	r3, [r4, #0]
 800582a:	681b      	ldr	r3, [r3, #0]
 800582c:	075b      	lsls	r3, r3, #29
 800582e:	d524      	bpl.n	800587a <UART_CheckIdleState+0xa2>
    if (UART_WaitOnFlagUntilTimeout(huart, USART_ISR_REACK, RESET, tickstart, HAL_UART_TIMEOUT_VALUE) != HAL_OK)
 8005830:	f06f 437e 	mvn.w	r3, #4261412864	@ 0xfe000000
 8005834:	9300      	str	r3, [sp, #0]
 8005836:	2200      	movs	r2, #0
 8005838:	462b      	mov	r3, r5
 800583a:	f44f 0180 	mov.w	r1, #4194304	@ 0x400000
 800583e:	4620      	mov	r0, r4
 8005840:	f7ff ff82 	bl	8005748 <UART_WaitOnFlagUntilTimeout>
 8005844:	b1c8      	cbz	r0, 800587a <UART_CheckIdleState+0xa2>
      ATOMIC_CLEAR_BIT(huart->Instance->CR1, (USART_CR1_RXNEIE | USART_CR1_PEIE));
 8005846:	6822      	ldr	r2, [r4, #0]
   __ASM volatile ("ldrex %0, %1" : "=r" (result) : "Q" (*addr) );
 8005848:	e852 3f00 	ldrex	r3, [r2]
 800584c:	f423 7390 	bic.w	r3, r3, #288	@ 0x120
   __ASM volatile ("strex %0, %2, %1" : "=&r" (result), "=Q" (*addr) : "r" (value) );
 8005850:	e842 3100 	strex	r1, r3, [r2]
   return(result);
 8005854:	6822      	ldr	r2, [r4, #0]
 8005856:	2900      	cmp	r1, #0
 8005858:	d1f5      	bne.n	8005846 <UART_CheckIdleState+0x6e>
   __ASM volatile ("ldrex %0, %1" : "=r" (result) : "Q" (*addr) );
 800585a:	f102 0308 	add.w	r3, r2, #8
 800585e:	e853 3f00 	ldrex	r3, [r3]
      ATOMIC_CLEAR_BIT(huart->Instance->CR3, USART_CR3_EIE);
 8005862:	f023 0301 	bic.w	r3, r3, #1
   __ASM volatile ("strex %0, %2, %1" : "=&r" (result), "=Q" (*addr) : "r" (value) );
 8005866:	f102 0008 	add.w	r0, r2, #8
 800586a:	e840 3100 	strex	r1, r3, [r0]
 800586e:	2900      	cmp	r1, #0
 8005870:	d1f3      	bne.n	800585a <UART_CheckIdleState+0x82>
      huart->RxState = HAL_UART_STATE_READY;
 8005872:	2320      	movs	r3, #32
 8005874:	f8c4 3080 	str.w	r3, [r4, #128]	@ 0x80
      return HAL_TIMEOUT;
 8005878:	e7d0      	b.n	800581c <UART_CheckIdleState+0x44>
  huart->gState = HAL_UART_STATE_READY;
 800587a:	2320      	movs	r3, #32
  huart->ReceptionType = HAL_UART_RECEPTION_STANDARD;
 800587c:	2000      	movs	r0, #0
  huart->gState = HAL_UART_STATE_READY;
 800587e:	67e3      	str	r3, [r4, #124]	@ 0x7c
  huart->RxState = HAL_UART_STATE_READY;
 8005880:	f8c4 3080 	str.w	r3, [r4, #128]	@ 0x80
  huart->ReceptionType = HAL_UART_RECEPTION_STANDARD;
 8005884:	6620      	str	r0, [r4, #96]	@ 0x60
  huart->RxEventType = HAL_UART_RXEVENT_TC;
 8005886:	6660      	str	r0, [r4, #100]	@ 0x64
  return HAL_OK;
 8005888:	e7c9      	b.n	800581e <UART_CheckIdleState+0x46>

0800588a <HAL_UART_Init>:
{
 800588a:	b510      	push	{r4, lr}
  if (huart == NULL)
 800588c:	4604      	mov	r4, r0
 800588e:	b340      	cbz	r0, 80058e2 <HAL_UART_Init+0x58>
  if (huart->gState == HAL_UART_STATE_RESET)
 8005890:	6fc3      	ldr	r3, [r0, #124]	@ 0x7c
 8005892:	b91b      	cbnz	r3, 800589c <HAL_UART_Init+0x12>
    huart->Lock = HAL_UNLOCKED;
 8005894:	f880 3078 	strb.w	r3, [r0, #120]	@ 0x78
    HAL_UART_MspInit(huart);
 8005898:	f7fc fdfc 	bl	8002494 <HAL_UART_MspInit>
  __HAL_UART_DISABLE(huart);
 800589c:	6822      	ldr	r2, [r4, #0]
  huart->gState = HAL_UART_STATE_BUSY;
 800589e:	2324      	movs	r3, #36	@ 0x24
 80058a0:	67e3      	str	r3, [r4, #124]	@ 0x7c
  __HAL_UART_DISABLE(huart);
 80058a2:	6813      	ldr	r3, [r2, #0]
 80058a4:	f023 0301 	bic.w	r3, r3, #1
 80058a8:	6013      	str	r3, [r2, #0]
  if (huart->AdvancedInit.AdvFeatureInit != UART_ADVFEATURE_NO_INIT)
 80058aa:	6a63      	ldr	r3, [r4, #36]	@ 0x24
 80058ac:	b113      	cbz	r3, 80058b4 <HAL_UART_Init+0x2a>
    UART_AdvFeatureConfig(huart);
 80058ae:	4620      	mov	r0, r4
 80058b0:	f7ff fef6 	bl	80056a0 <UART_AdvFeatureConfig>
  if (UART_SetConfig(huart) == HAL_ERROR)
 80058b4:	4620      	mov	r0, r4
 80058b6:	f7ff fe59 	bl	800556c <UART_SetConfig>
 80058ba:	2801      	cmp	r0, #1
 80058bc:	d011      	beq.n	80058e2 <HAL_UART_Init+0x58>
  CLEAR_BIT(huart->Instance->CR2, (USART_CR2_LINEN | USART_CR2_CLKEN));
 80058be:	6823      	ldr	r3, [r4, #0]
 80058c0:	685a      	ldr	r2, [r3, #4]
 80058c2:	f422 4290 	bic.w	r2, r2, #18432	@ 0x4800
 80058c6:	605a      	str	r2, [r3, #4]
  CLEAR_BIT(huart->Instance->CR3, (USART_CR3_SCEN | USART_CR3_HDSEL | USART_CR3_IREN));
 80058c8:	689a      	ldr	r2, [r3, #8]
 80058ca:	f022 022a 	bic.w	r2, r2, #42	@ 0x2a
 80058ce:	609a      	str	r2, [r3, #8]
  __HAL_UART_ENABLE(huart);
 80058d0:	681a      	ldr	r2, [r3, #0]
 80058d2:	f042 0201 	orr.w	r2, r2, #1
  return (UART_CheckIdleState(huart));
 80058d6:	4620      	mov	r0, r4
  __HAL_UART_ENABLE(huart);
 80058d8:	601a      	str	r2, [r3, #0]
}
 80058da:	e8bd 4010 	ldmia.w	sp!, {r4, lr}
  return (UART_CheckIdleState(huart));
 80058de:	f7ff bf7b 	b.w	80057d8 <UART_CheckIdleState>
}
 80058e2:	2001      	movs	r0, #1
 80058e4:	bd10      	pop	{r4, pc}
	...

080058e8 <UART_Start_Receive_DMA>:
{
 80058e8:	b570      	push	{r4, r5, r6, lr}
 80058ea:	4613      	mov	r3, r2
 80058ec:	4604      	mov	r4, r0
  huart->RxXferSize = Size;
 80058ee:	f8a0 2058 	strh.w	r2, [r0, #88]	@ 0x58
  huart->ErrorCode = HAL_UART_ERROR_NONE;
 80058f2:	2200      	movs	r2, #0
  huart->pRxBuffPtr = pData;
 80058f4:	6541      	str	r1, [r0, #84]	@ 0x54
  huart->ErrorCode = HAL_UART_ERROR_NONE;
 80058f6:	f8c0 2084 	str.w	r2, [r0, #132]	@ 0x84
  huart->RxState = HAL_UART_STATE_BUSY_RX;
 80058fa:	2022      	movs	r0, #34	@ 0x22
 80058fc:	f8c4 0080 	str.w	r0, [r4, #128]	@ 0x80
  if (huart->hdmarx != NULL)
 8005900:	6f60      	ldr	r0, [r4, #116]	@ 0x74
    if (HAL_DMA_Start_IT(huart->hdmarx, (uint32_t)&huart->Instance->RDR, (uint32_t)huart->pRxBuffPtr, Size) != HAL_OK)
 8005902:	6825      	ldr	r5, [r4, #0]
  if (huart->hdmarx != NULL)
 8005904:	b1a0      	cbz	r0, 8005930 <UART_Start_Receive_DMA+0x48>
    huart->hdmarx->XferCpltCallback = UART_DMAReceiveCplt;
 8005906:	4e1c      	ldr	r6, [pc, #112]	@ (8005978 <UART_Start_Receive_DMA+0x90>)
 8005908:	6286      	str	r6, [r0, #40]	@ 0x28
    huart->hdmarx->XferHalfCpltCallback = UART_DMARxHalfCplt;
 800590a:	4e1c      	ldr	r6, [pc, #112]	@ (800597c <UART_Start_Receive_DMA+0x94>)
 800590c:	62c6      	str	r6, [r0, #44]	@ 0x2c
    huart->hdmarx->XferErrorCallback = UART_DMAError;
 800590e:	4e1c      	ldr	r6, [pc, #112]	@ (8005980 <UART_Start_Receive_DMA+0x98>)
    huart->hdmarx->XferAbortCallback = NULL;
 8005910:	e9c0 620c 	strd	r6, r2, [r0, #48]	@ 0x30
    if (HAL_DMA_Start_IT(huart->hdmarx, (uint32_t)&huart->Instance->RDR, (uint32_t)huart->pRxBuffPtr, Size) != HAL_OK)
 8005914:	460a      	mov	r2, r1
 8005916:	f105 0124 	add.w	r1, r5, #36	@ 0x24
 800591a:	f7fd fab9 	bl	8002e90 <HAL_DMA_Start_IT>
 800591e:	b138      	cbz	r0, 8005930 <UART_Start_Receive_DMA+0x48>
      huart->ErrorCode = HAL_UART_ERROR_DMA;
 8005920:	2310      	movs	r3, #16
 8005922:	f8c4 3084 	str.w	r3, [r4, #132]	@ 0x84
      huart->RxState = HAL_UART_STATE_READY;
 8005926:	2320      	movs	r3, #32
 8005928:	f8c4 3080 	str.w	r3, [r4, #128]	@ 0x80
      return HAL_ERROR;
 800592c:	2001      	movs	r0, #1
}
 800592e:	bd70      	pop	{r4, r5, r6, pc}
  if (huart->Init.Parity != UART_PARITY_NONE)
 8005930:	6922      	ldr	r2, [r4, #16]
 8005932:	6823      	ldr	r3, [r4, #0]
 8005934:	b13a      	cbz	r2, 8005946 <UART_Start_Receive_DMA+0x5e>
   __ASM volatile ("ldrex %0, %1" : "=r" (result) : "Q" (*addr) );
 8005936:	e853 2f00 	ldrex	r2, [r3]
    ATOMIC_SET_BIT(huart->Instance->CR1, USART_CR1_PEIE);
 800593a:	f442 7280 	orr.w	r2, r2, #256	@ 0x100
   __ASM volatile ("strex %0, %2, %1" : "=&r" (result), "=Q" (*addr) : "r" (value) );
 800593e:	e843 2100 	strex	r1, r2, [r3]
 8005942:	2900      	cmp	r1, #0
 8005944:	d1f7      	bne.n	8005936 <UART_Start_Receive_DMA+0x4e>
   __ASM volatile ("ldrex %0, %1" : "=r" (result) : "Q" (*addr) );
 8005946:	f103 0208 	add.w	r2, r3, #8
 800594a:	e852 2f00 	ldrex	r2, [r2]
  ATOMIC_SET_BIT(huart->Instance->CR3, USART_CR3_EIE);
 800594e:	f042 0201 	orr.w	r2, r2, #1
   __ASM volatile ("strex %0, %2, %1" : "=&r" (result), "=Q" (*addr) : "r" (value) );
 8005952:	f103 0008 	add.w	r0, r3, #8
 8005956:	e840 2100 	strex	r1, r2, [r0]
 800595a:	2900      	cmp	r1, #0
 800595c:	d1f3      	bne.n	8005946 <UART_Start_Receive_DMA+0x5e>
   __ASM volatile ("ldrex %0, %1" : "=r" (result) : "Q" (*addr) );
 800595e:	f103 0208 	add.w	r2, r3, #8
 8005962:	e852 2f00 	ldrex	r2, [r2]
  ATOMIC_SET_BIT(huart->Instance->CR3, USART_CR3_DMAR);
 8005966:	f042 0240 	orr.w	r2, r2, #64	@ 0x40
   __ASM volatile ("strex %0, %2, %1" : "=&r" (result), "=Q" (*addr) : "r" (value) );
 800596a:	f103 0108 	add.w	r1, r3, #8
 800596e:	e841 2000 	strex	r0, r2, [r1]
 8005972:	2800      	cmp	r0, #0
 8005974:	d1f3      	bne.n	800595e <UART_Start_Receive_DMA+0x76>
 8005976:	e7da      	b.n	800592e <UART_Start_Receive_DMA+0x46>
 8005978:	080054e1 	.word	0x080054e1
 800597c:	080054c1 	.word	0x080054c1
 8005980:	080051b5 	.word	0x080051b5

08005984 <HAL_UARTEx_WakeupCallback>:
  UNUSED(huart);

  /* NOTE : This function should not be modified, when the callback is needed,
            the HAL_UARTEx_WakeupCallback can be implemented in the user file.
   */
}
 8005984:	4770      	bx	lr

08005986 <HAL_UARTEx_ReceiveToIdle_DMA>:
  * @param pData Pointer to data buffer (uint8_t or uint16_t data elements).
  * @param Size  Amount of data elements (uint8_t or uint16_t) to be received.
  * @retval HAL status
  */
HAL_StatusTypeDef HAL_UARTEx_ReceiveToIdle_DMA(UART_HandleTypeDef *huart, uint8_t *pData, uint16_t Size)
{
 8005986:	b570      	push	{r4, r5, r6, lr}
  HAL_StatusTypeDef status;

  /* Check that a Rx process is not already ongoing */
  if (huart->RxState == HAL_UART_STATE_READY)
 8005988:	f8d0 6080 	ldr.w	r6, [r0, #128]	@ 0x80
 800598c:	2e20      	cmp	r6, #32
{
 800598e:	4604      	mov	r4, r0
  if (huart->RxState == HAL_UART_STATE_READY)
 8005990:	d11c      	bne.n	80059cc <HAL_UARTEx_ReceiveToIdle_DMA+0x46>
  {
    if ((pData == NULL) || (Size == 0U))
 8005992:	b909      	cbnz	r1, 8005998 <HAL_UARTEx_ReceiveToIdle_DMA+0x12>
    {
      return HAL_ERROR;
 8005994:	2001      	movs	r0, #1
  }
  else
  {
    return HAL_BUSY;
  }
}
 8005996:	bd70      	pop	{r4, r5, r6, pc}
    if ((pData == NULL) || (Size == 0U))
 8005998:	2a00      	cmp	r2, #0
 800599a:	d0fb      	beq.n	8005994 <HAL_UARTEx_ReceiveToIdle_DMA+0xe>
    huart->ReceptionType = HAL_UART_RECEPTION_TOIDLE;
 800599c:	2301      	movs	r3, #1
 800599e:	6603      	str	r3, [r0, #96]	@ 0x60
    huart->RxEventType = HAL_UART_RXEVENT_TC;
 80059a0:	2300      	movs	r3, #0
 80059a2:	6643      	str	r3, [r0, #100]	@ 0x64
    status =  UART_Start_Receive_DMA(huart, pData, Size);
 80059a4:	f7ff ffa0 	bl	80058e8 <UART_Start_Receive_DMA>
    if (status == HAL_OK)
 80059a8:	2800      	cmp	r0, #0
 80059aa:	d1f4      	bne.n	8005996 <HAL_UARTEx_ReceiveToIdle_DMA+0x10>
      if (huart->ReceptionType == HAL_UART_RECEPTION_TOIDLE)
 80059ac:	6e23      	ldr	r3, [r4, #96]	@ 0x60
 80059ae:	2b01      	cmp	r3, #1
 80059b0:	d1f0      	bne.n	8005994 <HAL_UARTEx_ReceiveToIdle_DMA+0xe>
        __HAL_UART_CLEAR_FLAG(huart, UART_CLEAR_IDLEF);
 80059b2:	6823      	ldr	r3, [r4, #0]
 80059b4:	2210      	movs	r2, #16
 80059b6:	621a      	str	r2, [r3, #32]
 80059b8:	6822      	ldr	r2, [r4, #0]
   __ASM volatile ("ldrex %0, %1" : "=r" (result) : "Q" (*addr) );
 80059ba:	e852 3f00 	ldrex	r3, [r2]
        ATOMIC_SET_BIT(huart->Instance->CR1, USART_CR1_IDLEIE);
 80059be:	f043 0310 	orr.w	r3, r3, #16
   __ASM volatile ("strex %0, %2, %1" : "=&r" (result), "=Q" (*addr) : "r" (value) );
 80059c2:	e842 3100 	strex	r1, r3, [r2]
 80059c6:	2900      	cmp	r1, #0
 80059c8:	d1f7      	bne.n	80059ba <HAL_UARTEx_ReceiveToIdle_DMA+0x34>
 80059ca:	e7e4      	b.n	8005996 <HAL_UARTEx_ReceiveToIdle_DMA+0x10>
    return HAL_BUSY;
 80059cc:	2002      	movs	r0, #2
 80059ce:	e7e2      	b.n	8005996 <HAL_UARTEx_ReceiveToIdle_DMA+0x10>

080059d0 <asin>:
 80059d0:	b538      	push	{r3, r4, r5, lr}
 80059d2:	ed2d 8b02 	vpush	{d8}
 80059d6:	ec55 4b10 	vmov	r4, r5, d0
 80059da:	f000 fbed 	bl	80061b8 <__ieee754_asin>
 80059de:	4622      	mov	r2, r4
 80059e0:	462b      	mov	r3, r5
 80059e2:	4620      	mov	r0, r4
 80059e4:	4629      	mov	r1, r5
 80059e6:	eeb0 8a40 	vmov.f32	s16, s0
 80059ea:	eef0 8a60 	vmov.f32	s17, s1
 80059ee:	f7fb f89d 	bl	8000b2c <__aeabi_dcmpun>
 80059f2:	b9a8      	cbnz	r0, 8005a20 <asin+0x50>
 80059f4:	ec45 4b10 	vmov	d0, r4, r5
 80059f8:	f000 f912 	bl	8005c20 <fabs>
 80059fc:	4b0c      	ldr	r3, [pc, #48]	@ (8005a30 <asin+0x60>)
 80059fe:	ec51 0b10 	vmov	r0, r1, d0
 8005a02:	2200      	movs	r2, #0
 8005a04:	f7fb f888 	bl	8000b18 <__aeabi_dcmpgt>
 8005a08:	b150      	cbz	r0, 8005a20 <asin+0x50>
 8005a0a:	f004 fb3f 	bl	800a08c <__errno>
 8005a0e:	ecbd 8b02 	vpop	{d8}
 8005a12:	2321      	movs	r3, #33	@ 0x21
 8005a14:	6003      	str	r3, [r0, #0]
 8005a16:	e8bd 4038 	ldmia.w	sp!, {r3, r4, r5, lr}
 8005a1a:	4806      	ldr	r0, [pc, #24]	@ (8005a34 <asin+0x64>)
 8005a1c:	f000 b968 	b.w	8005cf0 <nan>
 8005a20:	eeb0 0a48 	vmov.f32	s0, s16
 8005a24:	eef0 0a68 	vmov.f32	s1, s17
 8005a28:	ecbd 8b02 	vpop	{d8}
 8005a2c:	bd38      	pop	{r3, r4, r5, pc}
 8005a2e:	bf00      	nop
 8005a30:	3ff00000 	.word	0x3ff00000
 8005a34:	0800c9b1 	.word	0x0800c9b1

08005a38 <atan2>:
 8005a38:	f000 bdc2 	b.w	80065c0 <__ieee754_atan2>

08005a3c <pow>:
 8005a3c:	b5f8      	push	{r3, r4, r5, r6, r7, lr}
 8005a3e:	ed2d 8b02 	vpush	{d8}
 8005a42:	eeb0 8a40 	vmov.f32	s16, s0
 8005a46:	eef0 8a60 	vmov.f32	s17, s1
 8005a4a:	ec55 4b11 	vmov	r4, r5, d1
 8005a4e:	f000 fe7f 	bl	8006750 <__ieee754_pow>
 8005a52:	4622      	mov	r2, r4
 8005a54:	462b      	mov	r3, r5
 8005a56:	4620      	mov	r0, r4
 8005a58:	4629      	mov	r1, r5
 8005a5a:	ec57 6b10 	vmov	r6, r7, d0
 8005a5e:	f7fb f865 	bl	8000b2c <__aeabi_dcmpun>
 8005a62:	2800      	cmp	r0, #0
 8005a64:	d13b      	bne.n	8005ade <pow+0xa2>
 8005a66:	ec51 0b18 	vmov	r0, r1, d8
 8005a6a:	2200      	movs	r2, #0
 8005a6c:	2300      	movs	r3, #0
 8005a6e:	f7fb f82b 	bl	8000ac8 <__aeabi_dcmpeq>
 8005a72:	b1b8      	cbz	r0, 8005aa4 <pow+0x68>
 8005a74:	2200      	movs	r2, #0
 8005a76:	2300      	movs	r3, #0
 8005a78:	4620      	mov	r0, r4
 8005a7a:	4629      	mov	r1, r5
 8005a7c:	f7fb f824 	bl	8000ac8 <__aeabi_dcmpeq>
 8005a80:	2800      	cmp	r0, #0
 8005a82:	d146      	bne.n	8005b12 <pow+0xd6>
 8005a84:	ec45 4b10 	vmov	d0, r4, r5
 8005a88:	f000 f926 	bl	8005cd8 <finite>
 8005a8c:	b338      	cbz	r0, 8005ade <pow+0xa2>
 8005a8e:	2200      	movs	r2, #0
 8005a90:	2300      	movs	r3, #0
 8005a92:	4620      	mov	r0, r4
 8005a94:	4629      	mov	r1, r5
 8005a96:	f7fb f821 	bl	8000adc <__aeabi_dcmplt>
 8005a9a:	b300      	cbz	r0, 8005ade <pow+0xa2>
 8005a9c:	f004 faf6 	bl	800a08c <__errno>
 8005aa0:	2322      	movs	r3, #34	@ 0x22
 8005aa2:	e01b      	b.n	8005adc <pow+0xa0>
 8005aa4:	ec47 6b10 	vmov	d0, r6, r7
 8005aa8:	f000 f916 	bl	8005cd8 <finite>
 8005aac:	b9e0      	cbnz	r0, 8005ae8 <pow+0xac>
 8005aae:	eeb0 0a48 	vmov.f32	s0, s16
 8005ab2:	eef0 0a68 	vmov.f32	s1, s17
 8005ab6:	f000 f90f 	bl	8005cd8 <finite>
 8005aba:	b1a8      	cbz	r0, 8005ae8 <pow+0xac>
 8005abc:	ec45 4b10 	vmov	d0, r4, r5
 8005ac0:	f000 f90a 	bl	8005cd8 <finite>
 8005ac4:	b180      	cbz	r0, 8005ae8 <pow+0xac>
 8005ac6:	4632      	mov	r2, r6
 8005ac8:	463b      	mov	r3, r7
 8005aca:	4630      	mov	r0, r6
 8005acc:	4639      	mov	r1, r7
 8005ace:	f7fb f82d 	bl	8000b2c <__aeabi_dcmpun>
 8005ad2:	2800      	cmp	r0, #0
 8005ad4:	d0e2      	beq.n	8005a9c <pow+0x60>
 8005ad6:	f004 fad9 	bl	800a08c <__errno>
 8005ada:	2321      	movs	r3, #33	@ 0x21
 8005adc:	6003      	str	r3, [r0, #0]
 8005ade:	ecbd 8b02 	vpop	{d8}
 8005ae2:	ec47 6b10 	vmov	d0, r6, r7
 8005ae6:	bdf8      	pop	{r3, r4, r5, r6, r7, pc}
 8005ae8:	2200      	movs	r2, #0
 8005aea:	2300      	movs	r3, #0
 8005aec:	4630      	mov	r0, r6
 8005aee:	4639      	mov	r1, r7
 8005af0:	f7fa ffea 	bl	8000ac8 <__aeabi_dcmpeq>
 8005af4:	2800      	cmp	r0, #0
 8005af6:	d0f2      	beq.n	8005ade <pow+0xa2>
 8005af8:	eeb0 0a48 	vmov.f32	s0, s16
 8005afc:	eef0 0a68 	vmov.f32	s1, s17
 8005b00:	f000 f8ea 	bl	8005cd8 <finite>
 8005b04:	2800      	cmp	r0, #0
 8005b06:	d0ea      	beq.n	8005ade <pow+0xa2>
 8005b08:	ec45 4b10 	vmov	d0, r4, r5
 8005b0c:	f000 f8e4 	bl	8005cd8 <finite>
 8005b10:	e7c3      	b.n	8005a9a <pow+0x5e>
 8005b12:	4f01      	ldr	r7, [pc, #4]	@ (8005b18 <pow+0xdc>)
 8005b14:	2600      	movs	r6, #0
 8005b16:	e7e2      	b.n	8005ade <pow+0xa2>
 8005b18:	3ff00000 	.word	0x3ff00000

08005b1c <sqrt>:
 8005b1c:	b538      	push	{r3, r4, r5, lr}
 8005b1e:	ed2d 8b02 	vpush	{d8}
 8005b22:	ec55 4b10 	vmov	r4, r5, d0
 8005b26:	f000 f8eb 	bl	8005d00 <__ieee754_sqrt>
 8005b2a:	4622      	mov	r2, r4
 8005b2c:	462b      	mov	r3, r5
 8005b2e:	4620      	mov	r0, r4
 8005b30:	4629      	mov	r1, r5
 8005b32:	eeb0 8a40 	vmov.f32	s16, s0
 8005b36:	eef0 8a60 	vmov.f32	s17, s1
 8005b3a:	f7fa fff7 	bl	8000b2c <__aeabi_dcmpun>
 8005b3e:	b990      	cbnz	r0, 8005b66 <sqrt+0x4a>
 8005b40:	2200      	movs	r2, #0
 8005b42:	2300      	movs	r3, #0
 8005b44:	4620      	mov	r0, r4
 8005b46:	4629      	mov	r1, r5
 8005b48:	f7fa ffc8 	bl	8000adc <__aeabi_dcmplt>
 8005b4c:	b158      	cbz	r0, 8005b66 <sqrt+0x4a>
 8005b4e:	f004 fa9d 	bl	800a08c <__errno>
 8005b52:	2321      	movs	r3, #33	@ 0x21
 8005b54:	6003      	str	r3, [r0, #0]
 8005b56:	2200      	movs	r2, #0
 8005b58:	2300      	movs	r3, #0
 8005b5a:	4610      	mov	r0, r2
 8005b5c:	4619      	mov	r1, r3
 8005b5e:	f7fa fe75 	bl	800084c <__aeabi_ddiv>
 8005b62:	ec41 0b18 	vmov	d8, r0, r1
 8005b66:	eeb0 0a48 	vmov.f32	s0, s16
 8005b6a:	eef0 0a68 	vmov.f32	s1, s17
 8005b6e:	ecbd 8b02 	vpop	{d8}
 8005b72:	bd38      	pop	{r3, r4, r5, pc}
 8005b74:	0000      	movs	r0, r0
	...

08005b78 <cos>:
 8005b78:	b51f      	push	{r0, r1, r2, r3, r4, lr}
 8005b7a:	ec53 2b10 	vmov	r2, r3, d0
 8005b7e:	4826      	ldr	r0, [pc, #152]	@ (8005c18 <cos+0xa0>)
 8005b80:	f023 4100 	bic.w	r1, r3, #2147483648	@ 0x80000000
 8005b84:	4281      	cmp	r1, r0
 8005b86:	d806      	bhi.n	8005b96 <cos+0x1e>
 8005b88:	ed9f 1b21 	vldr	d1, [pc, #132]	@ 8005c10 <cos+0x98>
 8005b8c:	b005      	add	sp, #20
 8005b8e:	f85d eb04 	ldr.w	lr, [sp], #4
 8005b92:	f000 b98d 	b.w	8005eb0 <__kernel_cos>
 8005b96:	4821      	ldr	r0, [pc, #132]	@ (8005c1c <cos+0xa4>)
 8005b98:	4281      	cmp	r1, r0
 8005b9a:	d908      	bls.n	8005bae <cos+0x36>
 8005b9c:	4610      	mov	r0, r2
 8005b9e:	4619      	mov	r1, r3
 8005ba0:	f7fa fb72 	bl	8000288 <__aeabi_dsub>
 8005ba4:	ec41 0b10 	vmov	d0, r0, r1
 8005ba8:	b005      	add	sp, #20
 8005baa:	f85d fb04 	ldr.w	pc, [sp], #4
 8005bae:	4668      	mov	r0, sp
 8005bb0:	f001 fb1a 	bl	80071e8 <__ieee754_rem_pio2>
 8005bb4:	f000 0003 	and.w	r0, r0, #3
 8005bb8:	2801      	cmp	r0, #1
 8005bba:	d00b      	beq.n	8005bd4 <cos+0x5c>
 8005bbc:	2802      	cmp	r0, #2
 8005bbe:	d015      	beq.n	8005bec <cos+0x74>
 8005bc0:	b9d8      	cbnz	r0, 8005bfa <cos+0x82>
 8005bc2:	ed9d 1b02 	vldr	d1, [sp, #8]
 8005bc6:	ed9d 0b00 	vldr	d0, [sp]
 8005bca:	f000 f971 	bl	8005eb0 <__kernel_cos>
 8005bce:	ec51 0b10 	vmov	r0, r1, d0
 8005bd2:	e7e7      	b.n	8005ba4 <cos+0x2c>
 8005bd4:	ed9d 1b02 	vldr	d1, [sp, #8]
 8005bd8:	ed9d 0b00 	vldr	d0, [sp]
 8005bdc:	f000 fa30 	bl	8006040 <__kernel_sin>
 8005be0:	ec53 2b10 	vmov	r2, r3, d0
 8005be4:	4610      	mov	r0, r2
 8005be6:	f103 4100 	add.w	r1, r3, #2147483648	@ 0x80000000
 8005bea:	e7db      	b.n	8005ba4 <cos+0x2c>
 8005bec:	ed9d 1b02 	vldr	d1, [sp, #8]
 8005bf0:	ed9d 0b00 	vldr	d0, [sp]
 8005bf4:	f000 f95c 	bl	8005eb0 <__kernel_cos>
 8005bf8:	e7f2      	b.n	8005be0 <cos+0x68>
 8005bfa:	ed9d 1b02 	vldr	d1, [sp, #8]
 8005bfe:	ed9d 0b00 	vldr	d0, [sp]
 8005c02:	2001      	movs	r0, #1
 8005c04:	f000 fa1c 	bl	8006040 <__kernel_sin>
 8005c08:	e7e1      	b.n	8005bce <cos+0x56>
 8005c0a:	bf00      	nop
 8005c0c:	f3af 8000 	nop.w
	...
 8005c18:	3fe921fb 	.word	0x3fe921fb
 8005c1c:	7fefffff 	.word	0x7fefffff

08005c20 <fabs>:
 8005c20:	ec51 0b10 	vmov	r0, r1, d0
 8005c24:	4602      	mov	r2, r0
 8005c26:	f021 4300 	bic.w	r3, r1, #2147483648	@ 0x80000000
 8005c2a:	ec43 2b10 	vmov	d0, r2, r3
 8005c2e:	4770      	bx	lr

08005c30 <sin>:
 8005c30:	b51f      	push	{r0, r1, r2, r3, r4, lr}
 8005c32:	ec53 2b10 	vmov	r2, r3, d0
 8005c36:	4826      	ldr	r0, [pc, #152]	@ (8005cd0 <sin+0xa0>)
 8005c38:	f023 4100 	bic.w	r1, r3, #2147483648	@ 0x80000000
 8005c3c:	4281      	cmp	r1, r0
 8005c3e:	d807      	bhi.n	8005c50 <sin+0x20>
 8005c40:	ed9f 1b21 	vldr	d1, [pc, #132]	@ 8005cc8 <sin+0x98>
 8005c44:	2000      	movs	r0, #0
 8005c46:	b005      	add	sp, #20
 8005c48:	f85d eb04 	ldr.w	lr, [sp], #4
 8005c4c:	f000 b9f8 	b.w	8006040 <__kernel_sin>
 8005c50:	4820      	ldr	r0, [pc, #128]	@ (8005cd4 <sin+0xa4>)
 8005c52:	4281      	cmp	r1, r0
 8005c54:	d908      	bls.n	8005c68 <sin+0x38>
 8005c56:	4610      	mov	r0, r2
 8005c58:	4619      	mov	r1, r3
 8005c5a:	f7fa fb15 	bl	8000288 <__aeabi_dsub>
 8005c5e:	ec41 0b10 	vmov	d0, r0, r1
 8005c62:	b005      	add	sp, #20
 8005c64:	f85d fb04 	ldr.w	pc, [sp], #4
 8005c68:	4668      	mov	r0, sp
 8005c6a:	f001 fabd 	bl	80071e8 <__ieee754_rem_pio2>
 8005c6e:	f000 0003 	and.w	r0, r0, #3
 8005c72:	2801      	cmp	r0, #1
 8005c74:	d00c      	beq.n	8005c90 <sin+0x60>
 8005c76:	2802      	cmp	r0, #2
 8005c78:	d011      	beq.n	8005c9e <sin+0x6e>
 8005c7a:	b9e8      	cbnz	r0, 8005cb8 <sin+0x88>
 8005c7c:	ed9d 1b02 	vldr	d1, [sp, #8]
 8005c80:	ed9d 0b00 	vldr	d0, [sp]
 8005c84:	2001      	movs	r0, #1
 8005c86:	f000 f9db 	bl	8006040 <__kernel_sin>
 8005c8a:	ec51 0b10 	vmov	r0, r1, d0
 8005c8e:	e7e6      	b.n	8005c5e <sin+0x2e>
 8005c90:	ed9d 1b02 	vldr	d1, [sp, #8]
 8005c94:	ed9d 0b00 	vldr	d0, [sp]
 8005c98:	f000 f90a 	bl	8005eb0 <__kernel_cos>
 8005c9c:	e7f5      	b.n	8005c8a <sin+0x5a>
 8005c9e:	ed9d 1b02 	vldr	d1, [sp, #8]
 8005ca2:	ed9d 0b00 	vldr	d0, [sp]
 8005ca6:	2001      	movs	r0, #1
 8005ca8:	f000 f9ca 	bl	8006040 <__kernel_sin>
 8005cac:	ec53 2b10 	vmov	r2, r3, d0
 8005cb0:	4610      	mov	r0, r2
 8005cb2:	f103 4100 	add.w	r1, r3, #2147483648	@ 0x80000000
 8005cb6:	e7d2      	b.n	8005c5e <sin+0x2e>
 8005cb8:	ed9d 1b02 	vldr	d1, [sp, #8]
 8005cbc:	ed9d 0b00 	vldr	d0, [sp]
 8005cc0:	f000 f8f6 	bl	8005eb0 <__kernel_cos>
 8005cc4:	e7f2      	b.n	8005cac <sin+0x7c>
 8005cc6:	bf00      	nop
	...
 8005cd0:	3fe921fb 	.word	0x3fe921fb
 8005cd4:	7fefffff 	.word	0x7fefffff

08005cd8 <finite>:
 8005cd8:	b082      	sub	sp, #8
 8005cda:	ed8d 0b00 	vstr	d0, [sp]
 8005cde:	9801      	ldr	r0, [sp, #4]
 8005ce0:	f040 4000 	orr.w	r0, r0, #2147483648	@ 0x80000000
 8005ce4:	f500 1080 	add.w	r0, r0, #1048576	@ 0x100000
 8005ce8:	0fc0      	lsrs	r0, r0, #31
 8005cea:	b002      	add	sp, #8
 8005cec:	4770      	bx	lr
	...

08005cf0 <nan>:
 8005cf0:	ed9f 0b01 	vldr	d0, [pc, #4]	@ 8005cf8 <nan+0x8>
 8005cf4:	4770      	bx	lr
 8005cf6:	bf00      	nop
 8005cf8:	00000000 	.word	0x00000000
 8005cfc:	7ff80000 	.word	0x7ff80000

08005d00 <__ieee754_sqrt>:
 8005d00:	e92d 4ff8 	stmdb	sp!, {r3, r4, r5, r6, r7, r8, r9, sl, fp, lr}
 8005d04:	4a66      	ldr	r2, [pc, #408]	@ (8005ea0 <__ieee754_sqrt+0x1a0>)
 8005d06:	ec55 4b10 	vmov	r4, r5, d0
 8005d0a:	43aa      	bics	r2, r5
 8005d0c:	462b      	mov	r3, r5
 8005d0e:	4621      	mov	r1, r4
 8005d10:	d110      	bne.n	8005d34 <__ieee754_sqrt+0x34>
 8005d12:	4622      	mov	r2, r4
 8005d14:	4620      	mov	r0, r4
 8005d16:	4629      	mov	r1, r5
 8005d18:	f7fa fc6e 	bl	80005f8 <__aeabi_dmul>
 8005d1c:	4602      	mov	r2, r0
 8005d1e:	460b      	mov	r3, r1
 8005d20:	4620      	mov	r0, r4
 8005d22:	4629      	mov	r1, r5
 8005d24:	f7fa fab2 	bl	800028c <__adddf3>
 8005d28:	4604      	mov	r4, r0
 8005d2a:	460d      	mov	r5, r1
 8005d2c:	ec45 4b10 	vmov	d0, r4, r5
 8005d30:	e8bd 8ff8 	ldmia.w	sp!, {r3, r4, r5, r6, r7, r8, r9, sl, fp, pc}
 8005d34:	2d00      	cmp	r5, #0
 8005d36:	dc0e      	bgt.n	8005d56 <__ieee754_sqrt+0x56>
 8005d38:	f025 4200 	bic.w	r2, r5, #2147483648	@ 0x80000000
 8005d3c:	4322      	orrs	r2, r4
 8005d3e:	d0f5      	beq.n	8005d2c <__ieee754_sqrt+0x2c>
 8005d40:	b19d      	cbz	r5, 8005d6a <__ieee754_sqrt+0x6a>
 8005d42:	4622      	mov	r2, r4
 8005d44:	4620      	mov	r0, r4
 8005d46:	4629      	mov	r1, r5
 8005d48:	f7fa fa9e 	bl	8000288 <__aeabi_dsub>
 8005d4c:	4602      	mov	r2, r0
 8005d4e:	460b      	mov	r3, r1
 8005d50:	f7fa fd7c 	bl	800084c <__aeabi_ddiv>
 8005d54:	e7e8      	b.n	8005d28 <__ieee754_sqrt+0x28>
 8005d56:	152a      	asrs	r2, r5, #20
 8005d58:	d115      	bne.n	8005d86 <__ieee754_sqrt+0x86>
 8005d5a:	2000      	movs	r0, #0
 8005d5c:	e009      	b.n	8005d72 <__ieee754_sqrt+0x72>
 8005d5e:	0acb      	lsrs	r3, r1, #11
 8005d60:	3a15      	subs	r2, #21
 8005d62:	0549      	lsls	r1, r1, #21
 8005d64:	2b00      	cmp	r3, #0
 8005d66:	d0fa      	beq.n	8005d5e <__ieee754_sqrt+0x5e>
 8005d68:	e7f7      	b.n	8005d5a <__ieee754_sqrt+0x5a>
 8005d6a:	462a      	mov	r2, r5
 8005d6c:	e7fa      	b.n	8005d64 <__ieee754_sqrt+0x64>
 8005d6e:	005b      	lsls	r3, r3, #1
 8005d70:	3001      	adds	r0, #1
 8005d72:	02dc      	lsls	r4, r3, #11
 8005d74:	d5fb      	bpl.n	8005d6e <__ieee754_sqrt+0x6e>
 8005d76:	1e44      	subs	r4, r0, #1
 8005d78:	1b12      	subs	r2, r2, r4
 8005d7a:	f1c0 0420 	rsb	r4, r0, #32
 8005d7e:	fa21 f404 	lsr.w	r4, r1, r4
 8005d82:	4323      	orrs	r3, r4
 8005d84:	4081      	lsls	r1, r0
 8005d86:	f3c3 0313 	ubfx	r3, r3, #0, #20
 8005d8a:	f2a2 37ff 	subw	r7, r2, #1023	@ 0x3ff
 8005d8e:	f443 1380 	orr.w	r3, r3, #1048576	@ 0x100000
 8005d92:	07d2      	lsls	r2, r2, #31
 8005d94:	bf5c      	itt	pl
 8005d96:	005b      	lslpl	r3, r3, #1
 8005d98:	eb03 73d1 	addpl.w	r3, r3, r1, lsr #31
 8005d9c:	ea4f 0343 	mov.w	r3, r3, lsl #1
 8005da0:	bf58      	it	pl
 8005da2:	0049      	lslpl	r1, r1, #1
 8005da4:	2600      	movs	r6, #0
 8005da6:	eb03 73d1 	add.w	r3, r3, r1, lsr #31
 8005daa:	107f      	asrs	r7, r7, #1
 8005dac:	0049      	lsls	r1, r1, #1
 8005dae:	2016      	movs	r0, #22
 8005db0:	4632      	mov	r2, r6
 8005db2:	f44f 1400 	mov.w	r4, #2097152	@ 0x200000
 8005db6:	1915      	adds	r5, r2, r4
 8005db8:	429d      	cmp	r5, r3
 8005dba:	bfde      	ittt	le
 8005dbc:	192a      	addle	r2, r5, r4
 8005dbe:	1b5b      	suble	r3, r3, r5
 8005dc0:	1936      	addle	r6, r6, r4
 8005dc2:	0fcd      	lsrs	r5, r1, #31
 8005dc4:	3801      	subs	r0, #1
 8005dc6:	eb05 0343 	add.w	r3, r5, r3, lsl #1
 8005dca:	ea4f 0141 	mov.w	r1, r1, lsl #1
 8005dce:	ea4f 0454 	mov.w	r4, r4, lsr #1
 8005dd2:	d1f0      	bne.n	8005db6 <__ieee754_sqrt+0xb6>
 8005dd4:	4605      	mov	r5, r0
 8005dd6:	2420      	movs	r4, #32
 8005dd8:	f04f 4c00 	mov.w	ip, #2147483648	@ 0x80000000
 8005ddc:	4293      	cmp	r3, r2
 8005dde:	eb0c 0e00 	add.w	lr, ip, r0
 8005de2:	dc02      	bgt.n	8005dea <__ieee754_sqrt+0xea>
 8005de4:	d113      	bne.n	8005e0e <__ieee754_sqrt+0x10e>
 8005de6:	458e      	cmp	lr, r1
 8005de8:	d811      	bhi.n	8005e0e <__ieee754_sqrt+0x10e>
 8005dea:	f1be 0f00 	cmp.w	lr, #0
 8005dee:	eb0e 000c 	add.w	r0, lr, ip
 8005df2:	da3f      	bge.n	8005e74 <__ieee754_sqrt+0x174>
 8005df4:	2800      	cmp	r0, #0
 8005df6:	db3d      	blt.n	8005e74 <__ieee754_sqrt+0x174>
 8005df8:	f102 0801 	add.w	r8, r2, #1
 8005dfc:	1a9b      	subs	r3, r3, r2
 8005dfe:	458e      	cmp	lr, r1
 8005e00:	bf88      	it	hi
 8005e02:	f103 33ff 	addhi.w	r3, r3, #4294967295
 8005e06:	eba1 010e 	sub.w	r1, r1, lr
 8005e0a:	4465      	add	r5, ip
 8005e0c:	4642      	mov	r2, r8
 8005e0e:	ea4f 7ed1 	mov.w	lr, r1, lsr #31
 8005e12:	3c01      	subs	r4, #1
 8005e14:	eb0e 0343 	add.w	r3, lr, r3, lsl #1
 8005e18:	ea4f 0141 	mov.w	r1, r1, lsl #1
 8005e1c:	ea4f 0c5c 	mov.w	ip, ip, lsr #1
 8005e20:	d1dc      	bne.n	8005ddc <__ieee754_sqrt+0xdc>
 8005e22:	4319      	orrs	r1, r3
 8005e24:	d01b      	beq.n	8005e5e <__ieee754_sqrt+0x15e>
 8005e26:	f8df a07c 	ldr.w	sl, [pc, #124]	@ 8005ea4 <__ieee754_sqrt+0x1a4>
 8005e2a:	f8df b07c 	ldr.w	fp, [pc, #124]	@ 8005ea8 <__ieee754_sqrt+0x1a8>
 8005e2e:	e9da 0100 	ldrd	r0, r1, [sl]
 8005e32:	e9db 2300 	ldrd	r2, r3, [fp]
 8005e36:	f7fa fa27 	bl	8000288 <__aeabi_dsub>
 8005e3a:	e9da 8900 	ldrd	r8, r9, [sl]
 8005e3e:	4602      	mov	r2, r0
 8005e40:	460b      	mov	r3, r1
 8005e42:	4640      	mov	r0, r8
 8005e44:	4649      	mov	r1, r9
 8005e46:	f7fa fe53 	bl	8000af0 <__aeabi_dcmple>
 8005e4a:	b140      	cbz	r0, 8005e5e <__ieee754_sqrt+0x15e>
 8005e4c:	f1b5 3fff 	cmp.w	r5, #4294967295
 8005e50:	e9da 0100 	ldrd	r0, r1, [sl]
 8005e54:	e9db 2300 	ldrd	r2, r3, [fp]
 8005e58:	d10e      	bne.n	8005e78 <__ieee754_sqrt+0x178>
 8005e5a:	3601      	adds	r6, #1
 8005e5c:	4625      	mov	r5, r4
 8005e5e:	1073      	asrs	r3, r6, #1
 8005e60:	f103 537f 	add.w	r3, r3, #1069547520	@ 0x3fc00000
 8005e64:	f503 1300 	add.w	r3, r3, #2097152	@ 0x200000
 8005e68:	eb03 5107 	add.w	r1, r3, r7, lsl #20
 8005e6c:	086b      	lsrs	r3, r5, #1
 8005e6e:	ea43 70c6 	orr.w	r0, r3, r6, lsl #31
 8005e72:	e759      	b.n	8005d28 <__ieee754_sqrt+0x28>
 8005e74:	4690      	mov	r8, r2
 8005e76:	e7c1      	b.n	8005dfc <__ieee754_sqrt+0xfc>
 8005e78:	f7fa fa08 	bl	800028c <__adddf3>
 8005e7c:	e9da 8900 	ldrd	r8, r9, [sl]
 8005e80:	4602      	mov	r2, r0
 8005e82:	460b      	mov	r3, r1
 8005e84:	4640      	mov	r0, r8
 8005e86:	4649      	mov	r1, r9
 8005e88:	f7fa fe28 	bl	8000adc <__aeabi_dcmplt>
 8005e8c:	b120      	cbz	r0, 8005e98 <__ieee754_sqrt+0x198>
 8005e8e:	1cab      	adds	r3, r5, #2
 8005e90:	bf08      	it	eq
 8005e92:	3601      	addeq	r6, #1
 8005e94:	3502      	adds	r5, #2
 8005e96:	e7e2      	b.n	8005e5e <__ieee754_sqrt+0x15e>
 8005e98:	1c6b      	adds	r3, r5, #1
 8005e9a:	f023 0501 	bic.w	r5, r3, #1
 8005e9e:	e7de      	b.n	8005e5e <__ieee754_sqrt+0x15e>
 8005ea0:	7ff00000 	.word	0x7ff00000
 8005ea4:	0800cb18 	.word	0x0800cb18
 8005ea8:	0800cb10 	.word	0x0800cb10
 8005eac:	00000000 	.word	0x00000000

08005eb0 <__kernel_cos>:
 8005eb0:	e92d 4ff7 	stmdb	sp!, {r0, r1, r2, r4, r5, r6, r7, r8, r9, sl, fp, lr}
 8005eb4:	ec57 6b10 	vmov	r6, r7, d0
 8005eb8:	f027 4800 	bic.w	r8, r7, #2147483648	@ 0x80000000
 8005ebc:	f1b8 5f79 	cmp.w	r8, #1044381696	@ 0x3e400000
 8005ec0:	ed8d 1b00 	vstr	d1, [sp]
 8005ec4:	d206      	bcs.n	8005ed4 <__kernel_cos+0x24>
 8005ec6:	4630      	mov	r0, r6
 8005ec8:	4639      	mov	r1, r7
 8005eca:	f7fa fe45 	bl	8000b58 <__aeabi_d2iz>
 8005ece:	2800      	cmp	r0, #0
 8005ed0:	f000 8088 	beq.w	8005fe4 <__kernel_cos+0x134>
 8005ed4:	4632      	mov	r2, r6
 8005ed6:	463b      	mov	r3, r7
 8005ed8:	4630      	mov	r0, r6
 8005eda:	4639      	mov	r1, r7
 8005edc:	f7fa fb8c 	bl	80005f8 <__aeabi_dmul>
 8005ee0:	4b51      	ldr	r3, [pc, #324]	@ (8006028 <__kernel_cos+0x178>)
 8005ee2:	2200      	movs	r2, #0
 8005ee4:	4604      	mov	r4, r0
 8005ee6:	460d      	mov	r5, r1
 8005ee8:	f7fa fb86 	bl	80005f8 <__aeabi_dmul>
 8005eec:	a340      	add	r3, pc, #256	@ (adr r3, 8005ff0 <__kernel_cos+0x140>)
 8005eee:	e9d3 2300 	ldrd	r2, r3, [r3]
 8005ef2:	4682      	mov	sl, r0
 8005ef4:	468b      	mov	fp, r1
 8005ef6:	4620      	mov	r0, r4
 8005ef8:	4629      	mov	r1, r5
 8005efa:	f7fa fb7d 	bl	80005f8 <__aeabi_dmul>
 8005efe:	a33e      	add	r3, pc, #248	@ (adr r3, 8005ff8 <__kernel_cos+0x148>)
 8005f00:	e9d3 2300 	ldrd	r2, r3, [r3]
 8005f04:	f7fa f9c2 	bl	800028c <__adddf3>
 8005f08:	4622      	mov	r2, r4
 8005f0a:	462b      	mov	r3, r5
 8005f0c:	f7fa fb74 	bl	80005f8 <__aeabi_dmul>
 8005f10:	a33b      	add	r3, pc, #236	@ (adr r3, 8006000 <__kernel_cos+0x150>)
 8005f12:	e9d3 2300 	ldrd	r2, r3, [r3]
 8005f16:	f7fa f9b7 	bl	8000288 <__aeabi_dsub>
 8005f1a:	4622      	mov	r2, r4
 8005f1c:	462b      	mov	r3, r5
 8005f1e:	f7fa fb6b 	bl	80005f8 <__aeabi_dmul>
 8005f22:	a339      	add	r3, pc, #228	@ (adr r3, 8006008 <__kernel_cos+0x158>)
 8005f24:	e9d3 2300 	ldrd	r2, r3, [r3]
 8005f28:	f7fa f9b0 	bl	800028c <__adddf3>
 8005f2c:	4622      	mov	r2, r4
 8005f2e:	462b      	mov	r3, r5
 8005f30:	f7fa fb62 	bl	80005f8 <__aeabi_dmul>
 8005f34:	a336      	add	r3, pc, #216	@ (adr r3, 8006010 <__kernel_cos+0x160>)
 8005f36:	e9d3 2300 	ldrd	r2, r3, [r3]
 8005f3a:	f7fa f9a5 	bl	8000288 <__aeabi_dsub>
 8005f3e:	4622      	mov	r2, r4
 8005f40:	462b      	mov	r3, r5
 8005f42:	f7fa fb59 	bl	80005f8 <__aeabi_dmul>
 8005f46:	a334      	add	r3, pc, #208	@ (adr r3, 8006018 <__kernel_cos+0x168>)
 8005f48:	e9d3 2300 	ldrd	r2, r3, [r3]
 8005f4c:	f7fa f99e 	bl	800028c <__adddf3>
 8005f50:	4622      	mov	r2, r4
 8005f52:	462b      	mov	r3, r5
 8005f54:	f7fa fb50 	bl	80005f8 <__aeabi_dmul>
 8005f58:	4622      	mov	r2, r4
 8005f5a:	462b      	mov	r3, r5
 8005f5c:	f7fa fb4c 	bl	80005f8 <__aeabi_dmul>
 8005f60:	e9dd 2300 	ldrd	r2, r3, [sp]
 8005f64:	4604      	mov	r4, r0
 8005f66:	460d      	mov	r5, r1
 8005f68:	4630      	mov	r0, r6
 8005f6a:	4639      	mov	r1, r7
 8005f6c:	f7fa fb44 	bl	80005f8 <__aeabi_dmul>
 8005f70:	460b      	mov	r3, r1
 8005f72:	4602      	mov	r2, r0
 8005f74:	4629      	mov	r1, r5
 8005f76:	4620      	mov	r0, r4
 8005f78:	f7fa f986 	bl	8000288 <__aeabi_dsub>
 8005f7c:	4b2b      	ldr	r3, [pc, #172]	@ (800602c <__kernel_cos+0x17c>)
 8005f7e:	4598      	cmp	r8, r3
 8005f80:	4606      	mov	r6, r0
 8005f82:	460f      	mov	r7, r1
 8005f84:	d810      	bhi.n	8005fa8 <__kernel_cos+0xf8>
 8005f86:	4602      	mov	r2, r0
 8005f88:	460b      	mov	r3, r1
 8005f8a:	4650      	mov	r0, sl
 8005f8c:	4659      	mov	r1, fp
 8005f8e:	f7fa f97b 	bl	8000288 <__aeabi_dsub>
 8005f92:	460b      	mov	r3, r1
 8005f94:	4926      	ldr	r1, [pc, #152]	@ (8006030 <__kernel_cos+0x180>)
 8005f96:	4602      	mov	r2, r0
 8005f98:	2000      	movs	r0, #0
 8005f9a:	f7fa f975 	bl	8000288 <__aeabi_dsub>
 8005f9e:	ec41 0b10 	vmov	d0, r0, r1
 8005fa2:	b003      	add	sp, #12
 8005fa4:	e8bd 8ff0 	ldmia.w	sp!, {r4, r5, r6, r7, r8, r9, sl, fp, pc}
 8005fa8:	4b22      	ldr	r3, [pc, #136]	@ (8006034 <__kernel_cos+0x184>)
 8005faa:	4921      	ldr	r1, [pc, #132]	@ (8006030 <__kernel_cos+0x180>)
 8005fac:	4598      	cmp	r8, r3
 8005fae:	bf8c      	ite	hi
 8005fb0:	4d21      	ldrhi	r5, [pc, #132]	@ (8006038 <__kernel_cos+0x188>)
 8005fb2:	f5a8 1500 	subls.w	r5, r8, #2097152	@ 0x200000
 8005fb6:	2400      	movs	r4, #0
 8005fb8:	4622      	mov	r2, r4
 8005fba:	462b      	mov	r3, r5
 8005fbc:	2000      	movs	r0, #0
 8005fbe:	f7fa f963 	bl	8000288 <__aeabi_dsub>
 8005fc2:	4622      	mov	r2, r4
 8005fc4:	4680      	mov	r8, r0
 8005fc6:	4689      	mov	r9, r1
 8005fc8:	462b      	mov	r3, r5
 8005fca:	4650      	mov	r0, sl
 8005fcc:	4659      	mov	r1, fp
 8005fce:	f7fa f95b 	bl	8000288 <__aeabi_dsub>
 8005fd2:	4632      	mov	r2, r6
 8005fd4:	463b      	mov	r3, r7
 8005fd6:	f7fa f957 	bl	8000288 <__aeabi_dsub>
 8005fda:	4602      	mov	r2, r0
 8005fdc:	460b      	mov	r3, r1
 8005fde:	4640      	mov	r0, r8
 8005fe0:	4649      	mov	r1, r9
 8005fe2:	e7da      	b.n	8005f9a <__kernel_cos+0xea>
 8005fe4:	ed9f 0b0e 	vldr	d0, [pc, #56]	@ 8006020 <__kernel_cos+0x170>
 8005fe8:	e7db      	b.n	8005fa2 <__kernel_cos+0xf2>
 8005fea:	bf00      	nop
 8005fec:	f3af 8000 	nop.w
 8005ff0:	be8838d4 	.word	0xbe8838d4
 8005ff4:	bda8fae9 	.word	0xbda8fae9
 8005ff8:	bdb4b1c4 	.word	0xbdb4b1c4
 8005ffc:	3e21ee9e 	.word	0x3e21ee9e
 8006000:	809c52ad 	.word	0x809c52ad
 8006004:	3e927e4f 	.word	0x3e927e4f
 8006008:	19cb1590 	.word	0x19cb1590
 800600c:	3efa01a0 	.word	0x3efa01a0
 8006010:	16c15177 	.word	0x16c15177
 8006014:	3f56c16c 	.word	0x3f56c16c
 8006018:	5555554c 	.word	0x5555554c
 800601c:	3fa55555 	.word	0x3fa55555
 8006020:	00000000 	.word	0x00000000
 8006024:	3ff00000 	.word	0x3ff00000
 8006028:	3fe00000 	.word	0x3fe00000
 800602c:	3fd33332 	.word	0x3fd33332
 8006030:	3ff00000 	.word	0x3ff00000
 8006034:	3fe90000 	.word	0x3fe90000
 8006038:	3fd20000 	.word	0x3fd20000
 800603c:	00000000 	.word	0x00000000

08006040 <__kernel_sin>:
 8006040:	e92d 4ff0 	stmdb	sp!, {r4, r5, r6, r7, r8, r9, sl, fp, lr}
 8006044:	ec55 4b10 	vmov	r4, r5, d0
 8006048:	f025 4300 	bic.w	r3, r5, #2147483648	@ 0x80000000
 800604c:	b085      	sub	sp, #20
 800604e:	f1b3 5f79 	cmp.w	r3, #1044381696	@ 0x3e400000
 8006052:	ed8d 1b02 	vstr	d1, [sp, #8]
 8006056:	4680      	mov	r8, r0
 8006058:	d205      	bcs.n	8006066 <__kernel_sin+0x26>
 800605a:	4620      	mov	r0, r4
 800605c:	4629      	mov	r1, r5
 800605e:	f7fa fd7b 	bl	8000b58 <__aeabi_d2iz>
 8006062:	2800      	cmp	r0, #0
 8006064:	d052      	beq.n	800610c <__kernel_sin+0xcc>
 8006066:	4622      	mov	r2, r4
 8006068:	462b      	mov	r3, r5
 800606a:	4620      	mov	r0, r4
 800606c:	4629      	mov	r1, r5
 800606e:	f7fa fac3 	bl	80005f8 <__aeabi_dmul>
 8006072:	4682      	mov	sl, r0
 8006074:	468b      	mov	fp, r1
 8006076:	4602      	mov	r2, r0
 8006078:	460b      	mov	r3, r1
 800607a:	4620      	mov	r0, r4
 800607c:	4629      	mov	r1, r5
 800607e:	f7fa fabb 	bl	80005f8 <__aeabi_dmul>
 8006082:	a342      	add	r3, pc, #264	@ (adr r3, 800618c <__kernel_sin+0x14c>)
 8006084:	e9d3 2300 	ldrd	r2, r3, [r3]
 8006088:	e9cd 0100 	strd	r0, r1, [sp]
 800608c:	4650      	mov	r0, sl
 800608e:	4659      	mov	r1, fp
 8006090:	f7fa fab2 	bl	80005f8 <__aeabi_dmul>
 8006094:	a33f      	add	r3, pc, #252	@ (adr r3, 8006194 <__kernel_sin+0x154>)
 8006096:	e9d3 2300 	ldrd	r2, r3, [r3]
 800609a:	f7fa f8f5 	bl	8000288 <__aeabi_dsub>
 800609e:	4652      	mov	r2, sl
 80060a0:	465b      	mov	r3, fp
 80060a2:	f7fa faa9 	bl	80005f8 <__aeabi_dmul>
 80060a6:	a33d      	add	r3, pc, #244	@ (adr r3, 800619c <__kernel_sin+0x15c>)
 80060a8:	e9d3 2300 	ldrd	r2, r3, [r3]
 80060ac:	f7fa f8ee 	bl	800028c <__adddf3>
 80060b0:	4652      	mov	r2, sl
 80060b2:	465b      	mov	r3, fp
 80060b4:	f7fa faa0 	bl	80005f8 <__aeabi_dmul>
 80060b8:	a33a      	add	r3, pc, #232	@ (adr r3, 80061a4 <__kernel_sin+0x164>)
 80060ba:	e9d3 2300 	ldrd	r2, r3, [r3]
 80060be:	f7fa f8e3 	bl	8000288 <__aeabi_dsub>
 80060c2:	4652      	mov	r2, sl
 80060c4:	465b      	mov	r3, fp
 80060c6:	f7fa fa97 	bl	80005f8 <__aeabi_dmul>
 80060ca:	a338      	add	r3, pc, #224	@ (adr r3, 80061ac <__kernel_sin+0x16c>)
 80060cc:	e9d3 2300 	ldrd	r2, r3, [r3]
 80060d0:	f7fa f8dc 	bl	800028c <__adddf3>
 80060d4:	4606      	mov	r6, r0
 80060d6:	460f      	mov	r7, r1
 80060d8:	f1b8 0f00 	cmp.w	r8, #0
 80060dc:	d11b      	bne.n	8006116 <__kernel_sin+0xd6>
 80060de:	4602      	mov	r2, r0
 80060e0:	460b      	mov	r3, r1
 80060e2:	4650      	mov	r0, sl
 80060e4:	4659      	mov	r1, fp
 80060e6:	f7fa fa87 	bl	80005f8 <__aeabi_dmul>
 80060ea:	a325      	add	r3, pc, #148	@ (adr r3, 8006180 <__kernel_sin+0x140>)
 80060ec:	e9d3 2300 	ldrd	r2, r3, [r3]
 80060f0:	f7fa f8ca 	bl	8000288 <__aeabi_dsub>
 80060f4:	e9dd 2300 	ldrd	r2, r3, [sp]
 80060f8:	f7fa fa7e 	bl	80005f8 <__aeabi_dmul>
 80060fc:	4602      	mov	r2, r0
 80060fe:	460b      	mov	r3, r1
 8006100:	4620      	mov	r0, r4
 8006102:	4629      	mov	r1, r5
 8006104:	f7fa f8c2 	bl	800028c <__adddf3>
 8006108:	4604      	mov	r4, r0
 800610a:	460d      	mov	r5, r1
 800610c:	ec45 4b10 	vmov	d0, r4, r5
 8006110:	b005      	add	sp, #20
 8006112:	e8bd 8ff0 	ldmia.w	sp!, {r4, r5, r6, r7, r8, r9, sl, fp, pc}
 8006116:	e9dd 0102 	ldrd	r0, r1, [sp, #8]
 800611a:	4b1b      	ldr	r3, [pc, #108]	@ (8006188 <__kernel_sin+0x148>)
 800611c:	2200      	movs	r2, #0
 800611e:	f7fa fa6b 	bl	80005f8 <__aeabi_dmul>
 8006122:	4632      	mov	r2, r6
 8006124:	4680      	mov	r8, r0
 8006126:	4689      	mov	r9, r1
 8006128:	463b      	mov	r3, r7
 800612a:	e9dd 0100 	ldrd	r0, r1, [sp]
 800612e:	f7fa fa63 	bl	80005f8 <__aeabi_dmul>
 8006132:	4602      	mov	r2, r0
 8006134:	460b      	mov	r3, r1
 8006136:	4640      	mov	r0, r8
 8006138:	4649      	mov	r1, r9
 800613a:	f7fa f8a5 	bl	8000288 <__aeabi_dsub>
 800613e:	4652      	mov	r2, sl
 8006140:	465b      	mov	r3, fp
 8006142:	f7fa fa59 	bl	80005f8 <__aeabi_dmul>
 8006146:	e9dd 2302 	ldrd	r2, r3, [sp, #8]
 800614a:	f7fa f89d 	bl	8000288 <__aeabi_dsub>
 800614e:	a30c      	add	r3, pc, #48	@ (adr r3, 8006180 <__kernel_sin+0x140>)
 8006150:	e9d3 2300 	ldrd	r2, r3, [r3]
 8006154:	4606      	mov	r6, r0
 8006156:	460f      	mov	r7, r1
 8006158:	e9dd 0100 	ldrd	r0, r1, [sp]
 800615c:	f7fa fa4c 	bl	80005f8 <__aeabi_dmul>
 8006160:	4602      	mov	r2, r0
 8006162:	460b      	mov	r3, r1
 8006164:	4630      	mov	r0, r6
 8006166:	4639      	mov	r1, r7
 8006168:	f7fa f890 	bl	800028c <__adddf3>
 800616c:	4602      	mov	r2, r0
 800616e:	460b      	mov	r3, r1
 8006170:	4620      	mov	r0, r4
 8006172:	4629      	mov	r1, r5
 8006174:	f7fa f888 	bl	8000288 <__aeabi_dsub>
 8006178:	e7c6      	b.n	8006108 <__kernel_sin+0xc8>
 800617a:	bf00      	nop
 800617c:	f3af 8000 	nop.w
 8006180:	55555549 	.word	0x55555549
 8006184:	3fc55555 	.word	0x3fc55555
 8006188:	3fe00000 	.word	0x3fe00000
 800618c:	5acfd57c 	.word	0x5acfd57c
 8006190:	3de5d93a 	.word	0x3de5d93a
 8006194:	8a2b9ceb 	.word	0x8a2b9ceb
 8006198:	3e5ae5e6 	.word	0x3e5ae5e6
 800619c:	57b1fe7d 	.word	0x57b1fe7d
 80061a0:	3ec71de3 	.word	0x3ec71de3
 80061a4:	19c161d5 	.word	0x19c161d5
 80061a8:	3f2a01a0 	.word	0x3f2a01a0
 80061ac:	1110f8a6 	.word	0x1110f8a6
 80061b0:	3f811111 	.word	0x3f811111
 80061b4:	00000000 	.word	0x00000000

080061b8 <__ieee754_asin>:
 80061b8:	e92d 4ff0 	stmdb	sp!, {r4, r5, r6, r7, r8, r9, sl, fp, lr}
 80061bc:	ec55 4b10 	vmov	r4, r5, d0
 80061c0:	4bc7      	ldr	r3, [pc, #796]	@ (80064e0 <__ieee754_asin+0x328>)
 80061c2:	b087      	sub	sp, #28
 80061c4:	f025 4600 	bic.w	r6, r5, #2147483648	@ 0x80000000
 80061c8:	429e      	cmp	r6, r3
 80061ca:	9501      	str	r5, [sp, #4]
 80061cc:	d92d      	bls.n	800622a <__ieee754_asin+0x72>
 80061ce:	f106 4640 	add.w	r6, r6, #3221225472	@ 0xc0000000
 80061d2:	f506 1680 	add.w	r6, r6, #1048576	@ 0x100000
 80061d6:	4326      	orrs	r6, r4
 80061d8:	d116      	bne.n	8006208 <__ieee754_asin+0x50>
 80061da:	a3a7      	add	r3, pc, #668	@ (adr r3, 8006478 <__ieee754_asin+0x2c0>)
 80061dc:	e9d3 2300 	ldrd	r2, r3, [r3]
 80061e0:	4620      	mov	r0, r4
 80061e2:	4629      	mov	r1, r5
 80061e4:	f7fa fa08 	bl	80005f8 <__aeabi_dmul>
 80061e8:	a3a5      	add	r3, pc, #660	@ (adr r3, 8006480 <__ieee754_asin+0x2c8>)
 80061ea:	e9d3 2300 	ldrd	r2, r3, [r3]
 80061ee:	4606      	mov	r6, r0
 80061f0:	460f      	mov	r7, r1
 80061f2:	4620      	mov	r0, r4
 80061f4:	4629      	mov	r1, r5
 80061f6:	f7fa f9ff 	bl	80005f8 <__aeabi_dmul>
 80061fa:	4602      	mov	r2, r0
 80061fc:	460b      	mov	r3, r1
 80061fe:	4630      	mov	r0, r6
 8006200:	4639      	mov	r1, r7
 8006202:	f7fa f843 	bl	800028c <__adddf3>
 8006206:	e009      	b.n	800621c <__ieee754_asin+0x64>
 8006208:	4622      	mov	r2, r4
 800620a:	462b      	mov	r3, r5
 800620c:	4620      	mov	r0, r4
 800620e:	4629      	mov	r1, r5
 8006210:	f7fa f83a 	bl	8000288 <__aeabi_dsub>
 8006214:	4602      	mov	r2, r0
 8006216:	460b      	mov	r3, r1
 8006218:	f7fa fb18 	bl	800084c <__aeabi_ddiv>
 800621c:	4604      	mov	r4, r0
 800621e:	460d      	mov	r5, r1
 8006220:	ec45 4b10 	vmov	d0, r4, r5
 8006224:	b007      	add	sp, #28
 8006226:	e8bd 8ff0 	ldmia.w	sp!, {r4, r5, r6, r7, r8, r9, sl, fp, pc}
 800622a:	4bae      	ldr	r3, [pc, #696]	@ (80064e4 <__ieee754_asin+0x32c>)
 800622c:	429e      	cmp	r6, r3
 800622e:	d810      	bhi.n	8006252 <__ieee754_asin+0x9a>
 8006230:	f1b6 5f79 	cmp.w	r6, #1044381696	@ 0x3e400000
 8006234:	f080 80ad 	bcs.w	8006392 <__ieee754_asin+0x1da>
 8006238:	a393      	add	r3, pc, #588	@ (adr r3, 8006488 <__ieee754_asin+0x2d0>)
 800623a:	e9d3 2300 	ldrd	r2, r3, [r3]
 800623e:	4620      	mov	r0, r4
 8006240:	4629      	mov	r1, r5
 8006242:	f7fa f823 	bl	800028c <__adddf3>
 8006246:	4ba8      	ldr	r3, [pc, #672]	@ (80064e8 <__ieee754_asin+0x330>)
 8006248:	2200      	movs	r2, #0
 800624a:	f7fa fc65 	bl	8000b18 <__aeabi_dcmpgt>
 800624e:	2800      	cmp	r0, #0
 8006250:	d1e6      	bne.n	8006220 <__ieee754_asin+0x68>
 8006252:	ec45 4b10 	vmov	d0, r4, r5
 8006256:	f7ff fce3 	bl	8005c20 <fabs>
 800625a:	49a3      	ldr	r1, [pc, #652]	@ (80064e8 <__ieee754_asin+0x330>)
 800625c:	ec53 2b10 	vmov	r2, r3, d0
 8006260:	2000      	movs	r0, #0
 8006262:	f7fa f811 	bl	8000288 <__aeabi_dsub>
 8006266:	4ba1      	ldr	r3, [pc, #644]	@ (80064ec <__ieee754_asin+0x334>)
 8006268:	2200      	movs	r2, #0
 800626a:	f7fa f9c5 	bl	80005f8 <__aeabi_dmul>
 800626e:	a388      	add	r3, pc, #544	@ (adr r3, 8006490 <__ieee754_asin+0x2d8>)
 8006270:	e9d3 2300 	ldrd	r2, r3, [r3]
 8006274:	4604      	mov	r4, r0
 8006276:	460d      	mov	r5, r1
 8006278:	f7fa f9be 	bl	80005f8 <__aeabi_dmul>
 800627c:	a386      	add	r3, pc, #536	@ (adr r3, 8006498 <__ieee754_asin+0x2e0>)
 800627e:	e9d3 2300 	ldrd	r2, r3, [r3]
 8006282:	f7fa f803 	bl	800028c <__adddf3>
 8006286:	4622      	mov	r2, r4
 8006288:	462b      	mov	r3, r5
 800628a:	f7fa f9b5 	bl	80005f8 <__aeabi_dmul>
 800628e:	a384      	add	r3, pc, #528	@ (adr r3, 80064a0 <__ieee754_asin+0x2e8>)
 8006290:	e9d3 2300 	ldrd	r2, r3, [r3]
 8006294:	f7f9 fff8 	bl	8000288 <__aeabi_dsub>
 8006298:	4622      	mov	r2, r4
 800629a:	462b      	mov	r3, r5
 800629c:	f7fa f9ac 	bl	80005f8 <__aeabi_dmul>
 80062a0:	a381      	add	r3, pc, #516	@ (adr r3, 80064a8 <__ieee754_asin+0x2f0>)
 80062a2:	e9d3 2300 	ldrd	r2, r3, [r3]
 80062a6:	f7f9 fff1 	bl	800028c <__adddf3>
 80062aa:	4622      	mov	r2, r4
 80062ac:	462b      	mov	r3, r5
 80062ae:	f7fa f9a3 	bl	80005f8 <__aeabi_dmul>
 80062b2:	a37f      	add	r3, pc, #508	@ (adr r3, 80064b0 <__ieee754_asin+0x2f8>)
 80062b4:	e9d3 2300 	ldrd	r2, r3, [r3]
 80062b8:	f7f9 ffe6 	bl	8000288 <__aeabi_dsub>
 80062bc:	4622      	mov	r2, r4
 80062be:	462b      	mov	r3, r5
 80062c0:	f7fa f99a 	bl	80005f8 <__aeabi_dmul>
 80062c4:	a37c      	add	r3, pc, #496	@ (adr r3, 80064b8 <__ieee754_asin+0x300>)
 80062c6:	e9d3 2300 	ldrd	r2, r3, [r3]
 80062ca:	f7f9 ffdf 	bl	800028c <__adddf3>
 80062ce:	4622      	mov	r2, r4
 80062d0:	462b      	mov	r3, r5
 80062d2:	f7fa f991 	bl	80005f8 <__aeabi_dmul>
 80062d6:	a37a      	add	r3, pc, #488	@ (adr r3, 80064c0 <__ieee754_asin+0x308>)
 80062d8:	e9d3 2300 	ldrd	r2, r3, [r3]
 80062dc:	e9cd 0102 	strd	r0, r1, [sp, #8]
 80062e0:	4620      	mov	r0, r4
 80062e2:	4629      	mov	r1, r5
 80062e4:	f7fa f988 	bl	80005f8 <__aeabi_dmul>
 80062e8:	a377      	add	r3, pc, #476	@ (adr r3, 80064c8 <__ieee754_asin+0x310>)
 80062ea:	e9d3 2300 	ldrd	r2, r3, [r3]
 80062ee:	f7f9 ffcb 	bl	8000288 <__aeabi_dsub>
 80062f2:	4622      	mov	r2, r4
 80062f4:	462b      	mov	r3, r5
 80062f6:	f7fa f97f 	bl	80005f8 <__aeabi_dmul>
 80062fa:	a375      	add	r3, pc, #468	@ (adr r3, 80064d0 <__ieee754_asin+0x318>)
 80062fc:	e9d3 2300 	ldrd	r2, r3, [r3]
 8006300:	f7f9 ffc4 	bl	800028c <__adddf3>
 8006304:	4622      	mov	r2, r4
 8006306:	462b      	mov	r3, r5
 8006308:	f7fa f976 	bl	80005f8 <__aeabi_dmul>
 800630c:	a372      	add	r3, pc, #456	@ (adr r3, 80064d8 <__ieee754_asin+0x320>)
 800630e:	e9d3 2300 	ldrd	r2, r3, [r3]
 8006312:	f7f9 ffb9 	bl	8000288 <__aeabi_dsub>
 8006316:	4622      	mov	r2, r4
 8006318:	462b      	mov	r3, r5
 800631a:	f7fa f96d 	bl	80005f8 <__aeabi_dmul>
 800631e:	4b72      	ldr	r3, [pc, #456]	@ (80064e8 <__ieee754_asin+0x330>)
 8006320:	2200      	movs	r2, #0
 8006322:	f7f9 ffb3 	bl	800028c <__adddf3>
 8006326:	ec45 4b10 	vmov	d0, r4, r5
 800632a:	e9cd 0104 	strd	r0, r1, [sp, #16]
 800632e:	f7ff fce7 	bl	8005d00 <__ieee754_sqrt>
 8006332:	4b6f      	ldr	r3, [pc, #444]	@ (80064f0 <__ieee754_asin+0x338>)
 8006334:	429e      	cmp	r6, r3
 8006336:	ec5b ab10 	vmov	sl, fp, d0
 800633a:	f240 80db 	bls.w	80064f4 <__ieee754_asin+0x33c>
 800633e:	e9dd 2304 	ldrd	r2, r3, [sp, #16]
 8006342:	e9dd 0102 	ldrd	r0, r1, [sp, #8]
 8006346:	f7fa fa81 	bl	800084c <__aeabi_ddiv>
 800634a:	4652      	mov	r2, sl
 800634c:	465b      	mov	r3, fp
 800634e:	f7fa f953 	bl	80005f8 <__aeabi_dmul>
 8006352:	4652      	mov	r2, sl
 8006354:	465b      	mov	r3, fp
 8006356:	f7f9 ff99 	bl	800028c <__adddf3>
 800635a:	4602      	mov	r2, r0
 800635c:	460b      	mov	r3, r1
 800635e:	f7f9 ff95 	bl	800028c <__adddf3>
 8006362:	a347      	add	r3, pc, #284	@ (adr r3, 8006480 <__ieee754_asin+0x2c8>)
 8006364:	e9d3 2300 	ldrd	r2, r3, [r3]
 8006368:	f7f9 ff8e 	bl	8000288 <__aeabi_dsub>
 800636c:	4602      	mov	r2, r0
 800636e:	460b      	mov	r3, r1
 8006370:	a141      	add	r1, pc, #260	@ (adr r1, 8006478 <__ieee754_asin+0x2c0>)
 8006372:	e9d1 0100 	ldrd	r0, r1, [r1]
 8006376:	f7f9 ff87 	bl	8000288 <__aeabi_dsub>
 800637a:	9b01      	ldr	r3, [sp, #4]
 800637c:	2b00      	cmp	r3, #0
 800637e:	bfdc      	itt	le
 8006380:	4602      	movle	r2, r0
 8006382:	f101 4300 	addle.w	r3, r1, #2147483648	@ 0x80000000
 8006386:	4604      	mov	r4, r0
 8006388:	460d      	mov	r5, r1
 800638a:	bfdc      	itt	le
 800638c:	4614      	movle	r4, r2
 800638e:	461d      	movle	r5, r3
 8006390:	e746      	b.n	8006220 <__ieee754_asin+0x68>
 8006392:	4622      	mov	r2, r4
 8006394:	462b      	mov	r3, r5
 8006396:	4620      	mov	r0, r4
 8006398:	4629      	mov	r1, r5
 800639a:	f7fa f92d 	bl	80005f8 <__aeabi_dmul>
 800639e:	a33c      	add	r3, pc, #240	@ (adr r3, 8006490 <__ieee754_asin+0x2d8>)
 80063a0:	e9d3 2300 	ldrd	r2, r3, [r3]
 80063a4:	4606      	mov	r6, r0
 80063a6:	460f      	mov	r7, r1
 80063a8:	f7fa f926 	bl	80005f8 <__aeabi_dmul>
 80063ac:	a33a      	add	r3, pc, #232	@ (adr r3, 8006498 <__ieee754_asin+0x2e0>)
 80063ae:	e9d3 2300 	ldrd	r2, r3, [r3]
 80063b2:	f7f9 ff6b 	bl	800028c <__adddf3>
 80063b6:	4632      	mov	r2, r6
 80063b8:	463b      	mov	r3, r7
 80063ba:	f7fa f91d 	bl	80005f8 <__aeabi_dmul>
 80063be:	a338      	add	r3, pc, #224	@ (adr r3, 80064a0 <__ieee754_asin+0x2e8>)
 80063c0:	e9d3 2300 	ldrd	r2, r3, [r3]
 80063c4:	f7f9 ff60 	bl	8000288 <__aeabi_dsub>
 80063c8:	4632      	mov	r2, r6
 80063ca:	463b      	mov	r3, r7
 80063cc:	f7fa f914 	bl	80005f8 <__aeabi_dmul>
 80063d0:	a335      	add	r3, pc, #212	@ (adr r3, 80064a8 <__ieee754_asin+0x2f0>)
 80063d2:	e9d3 2300 	ldrd	r2, r3, [r3]
 80063d6:	f7f9 ff59 	bl	800028c <__adddf3>
 80063da:	4632      	mov	r2, r6
 80063dc:	463b      	mov	r3, r7
 80063de:	f7fa f90b 	bl	80005f8 <__aeabi_dmul>
 80063e2:	a333      	add	r3, pc, #204	@ (adr r3, 80064b0 <__ieee754_asin+0x2f8>)
 80063e4:	e9d3 2300 	ldrd	r2, r3, [r3]
 80063e8:	f7f9 ff4e 	bl	8000288 <__aeabi_dsub>
 80063ec:	4632      	mov	r2, r6
 80063ee:	463b      	mov	r3, r7
 80063f0:	f7fa f902 	bl	80005f8 <__aeabi_dmul>
 80063f4:	a330      	add	r3, pc, #192	@ (adr r3, 80064b8 <__ieee754_asin+0x300>)
 80063f6:	e9d3 2300 	ldrd	r2, r3, [r3]
 80063fa:	f7f9 ff47 	bl	800028c <__adddf3>
 80063fe:	4632      	mov	r2, r6
 8006400:	463b      	mov	r3, r7
 8006402:	f7fa f8f9 	bl	80005f8 <__aeabi_dmul>
 8006406:	a32e      	add	r3, pc, #184	@ (adr r3, 80064c0 <__ieee754_asin+0x308>)
 8006408:	e9d3 2300 	ldrd	r2, r3, [r3]
 800640c:	4680      	mov	r8, r0
 800640e:	4689      	mov	r9, r1
 8006410:	4630      	mov	r0, r6
 8006412:	4639      	mov	r1, r7
 8006414:	f7fa f8f0 	bl	80005f8 <__aeabi_dmul>
 8006418:	a32b      	add	r3, pc, #172	@ (adr r3, 80064c8 <__ieee754_asin+0x310>)
 800641a:	e9d3 2300 	ldrd	r2, r3, [r3]
 800641e:	f7f9 ff33 	bl	8000288 <__aeabi_dsub>
 8006422:	4632      	mov	r2, r6
 8006424:	463b      	mov	r3, r7
 8006426:	f7fa f8e7 	bl	80005f8 <__aeabi_dmul>
 800642a:	a329      	add	r3, pc, #164	@ (adr r3, 80064d0 <__ieee754_asin+0x318>)
 800642c:	e9d3 2300 	ldrd	r2, r3, [r3]
 8006430:	f7f9 ff2c 	bl	800028c <__adddf3>
 8006434:	4632      	mov	r2, r6
 8006436:	463b      	mov	r3, r7
 8006438:	f7fa f8de 	bl	80005f8 <__aeabi_dmul>
 800643c:	a326      	add	r3, pc, #152	@ (adr r3, 80064d8 <__ieee754_asin+0x320>)
 800643e:	e9d3 2300 	ldrd	r2, r3, [r3]
 8006442:	f7f9 ff21 	bl	8000288 <__aeabi_dsub>
 8006446:	4632      	mov	r2, r6
 8006448:	463b      	mov	r3, r7
 800644a:	f7fa f8d5 	bl	80005f8 <__aeabi_dmul>
 800644e:	4b26      	ldr	r3, [pc, #152]	@ (80064e8 <__ieee754_asin+0x330>)
 8006450:	2200      	movs	r2, #0
 8006452:	f7f9 ff1b 	bl	800028c <__adddf3>
 8006456:	4602      	mov	r2, r0
 8006458:	460b      	mov	r3, r1
 800645a:	4640      	mov	r0, r8
 800645c:	4649      	mov	r1, r9
 800645e:	f7fa f9f5 	bl	800084c <__aeabi_ddiv>
 8006462:	4622      	mov	r2, r4
 8006464:	462b      	mov	r3, r5
 8006466:	f7fa f8c7 	bl	80005f8 <__aeabi_dmul>
 800646a:	4602      	mov	r2, r0
 800646c:	460b      	mov	r3, r1
 800646e:	4620      	mov	r0, r4
 8006470:	4629      	mov	r1, r5
 8006472:	e6c6      	b.n	8006202 <__ieee754_asin+0x4a>
 8006474:	f3af 8000 	nop.w
 8006478:	54442d18 	.word	0x54442d18
 800647c:	3ff921fb 	.word	0x3ff921fb
 8006480:	33145c07 	.word	0x33145c07
 8006484:	3c91a626 	.word	0x3c91a626
 8006488:	8800759c 	.word	0x8800759c
 800648c:	7e37e43c 	.word	0x7e37e43c
 8006490:	0dfdf709 	.word	0x0dfdf709
 8006494:	3f023de1 	.word	0x3f023de1
 8006498:	7501b288 	.word	0x7501b288
 800649c:	3f49efe0 	.word	0x3f49efe0
 80064a0:	b5688f3b 	.word	0xb5688f3b
 80064a4:	3fa48228 	.word	0x3fa48228
 80064a8:	0e884455 	.word	0x0e884455
 80064ac:	3fc9c155 	.word	0x3fc9c155
 80064b0:	03eb6f7d 	.word	0x03eb6f7d
 80064b4:	3fd4d612 	.word	0x3fd4d612
 80064b8:	55555555 	.word	0x55555555
 80064bc:	3fc55555 	.word	0x3fc55555
 80064c0:	b12e9282 	.word	0xb12e9282
 80064c4:	3fb3b8c5 	.word	0x3fb3b8c5
 80064c8:	1b8d0159 	.word	0x1b8d0159
 80064cc:	3fe6066c 	.word	0x3fe6066c
 80064d0:	9c598ac8 	.word	0x9c598ac8
 80064d4:	40002ae5 	.word	0x40002ae5
 80064d8:	1c8a2d4b 	.word	0x1c8a2d4b
 80064dc:	40033a27 	.word	0x40033a27
 80064e0:	3fefffff 	.word	0x3fefffff
 80064e4:	3fdfffff 	.word	0x3fdfffff
 80064e8:	3ff00000 	.word	0x3ff00000
 80064ec:	3fe00000 	.word	0x3fe00000
 80064f0:	3fef3332 	.word	0x3fef3332
 80064f4:	4652      	mov	r2, sl
 80064f6:	465b      	mov	r3, fp
 80064f8:	4650      	mov	r0, sl
 80064fa:	4659      	mov	r1, fp
 80064fc:	f7f9 fec6 	bl	800028c <__adddf3>
 8006500:	e9dd 2304 	ldrd	r2, r3, [sp, #16]
 8006504:	4606      	mov	r6, r0
 8006506:	460f      	mov	r7, r1
 8006508:	e9dd 0102 	ldrd	r0, r1, [sp, #8]
 800650c:	f7fa f99e 	bl	800084c <__aeabi_ddiv>
 8006510:	4602      	mov	r2, r0
 8006512:	460b      	mov	r3, r1
 8006514:	4630      	mov	r0, r6
 8006516:	4639      	mov	r1, r7
 8006518:	f7fa f86e 	bl	80005f8 <__aeabi_dmul>
 800651c:	f04f 0800 	mov.w	r8, #0
 8006520:	4606      	mov	r6, r0
 8006522:	460f      	mov	r7, r1
 8006524:	4642      	mov	r2, r8
 8006526:	465b      	mov	r3, fp
 8006528:	4640      	mov	r0, r8
 800652a:	4659      	mov	r1, fp
 800652c:	f7fa f864 	bl	80005f8 <__aeabi_dmul>
 8006530:	4602      	mov	r2, r0
 8006532:	460b      	mov	r3, r1
 8006534:	4620      	mov	r0, r4
 8006536:	4629      	mov	r1, r5
 8006538:	f7f9 fea6 	bl	8000288 <__aeabi_dsub>
 800653c:	4642      	mov	r2, r8
 800653e:	4604      	mov	r4, r0
 8006540:	460d      	mov	r5, r1
 8006542:	465b      	mov	r3, fp
 8006544:	4650      	mov	r0, sl
 8006546:	4659      	mov	r1, fp
 8006548:	f7f9 fea0 	bl	800028c <__adddf3>
 800654c:	4602      	mov	r2, r0
 800654e:	460b      	mov	r3, r1
 8006550:	4620      	mov	r0, r4
 8006552:	4629      	mov	r1, r5
 8006554:	f7fa f97a 	bl	800084c <__aeabi_ddiv>
 8006558:	4602      	mov	r2, r0
 800655a:	460b      	mov	r3, r1
 800655c:	f7f9 fe96 	bl	800028c <__adddf3>
 8006560:	4602      	mov	r2, r0
 8006562:	460b      	mov	r3, r1
 8006564:	a112      	add	r1, pc, #72	@ (adr r1, 80065b0 <__ieee754_asin+0x3f8>)
 8006566:	e9d1 0100 	ldrd	r0, r1, [r1]
 800656a:	f7f9 fe8d 	bl	8000288 <__aeabi_dsub>
 800656e:	4602      	mov	r2, r0
 8006570:	460b      	mov	r3, r1
 8006572:	4630      	mov	r0, r6
 8006574:	4639      	mov	r1, r7
 8006576:	f7f9 fe87 	bl	8000288 <__aeabi_dsub>
 800657a:	4642      	mov	r2, r8
 800657c:	4604      	mov	r4, r0
 800657e:	460d      	mov	r5, r1
 8006580:	465b      	mov	r3, fp
 8006582:	4640      	mov	r0, r8
 8006584:	4659      	mov	r1, fp
 8006586:	f7f9 fe81 	bl	800028c <__adddf3>
 800658a:	4602      	mov	r2, r0
 800658c:	460b      	mov	r3, r1
 800658e:	a10a      	add	r1, pc, #40	@ (adr r1, 80065b8 <__ieee754_asin+0x400>)
 8006590:	e9d1 0100 	ldrd	r0, r1, [r1]
 8006594:	f7f9 fe78 	bl	8000288 <__aeabi_dsub>
 8006598:	4602      	mov	r2, r0
 800659a:	460b      	mov	r3, r1
 800659c:	4620      	mov	r0, r4
 800659e:	4629      	mov	r1, r5
 80065a0:	f7f9 fe72 	bl	8000288 <__aeabi_dsub>
 80065a4:	4602      	mov	r2, r0
 80065a6:	460b      	mov	r3, r1
 80065a8:	a103      	add	r1, pc, #12	@ (adr r1, 80065b8 <__ieee754_asin+0x400>)
 80065aa:	e9d1 0100 	ldrd	r0, r1, [r1]
 80065ae:	e6e2      	b.n	8006376 <__ieee754_asin+0x1be>
 80065b0:	33145c07 	.word	0x33145c07
 80065b4:	3c91a626 	.word	0x3c91a626
 80065b8:	54442d18 	.word	0x54442d18
 80065bc:	3fe921fb 	.word	0x3fe921fb

080065c0 <__ieee754_atan2>:
 80065c0:	e92d 43f8 	stmdb	sp!, {r3, r4, r5, r6, r7, r8, r9, lr}
 80065c4:	ec57 6b11 	vmov	r6, r7, d1
 80065c8:	4273      	negs	r3, r6
 80065ca:	f8df 817c 	ldr.w	r8, [pc, #380]	@ 8006748 <__ieee754_atan2+0x188>
 80065ce:	f027 4200 	bic.w	r2, r7, #2147483648	@ 0x80000000
 80065d2:	4333      	orrs	r3, r6
 80065d4:	ea42 73d3 	orr.w	r3, r2, r3, lsr #31
 80065d8:	4543      	cmp	r3, r8
 80065da:	ec51 0b10 	vmov	r0, r1, d0
 80065de:	4635      	mov	r5, r6
 80065e0:	d809      	bhi.n	80065f6 <__ieee754_atan2+0x36>
 80065e2:	4244      	negs	r4, r0
 80065e4:	f021 4300 	bic.w	r3, r1, #2147483648	@ 0x80000000
 80065e8:	4304      	orrs	r4, r0
 80065ea:	ea43 74d4 	orr.w	r4, r3, r4, lsr #31
 80065ee:	4544      	cmp	r4, r8
 80065f0:	468e      	mov	lr, r1
 80065f2:	4681      	mov	r9, r0
 80065f4:	d907      	bls.n	8006606 <__ieee754_atan2+0x46>
 80065f6:	4632      	mov	r2, r6
 80065f8:	463b      	mov	r3, r7
 80065fa:	f7f9 fe47 	bl	800028c <__adddf3>
 80065fe:	ec41 0b10 	vmov	d0, r0, r1
 8006602:	e8bd 83f8 	ldmia.w	sp!, {r3, r4, r5, r6, r7, r8, r9, pc}
 8006606:	f107 4440 	add.w	r4, r7, #3221225472	@ 0xc0000000
 800660a:	f504 1480 	add.w	r4, r4, #1048576	@ 0x100000
 800660e:	4334      	orrs	r4, r6
 8006610:	d103      	bne.n	800661a <__ieee754_atan2+0x5a>
 8006612:	e8bd 43f8 	ldmia.w	sp!, {r3, r4, r5, r6, r7, r8, r9, lr}
 8006616:	f000 bfe3 	b.w	80075e0 <atan>
 800661a:	17bc      	asrs	r4, r7, #30
 800661c:	f004 0402 	and.w	r4, r4, #2
 8006620:	ea53 0909 	orrs.w	r9, r3, r9
 8006624:	ea44 74d1 	orr.w	r4, r4, r1, lsr #31
 8006628:	d107      	bne.n	800663a <__ieee754_atan2+0x7a>
 800662a:	2c02      	cmp	r4, #2
 800662c:	d05f      	beq.n	80066ee <__ieee754_atan2+0x12e>
 800662e:	2c03      	cmp	r4, #3
 8006630:	d1e5      	bne.n	80065fe <__ieee754_atan2+0x3e>
 8006632:	a143      	add	r1, pc, #268	@ (adr r1, 8006740 <__ieee754_atan2+0x180>)
 8006634:	e9d1 0100 	ldrd	r0, r1, [r1]
 8006638:	e7e1      	b.n	80065fe <__ieee754_atan2+0x3e>
 800663a:	4315      	orrs	r5, r2
 800663c:	d106      	bne.n	800664c <__ieee754_atan2+0x8c>
 800663e:	f1be 0f00 	cmp.w	lr, #0
 8006642:	db5f      	blt.n	8006704 <__ieee754_atan2+0x144>
 8006644:	a136      	add	r1, pc, #216	@ (adr r1, 8006720 <__ieee754_atan2+0x160>)
 8006646:	e9d1 0100 	ldrd	r0, r1, [r1]
 800664a:	e7d8      	b.n	80065fe <__ieee754_atan2+0x3e>
 800664c:	4542      	cmp	r2, r8
 800664e:	d10f      	bne.n	8006670 <__ieee754_atan2+0xb0>
 8006650:	4293      	cmp	r3, r2
 8006652:	f104 34ff 	add.w	r4, r4, #4294967295
 8006656:	d107      	bne.n	8006668 <__ieee754_atan2+0xa8>
 8006658:	2c02      	cmp	r4, #2
 800665a:	d84c      	bhi.n	80066f6 <__ieee754_atan2+0x136>
 800665c:	4b36      	ldr	r3, [pc, #216]	@ (8006738 <__ieee754_atan2+0x178>)
 800665e:	eb03 03c4 	add.w	r3, r3, r4, lsl #3
 8006662:	e9d3 0100 	ldrd	r0, r1, [r3]
 8006666:	e7ca      	b.n	80065fe <__ieee754_atan2+0x3e>
 8006668:	2c02      	cmp	r4, #2
 800666a:	d848      	bhi.n	80066fe <__ieee754_atan2+0x13e>
 800666c:	4b33      	ldr	r3, [pc, #204]	@ (800673c <__ieee754_atan2+0x17c>)
 800666e:	e7f6      	b.n	800665e <__ieee754_atan2+0x9e>
 8006670:	4543      	cmp	r3, r8
 8006672:	d0e4      	beq.n	800663e <__ieee754_atan2+0x7e>
 8006674:	1a9b      	subs	r3, r3, r2
 8006676:	f1b3 7f74 	cmp.w	r3, #63963136	@ 0x3d00000
 800667a:	ea4f 5223 	mov.w	r2, r3, asr #20
 800667e:	da1e      	bge.n	80066be <__ieee754_atan2+0xfe>
 8006680:	2f00      	cmp	r7, #0
 8006682:	da01      	bge.n	8006688 <__ieee754_atan2+0xc8>
 8006684:	323c      	adds	r2, #60	@ 0x3c
 8006686:	db1e      	blt.n	80066c6 <__ieee754_atan2+0x106>
 8006688:	4632      	mov	r2, r6
 800668a:	463b      	mov	r3, r7
 800668c:	f7fa f8de 	bl	800084c <__aeabi_ddiv>
 8006690:	ec41 0b10 	vmov	d0, r0, r1
 8006694:	f7ff fac4 	bl	8005c20 <fabs>
 8006698:	f000 ffa2 	bl	80075e0 <atan>
 800669c:	ec51 0b10 	vmov	r0, r1, d0
 80066a0:	2c01      	cmp	r4, #1
 80066a2:	d013      	beq.n	80066cc <__ieee754_atan2+0x10c>
 80066a4:	2c02      	cmp	r4, #2
 80066a6:	d015      	beq.n	80066d4 <__ieee754_atan2+0x114>
 80066a8:	2c00      	cmp	r4, #0
 80066aa:	d0a8      	beq.n	80065fe <__ieee754_atan2+0x3e>
 80066ac:	a318      	add	r3, pc, #96	@ (adr r3, 8006710 <__ieee754_atan2+0x150>)
 80066ae:	e9d3 2300 	ldrd	r2, r3, [r3]
 80066b2:	f7f9 fde9 	bl	8000288 <__aeabi_dsub>
 80066b6:	a318      	add	r3, pc, #96	@ (adr r3, 8006718 <__ieee754_atan2+0x158>)
 80066b8:	e9d3 2300 	ldrd	r2, r3, [r3]
 80066bc:	e014      	b.n	80066e8 <__ieee754_atan2+0x128>
 80066be:	a118      	add	r1, pc, #96	@ (adr r1, 8006720 <__ieee754_atan2+0x160>)
 80066c0:	e9d1 0100 	ldrd	r0, r1, [r1]
 80066c4:	e7ec      	b.n	80066a0 <__ieee754_atan2+0xe0>
 80066c6:	2000      	movs	r0, #0
 80066c8:	2100      	movs	r1, #0
 80066ca:	e7e9      	b.n	80066a0 <__ieee754_atan2+0xe0>
 80066cc:	f101 4300 	add.w	r3, r1, #2147483648	@ 0x80000000
 80066d0:	4619      	mov	r1, r3
 80066d2:	e794      	b.n	80065fe <__ieee754_atan2+0x3e>
 80066d4:	a30e      	add	r3, pc, #56	@ (adr r3, 8006710 <__ieee754_atan2+0x150>)
 80066d6:	e9d3 2300 	ldrd	r2, r3, [r3]
 80066da:	f7f9 fdd5 	bl	8000288 <__aeabi_dsub>
 80066de:	4602      	mov	r2, r0
 80066e0:	460b      	mov	r3, r1
 80066e2:	a10d      	add	r1, pc, #52	@ (adr r1, 8006718 <__ieee754_atan2+0x158>)
 80066e4:	e9d1 0100 	ldrd	r0, r1, [r1]
 80066e8:	f7f9 fdce 	bl	8000288 <__aeabi_dsub>
 80066ec:	e787      	b.n	80065fe <__ieee754_atan2+0x3e>
 80066ee:	a10a      	add	r1, pc, #40	@ (adr r1, 8006718 <__ieee754_atan2+0x158>)
 80066f0:	e9d1 0100 	ldrd	r0, r1, [r1]
 80066f4:	e783      	b.n	80065fe <__ieee754_atan2+0x3e>
 80066f6:	a10c      	add	r1, pc, #48	@ (adr r1, 8006728 <__ieee754_atan2+0x168>)
 80066f8:	e9d1 0100 	ldrd	r0, r1, [r1]
 80066fc:	e77f      	b.n	80065fe <__ieee754_atan2+0x3e>
 80066fe:	2000      	movs	r0, #0
 8006700:	2100      	movs	r1, #0
 8006702:	e77c      	b.n	80065fe <__ieee754_atan2+0x3e>
 8006704:	a10a      	add	r1, pc, #40	@ (adr r1, 8006730 <__ieee754_atan2+0x170>)
 8006706:	e9d1 0100 	ldrd	r0, r1, [r1]
 800670a:	e778      	b.n	80065fe <__ieee754_atan2+0x3e>
 800670c:	f3af 8000 	nop.w
 8006710:	33145c07 	.word	0x33145c07
 8006714:	3ca1a626 	.word	0x3ca1a626
 8006718:	54442d18 	.word	0x54442d18
 800671c:	400921fb 	.word	0x400921fb
 8006720:	54442d18 	.word	0x54442d18
 8006724:	3ff921fb 	.word	0x3ff921fb
 8006728:	54442d18 	.word	0x54442d18
 800672c:	3fe921fb 	.word	0x3fe921fb
 8006730:	54442d18 	.word	0x54442d18
 8006734:	bff921fb 	.word	0xbff921fb
 8006738:	0800cb38 	.word	0x0800cb38
 800673c:	0800cb20 	.word	0x0800cb20
 8006740:	54442d18 	.word	0x54442d18
 8006744:	c00921fb 	.word	0xc00921fb
 8006748:	7ff00000 	.word	0x7ff00000
 800674c:	00000000 	.word	0x00000000

08006750 <__ieee754_pow>:
 8006750:	e92d 4ff0 	stmdb	sp!, {r4, r5, r6, r7, r8, r9, sl, fp, lr}
 8006754:	b091      	sub	sp, #68	@ 0x44
 8006756:	ed8d 1b00 	vstr	d1, [sp]
 800675a:	e9dd 1900 	ldrd	r1, r9, [sp]
 800675e:	f029 4a00 	bic.w	sl, r9, #2147483648	@ 0x80000000
 8006762:	ea5a 0001 	orrs.w	r0, sl, r1
 8006766:	ec57 6b10 	vmov	r6, r7, d0
 800676a:	d113      	bne.n	8006794 <__ieee754_pow+0x44>
 800676c:	19b3      	adds	r3, r6, r6
 800676e:	f487 2200 	eor.w	r2, r7, #524288	@ 0x80000
 8006772:	4152      	adcs	r2, r2
 8006774:	4298      	cmp	r0, r3
 8006776:	4b9a      	ldr	r3, [pc, #616]	@ (80069e0 <__ieee754_pow+0x290>)
 8006778:	4193      	sbcs	r3, r2
 800677a:	f080 84ee 	bcs.w	800715a <__ieee754_pow+0xa0a>
 800677e:	e9dd 2300 	ldrd	r2, r3, [sp]
 8006782:	4630      	mov	r0, r6
 8006784:	4639      	mov	r1, r7
 8006786:	f7f9 fd81 	bl	800028c <__adddf3>
 800678a:	ec41 0b10 	vmov	d0, r0, r1
 800678e:	b011      	add	sp, #68	@ 0x44
 8006790:	e8bd 8ff0 	ldmia.w	sp!, {r4, r5, r6, r7, r8, r9, sl, fp, pc}
 8006794:	4a93      	ldr	r2, [pc, #588]	@ (80069e4 <__ieee754_pow+0x294>)
 8006796:	f027 4500 	bic.w	r5, r7, #2147483648	@ 0x80000000
 800679a:	4295      	cmp	r5, r2
 800679c:	46b8      	mov	r8, r7
 800679e:	4633      	mov	r3, r6
 80067a0:	d80a      	bhi.n	80067b8 <__ieee754_pow+0x68>
 80067a2:	d104      	bne.n	80067ae <__ieee754_pow+0x5e>
 80067a4:	2e00      	cmp	r6, #0
 80067a6:	d1ea      	bne.n	800677e <__ieee754_pow+0x2e>
 80067a8:	45aa      	cmp	sl, r5
 80067aa:	d8e8      	bhi.n	800677e <__ieee754_pow+0x2e>
 80067ac:	e001      	b.n	80067b2 <__ieee754_pow+0x62>
 80067ae:	4592      	cmp	sl, r2
 80067b0:	d802      	bhi.n	80067b8 <__ieee754_pow+0x68>
 80067b2:	4592      	cmp	sl, r2
 80067b4:	d10f      	bne.n	80067d6 <__ieee754_pow+0x86>
 80067b6:	b171      	cbz	r1, 80067d6 <__ieee754_pow+0x86>
 80067b8:	f108 4840 	add.w	r8, r8, #3221225472	@ 0xc0000000
 80067bc:	f508 1880 	add.w	r8, r8, #1048576	@ 0x100000
 80067c0:	ea58 0803 	orrs.w	r8, r8, r3
 80067c4:	d1db      	bne.n	800677e <__ieee754_pow+0x2e>
 80067c6:	e9dd 3200 	ldrd	r3, r2, [sp]
 80067ca:	18db      	adds	r3, r3, r3
 80067cc:	f482 2200 	eor.w	r2, r2, #524288	@ 0x80000
 80067d0:	4152      	adcs	r2, r2
 80067d2:	4598      	cmp	r8, r3
 80067d4:	e7cf      	b.n	8006776 <__ieee754_pow+0x26>
 80067d6:	f1b8 0f00 	cmp.w	r8, #0
 80067da:	46ab      	mov	fp, r5
 80067dc:	da43      	bge.n	8006866 <__ieee754_pow+0x116>
 80067de:	4a82      	ldr	r2, [pc, #520]	@ (80069e8 <__ieee754_pow+0x298>)
 80067e0:	4592      	cmp	sl, r2
 80067e2:	d856      	bhi.n	8006892 <__ieee754_pow+0x142>
 80067e4:	f1a2 7254 	sub.w	r2, r2, #55574528	@ 0x3500000
 80067e8:	4592      	cmp	sl, r2
 80067ea:	f240 84c5 	bls.w	8007178 <__ieee754_pow+0xa28>
 80067ee:	ea4f 522a 	mov.w	r2, sl, asr #20
 80067f2:	f2a2 32ff 	subw	r2, r2, #1023	@ 0x3ff
 80067f6:	2a14      	cmp	r2, #20
 80067f8:	dd18      	ble.n	800682c <__ieee754_pow+0xdc>
 80067fa:	f1c2 0234 	rsb	r2, r2, #52	@ 0x34
 80067fe:	fa21 f402 	lsr.w	r4, r1, r2
 8006802:	fa04 f202 	lsl.w	r2, r4, r2
 8006806:	428a      	cmp	r2, r1
 8006808:	f040 84b6 	bne.w	8007178 <__ieee754_pow+0xa28>
 800680c:	f004 0401 	and.w	r4, r4, #1
 8006810:	f1c4 0402 	rsb	r4, r4, #2
 8006814:	2900      	cmp	r1, #0
 8006816:	d159      	bne.n	80068cc <__ieee754_pow+0x17c>
 8006818:	f1b9 4f80 	cmp.w	r9, #1073741824	@ 0x40000000
 800681c:	d148      	bne.n	80068b0 <__ieee754_pow+0x160>
 800681e:	4632      	mov	r2, r6
 8006820:	463b      	mov	r3, r7
 8006822:	4630      	mov	r0, r6
 8006824:	4639      	mov	r1, r7
 8006826:	f7f9 fee7 	bl	80005f8 <__aeabi_dmul>
 800682a:	e7ae      	b.n	800678a <__ieee754_pow+0x3a>
 800682c:	2900      	cmp	r1, #0
 800682e:	d14c      	bne.n	80068ca <__ieee754_pow+0x17a>
 8006830:	f1c2 0214 	rsb	r2, r2, #20
 8006834:	fa4a f402 	asr.w	r4, sl, r2
 8006838:	fa04 f202 	lsl.w	r2, r4, r2
 800683c:	4552      	cmp	r2, sl
 800683e:	f040 8498 	bne.w	8007172 <__ieee754_pow+0xa22>
 8006842:	f004 0401 	and.w	r4, r4, #1
 8006846:	f1c4 0402 	rsb	r4, r4, #2
 800684a:	4a68      	ldr	r2, [pc, #416]	@ (80069ec <__ieee754_pow+0x29c>)
 800684c:	4592      	cmp	sl, r2
 800684e:	d1e3      	bne.n	8006818 <__ieee754_pow+0xc8>
 8006850:	f1b9 0f00 	cmp.w	r9, #0
 8006854:	f280 8489 	bge.w	800716a <__ieee754_pow+0xa1a>
 8006858:	4964      	ldr	r1, [pc, #400]	@ (80069ec <__ieee754_pow+0x29c>)
 800685a:	4632      	mov	r2, r6
 800685c:	463b      	mov	r3, r7
 800685e:	2000      	movs	r0, #0
 8006860:	f7f9 fff4 	bl	800084c <__aeabi_ddiv>
 8006864:	e791      	b.n	800678a <__ieee754_pow+0x3a>
 8006866:	2400      	movs	r4, #0
 8006868:	bb81      	cbnz	r1, 80068cc <__ieee754_pow+0x17c>
 800686a:	4a5e      	ldr	r2, [pc, #376]	@ (80069e4 <__ieee754_pow+0x294>)
 800686c:	4592      	cmp	sl, r2
 800686e:	d1ec      	bne.n	800684a <__ieee754_pow+0xfa>
 8006870:	f105 4240 	add.w	r2, r5, #3221225472	@ 0xc0000000
 8006874:	f502 1280 	add.w	r2, r2, #1048576	@ 0x100000
 8006878:	431a      	orrs	r2, r3
 800687a:	f000 846e 	beq.w	800715a <__ieee754_pow+0xa0a>
 800687e:	4b5c      	ldr	r3, [pc, #368]	@ (80069f0 <__ieee754_pow+0x2a0>)
 8006880:	429d      	cmp	r5, r3
 8006882:	d908      	bls.n	8006896 <__ieee754_pow+0x146>
 8006884:	f1b9 0f00 	cmp.w	r9, #0
 8006888:	f280 846b 	bge.w	8007162 <__ieee754_pow+0xa12>
 800688c:	2000      	movs	r0, #0
 800688e:	2100      	movs	r1, #0
 8006890:	e77b      	b.n	800678a <__ieee754_pow+0x3a>
 8006892:	2402      	movs	r4, #2
 8006894:	e7e8      	b.n	8006868 <__ieee754_pow+0x118>
 8006896:	f1b9 0f00 	cmp.w	r9, #0
 800689a:	f04f 0000 	mov.w	r0, #0
 800689e:	f04f 0100 	mov.w	r1, #0
 80068a2:	f6bf af72 	bge.w	800678a <__ieee754_pow+0x3a>
 80068a6:	e9dd 0300 	ldrd	r0, r3, [sp]
 80068aa:	f103 4100 	add.w	r1, r3, #2147483648	@ 0x80000000
 80068ae:	e76c      	b.n	800678a <__ieee754_pow+0x3a>
 80068b0:	4a50      	ldr	r2, [pc, #320]	@ (80069f4 <__ieee754_pow+0x2a4>)
 80068b2:	4591      	cmp	r9, r2
 80068b4:	d10a      	bne.n	80068cc <__ieee754_pow+0x17c>
 80068b6:	f1b8 0f00 	cmp.w	r8, #0
 80068ba:	db07      	blt.n	80068cc <__ieee754_pow+0x17c>
 80068bc:	ec47 6b10 	vmov	d0, r6, r7
 80068c0:	b011      	add	sp, #68	@ 0x44
 80068c2:	e8bd 4ff0 	ldmia.w	sp!, {r4, r5, r6, r7, r8, r9, sl, fp, lr}
 80068c6:	f7ff ba1b 	b.w	8005d00 <__ieee754_sqrt>
 80068ca:	2400      	movs	r4, #0
 80068cc:	ec47 6b10 	vmov	d0, r6, r7
 80068d0:	9302      	str	r3, [sp, #8]
 80068d2:	f7ff f9a5 	bl	8005c20 <fabs>
 80068d6:	9b02      	ldr	r3, [sp, #8]
 80068d8:	ec51 0b10 	vmov	r0, r1, d0
 80068dc:	bb43      	cbnz	r3, 8006930 <__ieee754_pow+0x1e0>
 80068de:	4b43      	ldr	r3, [pc, #268]	@ (80069ec <__ieee754_pow+0x29c>)
 80068e0:	f028 4240 	bic.w	r2, r8, #3221225472	@ 0xc0000000
 80068e4:	429a      	cmp	r2, r3
 80068e6:	d000      	beq.n	80068ea <__ieee754_pow+0x19a>
 80068e8:	bb15      	cbnz	r5, 8006930 <__ieee754_pow+0x1e0>
 80068ea:	f1b9 0f00 	cmp.w	r9, #0
 80068ee:	da05      	bge.n	80068fc <__ieee754_pow+0x1ac>
 80068f0:	4602      	mov	r2, r0
 80068f2:	460b      	mov	r3, r1
 80068f4:	2000      	movs	r0, #0
 80068f6:	493d      	ldr	r1, [pc, #244]	@ (80069ec <__ieee754_pow+0x29c>)
 80068f8:	f7f9 ffa8 	bl	800084c <__aeabi_ddiv>
 80068fc:	f1b8 0f00 	cmp.w	r8, #0
 8006900:	f6bf af43 	bge.w	800678a <__ieee754_pow+0x3a>
 8006904:	f105 4540 	add.w	r5, r5, #3221225472	@ 0xc0000000
 8006908:	f505 1580 	add.w	r5, r5, #1048576	@ 0x100000
 800690c:	4325      	orrs	r5, r4
 800690e:	d108      	bne.n	8006922 <__ieee754_pow+0x1d2>
 8006910:	4602      	mov	r2, r0
 8006912:	460b      	mov	r3, r1
 8006914:	4610      	mov	r0, r2
 8006916:	4619      	mov	r1, r3
 8006918:	f7f9 fcb6 	bl	8000288 <__aeabi_dsub>
 800691c:	4602      	mov	r2, r0
 800691e:	460b      	mov	r3, r1
 8006920:	e79e      	b.n	8006860 <__ieee754_pow+0x110>
 8006922:	2c01      	cmp	r4, #1
 8006924:	f47f af31 	bne.w	800678a <__ieee754_pow+0x3a>
 8006928:	f101 4300 	add.w	r3, r1, #2147483648	@ 0x80000000
 800692c:	4619      	mov	r1, r3
 800692e:	e72c      	b.n	800678a <__ieee754_pow+0x3a>
 8006930:	ea4f 73d8 	mov.w	r3, r8, lsr #31
 8006934:	3b01      	subs	r3, #1
 8006936:	ea53 0204 	orrs.w	r2, r3, r4
 800693a:	d102      	bne.n	8006942 <__ieee754_pow+0x1f2>
 800693c:	4632      	mov	r2, r6
 800693e:	463b      	mov	r3, r7
 8006940:	e7e8      	b.n	8006914 <__ieee754_pow+0x1c4>
 8006942:	3c01      	subs	r4, #1
 8006944:	431c      	orrs	r4, r3
 8006946:	d016      	beq.n	8006976 <__ieee754_pow+0x226>
 8006948:	ed9f 7b21 	vldr	d7, [pc, #132]	@ 80069d0 <__ieee754_pow+0x280>
 800694c:	f1ba 4f84 	cmp.w	sl, #1107296256	@ 0x42000000
 8006950:	ed8d 7b02 	vstr	d7, [sp, #8]
 8006954:	f240 8110 	bls.w	8006b78 <__ieee754_pow+0x428>
 8006958:	4b27      	ldr	r3, [pc, #156]	@ (80069f8 <__ieee754_pow+0x2a8>)
 800695a:	459a      	cmp	sl, r3
 800695c:	4b24      	ldr	r3, [pc, #144]	@ (80069f0 <__ieee754_pow+0x2a0>)
 800695e:	d916      	bls.n	800698e <__ieee754_pow+0x23e>
 8006960:	429d      	cmp	r5, r3
 8006962:	d80b      	bhi.n	800697c <__ieee754_pow+0x22c>
 8006964:	f1b9 0f00 	cmp.w	r9, #0
 8006968:	da0b      	bge.n	8006982 <__ieee754_pow+0x232>
 800696a:	2000      	movs	r0, #0
 800696c:	b011      	add	sp, #68	@ 0x44
 800696e:	e8bd 4ff0 	ldmia.w	sp!, {r4, r5, r6, r7, r8, r9, sl, fp, lr}
 8006972:	f001 b87d 	b.w	8007a70 <__math_oflow>
 8006976:	ed9f 7b18 	vldr	d7, [pc, #96]	@ 80069d8 <__ieee754_pow+0x288>
 800697a:	e7e7      	b.n	800694c <__ieee754_pow+0x1fc>
 800697c:	f1b9 0f00 	cmp.w	r9, #0
 8006980:	dcf3      	bgt.n	800696a <__ieee754_pow+0x21a>
 8006982:	2000      	movs	r0, #0
 8006984:	b011      	add	sp, #68	@ 0x44
 8006986:	e8bd 4ff0 	ldmia.w	sp!, {r4, r5, r6, r7, r8, r9, sl, fp, lr}
 800698a:	f001 b869 	b.w	8007a60 <__math_uflow>
 800698e:	429d      	cmp	r5, r3
 8006990:	d20c      	bcs.n	80069ac <__ieee754_pow+0x25c>
 8006992:	e9dd 0102 	ldrd	r0, r1, [sp, #8]
 8006996:	2200      	movs	r2, #0
 8006998:	2300      	movs	r3, #0
 800699a:	f7fa f89f 	bl	8000adc <__aeabi_dcmplt>
 800699e:	3800      	subs	r0, #0
 80069a0:	bf18      	it	ne
 80069a2:	2001      	movne	r0, #1
 80069a4:	f1b9 0f00 	cmp.w	r9, #0
 80069a8:	daec      	bge.n	8006984 <__ieee754_pow+0x234>
 80069aa:	e7df      	b.n	800696c <__ieee754_pow+0x21c>
 80069ac:	4b0f      	ldr	r3, [pc, #60]	@ (80069ec <__ieee754_pow+0x29c>)
 80069ae:	429d      	cmp	r5, r3
 80069b0:	f04f 0200 	mov.w	r2, #0
 80069b4:	d922      	bls.n	80069fc <__ieee754_pow+0x2ac>
 80069b6:	e9dd 0102 	ldrd	r0, r1, [sp, #8]
 80069ba:	2300      	movs	r3, #0
 80069bc:	f7fa f88e 	bl	8000adc <__aeabi_dcmplt>
 80069c0:	3800      	subs	r0, #0
 80069c2:	bf18      	it	ne
 80069c4:	2001      	movne	r0, #1
 80069c6:	f1b9 0f00 	cmp.w	r9, #0
 80069ca:	dccf      	bgt.n	800696c <__ieee754_pow+0x21c>
 80069cc:	e7da      	b.n	8006984 <__ieee754_pow+0x234>
 80069ce:	bf00      	nop
 80069d0:	00000000 	.word	0x00000000
 80069d4:	3ff00000 	.word	0x3ff00000
 80069d8:	00000000 	.word	0x00000000
 80069dc:	bff00000 	.word	0xbff00000
 80069e0:	fff00000 	.word	0xfff00000
 80069e4:	7ff00000 	.word	0x7ff00000
 80069e8:	433fffff 	.word	0x433fffff
 80069ec:	3ff00000 	.word	0x3ff00000
 80069f0:	3fefffff 	.word	0x3fefffff
 80069f4:	3fe00000 	.word	0x3fe00000
 80069f8:	43f00000 	.word	0x43f00000
 80069fc:	4b5a      	ldr	r3, [pc, #360]	@ (8006b68 <__ieee754_pow+0x418>)
 80069fe:	f7f9 fc43 	bl	8000288 <__aeabi_dsub>
 8006a02:	a351      	add	r3, pc, #324	@ (adr r3, 8006b48 <__ieee754_pow+0x3f8>)
 8006a04:	e9d3 2300 	ldrd	r2, r3, [r3]
 8006a08:	4604      	mov	r4, r0
 8006a0a:	460d      	mov	r5, r1
 8006a0c:	f7f9 fdf4 	bl	80005f8 <__aeabi_dmul>
 8006a10:	a34f      	add	r3, pc, #316	@ (adr r3, 8006b50 <__ieee754_pow+0x400>)
 8006a12:	e9d3 2300 	ldrd	r2, r3, [r3]
 8006a16:	4606      	mov	r6, r0
 8006a18:	460f      	mov	r7, r1
 8006a1a:	4620      	mov	r0, r4
 8006a1c:	4629      	mov	r1, r5
 8006a1e:	f7f9 fdeb 	bl	80005f8 <__aeabi_dmul>
 8006a22:	4b52      	ldr	r3, [pc, #328]	@ (8006b6c <__ieee754_pow+0x41c>)
 8006a24:	4682      	mov	sl, r0
 8006a26:	468b      	mov	fp, r1
 8006a28:	2200      	movs	r2, #0
 8006a2a:	4620      	mov	r0, r4
 8006a2c:	4629      	mov	r1, r5
 8006a2e:	f7f9 fde3 	bl	80005f8 <__aeabi_dmul>
 8006a32:	4602      	mov	r2, r0
 8006a34:	460b      	mov	r3, r1
 8006a36:	a148      	add	r1, pc, #288	@ (adr r1, 8006b58 <__ieee754_pow+0x408>)
 8006a38:	e9d1 0100 	ldrd	r0, r1, [r1]
 8006a3c:	f7f9 fc24 	bl	8000288 <__aeabi_dsub>
 8006a40:	4622      	mov	r2, r4
 8006a42:	462b      	mov	r3, r5
 8006a44:	f7f9 fdd8 	bl	80005f8 <__aeabi_dmul>
 8006a48:	4602      	mov	r2, r0
 8006a4a:	460b      	mov	r3, r1
 8006a4c:	2000      	movs	r0, #0
 8006a4e:	4948      	ldr	r1, [pc, #288]	@ (8006b70 <__ieee754_pow+0x420>)
 8006a50:	f7f9 fc1a 	bl	8000288 <__aeabi_dsub>
 8006a54:	4622      	mov	r2, r4
 8006a56:	4680      	mov	r8, r0
 8006a58:	4689      	mov	r9, r1
 8006a5a:	462b      	mov	r3, r5
 8006a5c:	4620      	mov	r0, r4
 8006a5e:	4629      	mov	r1, r5
 8006a60:	f7f9 fdca 	bl	80005f8 <__aeabi_dmul>
 8006a64:	4602      	mov	r2, r0
 8006a66:	460b      	mov	r3, r1
 8006a68:	4640      	mov	r0, r8
 8006a6a:	4649      	mov	r1, r9
 8006a6c:	f7f9 fdc4 	bl	80005f8 <__aeabi_dmul>
 8006a70:	a33b      	add	r3, pc, #236	@ (adr r3, 8006b60 <__ieee754_pow+0x410>)
 8006a72:	e9d3 2300 	ldrd	r2, r3, [r3]
 8006a76:	f7f9 fdbf 	bl	80005f8 <__aeabi_dmul>
 8006a7a:	4602      	mov	r2, r0
 8006a7c:	460b      	mov	r3, r1
 8006a7e:	4650      	mov	r0, sl
 8006a80:	4659      	mov	r1, fp
 8006a82:	f7f9 fc01 	bl	8000288 <__aeabi_dsub>
 8006a86:	4602      	mov	r2, r0
 8006a88:	460b      	mov	r3, r1
 8006a8a:	4680      	mov	r8, r0
 8006a8c:	4689      	mov	r9, r1
 8006a8e:	4630      	mov	r0, r6
 8006a90:	4639      	mov	r1, r7
 8006a92:	f7f9 fbfb 	bl	800028c <__adddf3>
 8006a96:	2400      	movs	r4, #0
 8006a98:	4632      	mov	r2, r6
 8006a9a:	463b      	mov	r3, r7
 8006a9c:	4620      	mov	r0, r4
 8006a9e:	460d      	mov	r5, r1
 8006aa0:	f7f9 fbf2 	bl	8000288 <__aeabi_dsub>
 8006aa4:	4602      	mov	r2, r0
 8006aa6:	460b      	mov	r3, r1
 8006aa8:	4640      	mov	r0, r8
 8006aaa:	4649      	mov	r1, r9
 8006aac:	f7f9 fbec 	bl	8000288 <__aeabi_dsub>
 8006ab0:	e9dd 2300 	ldrd	r2, r3, [sp]
 8006ab4:	e9cd 2304 	strd	r2, r3, [sp, #16]
 8006ab8:	2300      	movs	r3, #0
 8006aba:	9304      	str	r3, [sp, #16]
 8006abc:	e9dd ab04 	ldrd	sl, fp, [sp, #16]
 8006ac0:	4606      	mov	r6, r0
 8006ac2:	460f      	mov	r7, r1
 8006ac4:	465b      	mov	r3, fp
 8006ac6:	4652      	mov	r2, sl
 8006ac8:	e9dd 0100 	ldrd	r0, r1, [sp]
 8006acc:	f7f9 fbdc 	bl	8000288 <__aeabi_dsub>
 8006ad0:	4622      	mov	r2, r4
 8006ad2:	462b      	mov	r3, r5
 8006ad4:	f7f9 fd90 	bl	80005f8 <__aeabi_dmul>
 8006ad8:	e9dd 2300 	ldrd	r2, r3, [sp]
 8006adc:	4680      	mov	r8, r0
 8006ade:	4689      	mov	r9, r1
 8006ae0:	4630      	mov	r0, r6
 8006ae2:	4639      	mov	r1, r7
 8006ae4:	f7f9 fd88 	bl	80005f8 <__aeabi_dmul>
 8006ae8:	4602      	mov	r2, r0
 8006aea:	460b      	mov	r3, r1
 8006aec:	4640      	mov	r0, r8
 8006aee:	4649      	mov	r1, r9
 8006af0:	f7f9 fbcc 	bl	800028c <__adddf3>
 8006af4:	465b      	mov	r3, fp
 8006af6:	4606      	mov	r6, r0
 8006af8:	460f      	mov	r7, r1
 8006afa:	4652      	mov	r2, sl
 8006afc:	4620      	mov	r0, r4
 8006afe:	4629      	mov	r1, r5
 8006b00:	f7f9 fd7a 	bl	80005f8 <__aeabi_dmul>
 8006b04:	460b      	mov	r3, r1
 8006b06:	4602      	mov	r2, r0
 8006b08:	4680      	mov	r8, r0
 8006b0a:	4689      	mov	r9, r1
 8006b0c:	4630      	mov	r0, r6
 8006b0e:	4639      	mov	r1, r7
 8006b10:	f7f9 fbbc 	bl	800028c <__adddf3>
 8006b14:	4b17      	ldr	r3, [pc, #92]	@ (8006b74 <__ieee754_pow+0x424>)
 8006b16:	4299      	cmp	r1, r3
 8006b18:	4604      	mov	r4, r0
 8006b1a:	460d      	mov	r5, r1
 8006b1c:	468b      	mov	fp, r1
 8006b1e:	f340 820b 	ble.w	8006f38 <__ieee754_pow+0x7e8>
 8006b22:	f101 433f 	add.w	r3, r1, #3204448256	@ 0xbf000000
 8006b26:	f503 03e0 	add.w	r3, r3, #7340032	@ 0x700000
 8006b2a:	4303      	orrs	r3, r0
 8006b2c:	f000 81ea 	beq.w	8006f04 <__ieee754_pow+0x7b4>
 8006b30:	e9dd 0102 	ldrd	r0, r1, [sp, #8]
 8006b34:	2200      	movs	r2, #0
 8006b36:	2300      	movs	r3, #0
 8006b38:	f7f9 ffd0 	bl	8000adc <__aeabi_dcmplt>
 8006b3c:	3800      	subs	r0, #0
 8006b3e:	bf18      	it	ne
 8006b40:	2001      	movne	r0, #1
 8006b42:	e713      	b.n	800696c <__ieee754_pow+0x21c>
 8006b44:	f3af 8000 	nop.w
 8006b48:	60000000 	.word	0x60000000
 8006b4c:	3ff71547 	.word	0x3ff71547
 8006b50:	f85ddf44 	.word	0xf85ddf44
 8006b54:	3e54ae0b 	.word	0x3e54ae0b
 8006b58:	55555555 	.word	0x55555555
 8006b5c:	3fd55555 	.word	0x3fd55555
 8006b60:	652b82fe 	.word	0x652b82fe
 8006b64:	3ff71547 	.word	0x3ff71547
 8006b68:	3ff00000 	.word	0x3ff00000
 8006b6c:	3fd00000 	.word	0x3fd00000
 8006b70:	3fe00000 	.word	0x3fe00000
 8006b74:	408fffff 	.word	0x408fffff
 8006b78:	4bd5      	ldr	r3, [pc, #852]	@ (8006ed0 <__ieee754_pow+0x780>)
 8006b7a:	ea08 0303 	and.w	r3, r8, r3
 8006b7e:	2200      	movs	r2, #0
 8006b80:	b92b      	cbnz	r3, 8006b8e <__ieee754_pow+0x43e>
 8006b82:	4bd4      	ldr	r3, [pc, #848]	@ (8006ed4 <__ieee754_pow+0x784>)
 8006b84:	f7f9 fd38 	bl	80005f8 <__aeabi_dmul>
 8006b88:	f06f 0234 	mvn.w	r2, #52	@ 0x34
 8006b8c:	468b      	mov	fp, r1
 8006b8e:	ea4f 532b 	mov.w	r3, fp, asr #20
 8006b92:	f2a3 33ff 	subw	r3, r3, #1023	@ 0x3ff
 8006b96:	4413      	add	r3, r2
 8006b98:	930a      	str	r3, [sp, #40]	@ 0x28
 8006b9a:	4bcf      	ldr	r3, [pc, #828]	@ (8006ed8 <__ieee754_pow+0x788>)
 8006b9c:	f3cb 0b13 	ubfx	fp, fp, #0, #20
 8006ba0:	f04b 557f 	orr.w	r5, fp, #1069547520	@ 0x3fc00000
 8006ba4:	459b      	cmp	fp, r3
 8006ba6:	f445 1540 	orr.w	r5, r5, #3145728	@ 0x300000
 8006baa:	dd08      	ble.n	8006bbe <__ieee754_pow+0x46e>
 8006bac:	4bcb      	ldr	r3, [pc, #812]	@ (8006edc <__ieee754_pow+0x78c>)
 8006bae:	459b      	cmp	fp, r3
 8006bb0:	f340 81a5 	ble.w	8006efe <__ieee754_pow+0x7ae>
 8006bb4:	9b0a      	ldr	r3, [sp, #40]	@ 0x28
 8006bb6:	3301      	adds	r3, #1
 8006bb8:	930a      	str	r3, [sp, #40]	@ 0x28
 8006bba:	f5a5 1580 	sub.w	r5, r5, #1048576	@ 0x100000
 8006bbe:	f04f 0a00 	mov.w	sl, #0
 8006bc2:	ea4f 03ca 	mov.w	r3, sl, lsl #3
 8006bc6:	930b      	str	r3, [sp, #44]	@ 0x2c
 8006bc8:	4bc5      	ldr	r3, [pc, #788]	@ (8006ee0 <__ieee754_pow+0x790>)
 8006bca:	eb03 03ca 	add.w	r3, r3, sl, lsl #3
 8006bce:	ed93 7b00 	vldr	d7, [r3]
 8006bd2:	4629      	mov	r1, r5
 8006bd4:	ec53 2b17 	vmov	r2, r3, d7
 8006bd8:	ed8d 7b06 	vstr	d7, [sp, #24]
 8006bdc:	e9cd 0108 	strd	r0, r1, [sp, #32]
 8006be0:	f7f9 fb52 	bl	8000288 <__aeabi_dsub>
 8006be4:	e9dd 2308 	ldrd	r2, r3, [sp, #32]
 8006be8:	4606      	mov	r6, r0
 8006bea:	460f      	mov	r7, r1
 8006bec:	e9dd 0106 	ldrd	r0, r1, [sp, #24]
 8006bf0:	f7f9 fb4c 	bl	800028c <__adddf3>
 8006bf4:	4602      	mov	r2, r0
 8006bf6:	460b      	mov	r3, r1
 8006bf8:	2000      	movs	r0, #0
 8006bfa:	49ba      	ldr	r1, [pc, #744]	@ (8006ee4 <__ieee754_pow+0x794>)
 8006bfc:	f7f9 fe26 	bl	800084c <__aeabi_ddiv>
 8006c00:	e9cd 010c 	strd	r0, r1, [sp, #48]	@ 0x30
 8006c04:	4602      	mov	r2, r0
 8006c06:	460b      	mov	r3, r1
 8006c08:	4630      	mov	r0, r6
 8006c0a:	4639      	mov	r1, r7
 8006c0c:	f7f9 fcf4 	bl	80005f8 <__aeabi_dmul>
 8006c10:	e9cd 0104 	strd	r0, r1, [sp, #16]
 8006c14:	e9dd bc04 	ldrd	fp, ip, [sp, #16]
 8006c18:	106d      	asrs	r5, r5, #1
 8006c1a:	f045 5500 	orr.w	r5, r5, #536870912	@ 0x20000000
 8006c1e:	f04f 0b00 	mov.w	fp, #0
 8006c22:	f505 2500 	add.w	r5, r5, #524288	@ 0x80000
 8006c26:	4661      	mov	r1, ip
 8006c28:	2200      	movs	r2, #0
 8006c2a:	eb05 438a 	add.w	r3, r5, sl, lsl #18
 8006c2e:	4658      	mov	r0, fp
 8006c30:	46e1      	mov	r9, ip
 8006c32:	e9cd bc0e 	strd	fp, ip, [sp, #56]	@ 0x38
 8006c36:	4614      	mov	r4, r2
 8006c38:	461d      	mov	r5, r3
 8006c3a:	f7f9 fcdd 	bl	80005f8 <__aeabi_dmul>
 8006c3e:	4602      	mov	r2, r0
 8006c40:	460b      	mov	r3, r1
 8006c42:	4630      	mov	r0, r6
 8006c44:	4639      	mov	r1, r7
 8006c46:	f7f9 fb1f 	bl	8000288 <__aeabi_dsub>
 8006c4a:	e9dd 2306 	ldrd	r2, r3, [sp, #24]
 8006c4e:	4606      	mov	r6, r0
 8006c50:	460f      	mov	r7, r1
 8006c52:	4620      	mov	r0, r4
 8006c54:	4629      	mov	r1, r5
 8006c56:	f7f9 fb17 	bl	8000288 <__aeabi_dsub>
 8006c5a:	4602      	mov	r2, r0
 8006c5c:	460b      	mov	r3, r1
 8006c5e:	e9dd 0108 	ldrd	r0, r1, [sp, #32]
 8006c62:	f7f9 fb11 	bl	8000288 <__aeabi_dsub>
 8006c66:	465a      	mov	r2, fp
 8006c68:	464b      	mov	r3, r9
 8006c6a:	f7f9 fcc5 	bl	80005f8 <__aeabi_dmul>
 8006c6e:	4602      	mov	r2, r0
 8006c70:	460b      	mov	r3, r1
 8006c72:	4630      	mov	r0, r6
 8006c74:	4639      	mov	r1, r7
 8006c76:	f7f9 fb07 	bl	8000288 <__aeabi_dsub>
 8006c7a:	e9dd 230c 	ldrd	r2, r3, [sp, #48]	@ 0x30
 8006c7e:	f7f9 fcbb 	bl	80005f8 <__aeabi_dmul>
 8006c82:	e9dd 2304 	ldrd	r2, r3, [sp, #16]
 8006c86:	e9cd 0106 	strd	r0, r1, [sp, #24]
 8006c8a:	4610      	mov	r0, r2
 8006c8c:	4619      	mov	r1, r3
 8006c8e:	f7f9 fcb3 	bl	80005f8 <__aeabi_dmul>
 8006c92:	a37d      	add	r3, pc, #500	@ (adr r3, 8006e88 <__ieee754_pow+0x738>)
 8006c94:	e9d3 2300 	ldrd	r2, r3, [r3]
 8006c98:	4604      	mov	r4, r0
 8006c9a:	460d      	mov	r5, r1
 8006c9c:	f7f9 fcac 	bl	80005f8 <__aeabi_dmul>
 8006ca0:	a37b      	add	r3, pc, #492	@ (adr r3, 8006e90 <__ieee754_pow+0x740>)
 8006ca2:	e9d3 2300 	ldrd	r2, r3, [r3]
 8006ca6:	f7f9 faf1 	bl	800028c <__adddf3>
 8006caa:	4622      	mov	r2, r4
 8006cac:	462b      	mov	r3, r5
 8006cae:	f7f9 fca3 	bl	80005f8 <__aeabi_dmul>
 8006cb2:	a379      	add	r3, pc, #484	@ (adr r3, 8006e98 <__ieee754_pow+0x748>)
 8006cb4:	e9d3 2300 	ldrd	r2, r3, [r3]
 8006cb8:	f7f9 fae8 	bl	800028c <__adddf3>
 8006cbc:	4622      	mov	r2, r4
 8006cbe:	462b      	mov	r3, r5
 8006cc0:	f7f9 fc9a 	bl	80005f8 <__aeabi_dmul>
 8006cc4:	a376      	add	r3, pc, #472	@ (adr r3, 8006ea0 <__ieee754_pow+0x750>)
 8006cc6:	e9d3 2300 	ldrd	r2, r3, [r3]
 8006cca:	f7f9 fadf 	bl	800028c <__adddf3>
 8006cce:	4622      	mov	r2, r4
 8006cd0:	462b      	mov	r3, r5
 8006cd2:	f7f9 fc91 	bl	80005f8 <__aeabi_dmul>
 8006cd6:	a374      	add	r3, pc, #464	@ (adr r3, 8006ea8 <__ieee754_pow+0x758>)
 8006cd8:	e9d3 2300 	ldrd	r2, r3, [r3]
 8006cdc:	f7f9 fad6 	bl	800028c <__adddf3>
 8006ce0:	4622      	mov	r2, r4
 8006ce2:	462b      	mov	r3, r5
 8006ce4:	f7f9 fc88 	bl	80005f8 <__aeabi_dmul>
 8006ce8:	a371      	add	r3, pc, #452	@ (adr r3, 8006eb0 <__ieee754_pow+0x760>)
 8006cea:	e9d3 2300 	ldrd	r2, r3, [r3]
 8006cee:	f7f9 facd 	bl	800028c <__adddf3>
 8006cf2:	4622      	mov	r2, r4
 8006cf4:	4606      	mov	r6, r0
 8006cf6:	460f      	mov	r7, r1
 8006cf8:	462b      	mov	r3, r5
 8006cfa:	4620      	mov	r0, r4
 8006cfc:	4629      	mov	r1, r5
 8006cfe:	f7f9 fc7b 	bl	80005f8 <__aeabi_dmul>
 8006d02:	4602      	mov	r2, r0
 8006d04:	460b      	mov	r3, r1
 8006d06:	4630      	mov	r0, r6
 8006d08:	4639      	mov	r1, r7
 8006d0a:	f7f9 fc75 	bl	80005f8 <__aeabi_dmul>
 8006d0e:	465a      	mov	r2, fp
 8006d10:	4604      	mov	r4, r0
 8006d12:	460d      	mov	r5, r1
 8006d14:	464b      	mov	r3, r9
 8006d16:	e9dd 0104 	ldrd	r0, r1, [sp, #16]
 8006d1a:	f7f9 fab7 	bl	800028c <__adddf3>
 8006d1e:	e9dd 2306 	ldrd	r2, r3, [sp, #24]
 8006d22:	f7f9 fc69 	bl	80005f8 <__aeabi_dmul>
 8006d26:	4622      	mov	r2, r4
 8006d28:	462b      	mov	r3, r5
 8006d2a:	f7f9 faaf 	bl	800028c <__adddf3>
 8006d2e:	465a      	mov	r2, fp
 8006d30:	e9cd 0108 	strd	r0, r1, [sp, #32]
 8006d34:	464b      	mov	r3, r9
 8006d36:	4658      	mov	r0, fp
 8006d38:	4649      	mov	r1, r9
 8006d3a:	f7f9 fc5d 	bl	80005f8 <__aeabi_dmul>
 8006d3e:	4b6a      	ldr	r3, [pc, #424]	@ (8006ee8 <__ieee754_pow+0x798>)
 8006d40:	2200      	movs	r2, #0
 8006d42:	4606      	mov	r6, r0
 8006d44:	460f      	mov	r7, r1
 8006d46:	f7f9 faa1 	bl	800028c <__adddf3>
 8006d4a:	e9dd 2308 	ldrd	r2, r3, [sp, #32]
 8006d4e:	f7f9 fa9d 	bl	800028c <__adddf3>
 8006d52:	46d8      	mov	r8, fp
 8006d54:	e9dd bc0e 	ldrd	fp, ip, [sp, #56]	@ 0x38
 8006d58:	460d      	mov	r5, r1
 8006d5a:	465a      	mov	r2, fp
 8006d5c:	460b      	mov	r3, r1
 8006d5e:	4640      	mov	r0, r8
 8006d60:	4649      	mov	r1, r9
 8006d62:	e9cd bc0c 	strd	fp, ip, [sp, #48]	@ 0x30
 8006d66:	f7f9 fc47 	bl	80005f8 <__aeabi_dmul>
 8006d6a:	465c      	mov	r4, fp
 8006d6c:	4680      	mov	r8, r0
 8006d6e:	4689      	mov	r9, r1
 8006d70:	4b5d      	ldr	r3, [pc, #372]	@ (8006ee8 <__ieee754_pow+0x798>)
 8006d72:	2200      	movs	r2, #0
 8006d74:	4620      	mov	r0, r4
 8006d76:	4629      	mov	r1, r5
 8006d78:	f7f9 fa86 	bl	8000288 <__aeabi_dsub>
 8006d7c:	4632      	mov	r2, r6
 8006d7e:	463b      	mov	r3, r7
 8006d80:	f7f9 fa82 	bl	8000288 <__aeabi_dsub>
 8006d84:	4602      	mov	r2, r0
 8006d86:	460b      	mov	r3, r1
 8006d88:	e9dd 0108 	ldrd	r0, r1, [sp, #32]
 8006d8c:	f7f9 fa7c 	bl	8000288 <__aeabi_dsub>
 8006d90:	e9dd 2304 	ldrd	r2, r3, [sp, #16]
 8006d94:	f7f9 fc30 	bl	80005f8 <__aeabi_dmul>
 8006d98:	4622      	mov	r2, r4
 8006d9a:	4606      	mov	r6, r0
 8006d9c:	460f      	mov	r7, r1
 8006d9e:	462b      	mov	r3, r5
 8006da0:	e9dd 0106 	ldrd	r0, r1, [sp, #24]
 8006da4:	f7f9 fc28 	bl	80005f8 <__aeabi_dmul>
 8006da8:	4602      	mov	r2, r0
 8006daa:	460b      	mov	r3, r1
 8006dac:	4630      	mov	r0, r6
 8006dae:	4639      	mov	r1, r7
 8006db0:	f7f9 fa6c 	bl	800028c <__adddf3>
 8006db4:	4606      	mov	r6, r0
 8006db6:	460f      	mov	r7, r1
 8006db8:	4602      	mov	r2, r0
 8006dba:	460b      	mov	r3, r1
 8006dbc:	4640      	mov	r0, r8
 8006dbe:	4649      	mov	r1, r9
 8006dc0:	f7f9 fa64 	bl	800028c <__adddf3>
 8006dc4:	e9dd bc0c 	ldrd	fp, ip, [sp, #48]	@ 0x30
 8006dc8:	a33b      	add	r3, pc, #236	@ (adr r3, 8006eb8 <__ieee754_pow+0x768>)
 8006dca:	e9d3 2300 	ldrd	r2, r3, [r3]
 8006dce:	4658      	mov	r0, fp
 8006dd0:	e9cd bc08 	strd	fp, ip, [sp, #32]
 8006dd4:	460d      	mov	r5, r1
 8006dd6:	f7f9 fc0f 	bl	80005f8 <__aeabi_dmul>
 8006dda:	465c      	mov	r4, fp
 8006ddc:	e9cd 0104 	strd	r0, r1, [sp, #16]
 8006de0:	4642      	mov	r2, r8
 8006de2:	464b      	mov	r3, r9
 8006de4:	4620      	mov	r0, r4
 8006de6:	4629      	mov	r1, r5
 8006de8:	f7f9 fa4e 	bl	8000288 <__aeabi_dsub>
 8006dec:	4602      	mov	r2, r0
 8006dee:	460b      	mov	r3, r1
 8006df0:	4630      	mov	r0, r6
 8006df2:	4639      	mov	r1, r7
 8006df4:	f7f9 fa48 	bl	8000288 <__aeabi_dsub>
 8006df8:	a331      	add	r3, pc, #196	@ (adr r3, 8006ec0 <__ieee754_pow+0x770>)
 8006dfa:	e9d3 2300 	ldrd	r2, r3, [r3]
 8006dfe:	f7f9 fbfb 	bl	80005f8 <__aeabi_dmul>
 8006e02:	a331      	add	r3, pc, #196	@ (adr r3, 8006ec8 <__ieee754_pow+0x778>)
 8006e04:	e9d3 2300 	ldrd	r2, r3, [r3]
 8006e08:	4606      	mov	r6, r0
 8006e0a:	460f      	mov	r7, r1
 8006e0c:	4620      	mov	r0, r4
 8006e0e:	4629      	mov	r1, r5
 8006e10:	f7f9 fbf2 	bl	80005f8 <__aeabi_dmul>
 8006e14:	4602      	mov	r2, r0
 8006e16:	460b      	mov	r3, r1
 8006e18:	4630      	mov	r0, r6
 8006e1a:	4639      	mov	r1, r7
 8006e1c:	f7f9 fa36 	bl	800028c <__adddf3>
 8006e20:	9a0b      	ldr	r2, [sp, #44]	@ 0x2c
 8006e22:	4b32      	ldr	r3, [pc, #200]	@ (8006eec <__ieee754_pow+0x79c>)
 8006e24:	4413      	add	r3, r2
 8006e26:	e9d3 2300 	ldrd	r2, r3, [r3]
 8006e2a:	f7f9 fa2f 	bl	800028c <__adddf3>
 8006e2e:	e9cd 0106 	strd	r0, r1, [sp, #24]
 8006e32:	980a      	ldr	r0, [sp, #40]	@ 0x28
 8006e34:	f7f9 fb76 	bl	8000524 <__aeabi_i2d>
 8006e38:	9a0b      	ldr	r2, [sp, #44]	@ 0x2c
 8006e3a:	4b2d      	ldr	r3, [pc, #180]	@ (8006ef0 <__ieee754_pow+0x7a0>)
 8006e3c:	4413      	add	r3, r2
 8006e3e:	e9d3 8900 	ldrd	r8, r9, [r3]
 8006e42:	4606      	mov	r6, r0
 8006e44:	e9dd 2306 	ldrd	r2, r3, [sp, #24]
 8006e48:	460f      	mov	r7, r1
 8006e4a:	e9dd 0104 	ldrd	r0, r1, [sp, #16]
 8006e4e:	f7f9 fa1d 	bl	800028c <__adddf3>
 8006e52:	4642      	mov	r2, r8
 8006e54:	464b      	mov	r3, r9
 8006e56:	f7f9 fa19 	bl	800028c <__adddf3>
 8006e5a:	4632      	mov	r2, r6
 8006e5c:	463b      	mov	r3, r7
 8006e5e:	f7f9 fa15 	bl	800028c <__adddf3>
 8006e62:	e9dd bc08 	ldrd	fp, ip, [sp, #32]
 8006e66:	4632      	mov	r2, r6
 8006e68:	463b      	mov	r3, r7
 8006e6a:	4658      	mov	r0, fp
 8006e6c:	460d      	mov	r5, r1
 8006e6e:	f7f9 fa0b 	bl	8000288 <__aeabi_dsub>
 8006e72:	4642      	mov	r2, r8
 8006e74:	464b      	mov	r3, r9
 8006e76:	f7f9 fa07 	bl	8000288 <__aeabi_dsub>
 8006e7a:	e9dd 2304 	ldrd	r2, r3, [sp, #16]
 8006e7e:	f7f9 fa03 	bl	8000288 <__aeabi_dsub>
 8006e82:	465c      	mov	r4, fp
 8006e84:	e036      	b.n	8006ef4 <__ieee754_pow+0x7a4>
 8006e86:	bf00      	nop
 8006e88:	4a454eef 	.word	0x4a454eef
 8006e8c:	3fca7e28 	.word	0x3fca7e28
 8006e90:	93c9db65 	.word	0x93c9db65
 8006e94:	3fcd864a 	.word	0x3fcd864a
 8006e98:	a91d4101 	.word	0xa91d4101
 8006e9c:	3fd17460 	.word	0x3fd17460
 8006ea0:	518f264d 	.word	0x518f264d
 8006ea4:	3fd55555 	.word	0x3fd55555
 8006ea8:	db6fabff 	.word	0xdb6fabff
 8006eac:	3fdb6db6 	.word	0x3fdb6db6
 8006eb0:	33333303 	.word	0x33333303
 8006eb4:	3fe33333 	.word	0x3fe33333
 8006eb8:	e0000000 	.word	0xe0000000
 8006ebc:	3feec709 	.word	0x3feec709
 8006ec0:	dc3a03fd 	.word	0xdc3a03fd
 8006ec4:	3feec709 	.word	0x3feec709
 8006ec8:	145b01f5 	.word	0x145b01f5
 8006ecc:	be3e2fe0 	.word	0xbe3e2fe0
 8006ed0:	7ff00000 	.word	0x7ff00000
 8006ed4:	43400000 	.word	0x43400000
 8006ed8:	0003988e 	.word	0x0003988e
 8006edc:	000bb679 	.word	0x000bb679
 8006ee0:	0800cb70 	.word	0x0800cb70
 8006ee4:	3ff00000 	.word	0x3ff00000
 8006ee8:	40080000 	.word	0x40080000
 8006eec:	0800cb50 	.word	0x0800cb50
 8006ef0:	0800cb60 	.word	0x0800cb60
 8006ef4:	4602      	mov	r2, r0
 8006ef6:	460b      	mov	r3, r1
 8006ef8:	e9dd 0106 	ldrd	r0, r1, [sp, #24]
 8006efc:	e5d6      	b.n	8006aac <__ieee754_pow+0x35c>
 8006efe:	f04f 0a01 	mov.w	sl, #1
 8006f02:	e65e      	b.n	8006bc2 <__ieee754_pow+0x472>
 8006f04:	a3b5      	add	r3, pc, #724	@ (adr r3, 80071dc <__ieee754_pow+0xa8c>)
 8006f06:	e9d3 2300 	ldrd	r2, r3, [r3]
 8006f0a:	4630      	mov	r0, r6
 8006f0c:	4639      	mov	r1, r7
 8006f0e:	f7f9 f9bd 	bl	800028c <__adddf3>
 8006f12:	4642      	mov	r2, r8
 8006f14:	e9cd 0100 	strd	r0, r1, [sp]
 8006f18:	464b      	mov	r3, r9
 8006f1a:	4620      	mov	r0, r4
 8006f1c:	4629      	mov	r1, r5
 8006f1e:	f7f9 f9b3 	bl	8000288 <__aeabi_dsub>
 8006f22:	4602      	mov	r2, r0
 8006f24:	460b      	mov	r3, r1
 8006f26:	e9dd 0100 	ldrd	r0, r1, [sp]
 8006f2a:	f7f9 fdf5 	bl	8000b18 <__aeabi_dcmpgt>
 8006f2e:	2800      	cmp	r0, #0
 8006f30:	f47f adfe 	bne.w	8006b30 <__ieee754_pow+0x3e0>
 8006f34:	4ba2      	ldr	r3, [pc, #648]	@ (80071c0 <__ieee754_pow+0xa70>)
 8006f36:	e022      	b.n	8006f7e <__ieee754_pow+0x82e>
 8006f38:	4ca2      	ldr	r4, [pc, #648]	@ (80071c4 <__ieee754_pow+0xa74>)
 8006f3a:	f021 4300 	bic.w	r3, r1, #2147483648	@ 0x80000000
 8006f3e:	42a3      	cmp	r3, r4
 8006f40:	d919      	bls.n	8006f76 <__ieee754_pow+0x826>
 8006f42:	4ba1      	ldr	r3, [pc, #644]	@ (80071c8 <__ieee754_pow+0xa78>)
 8006f44:	440b      	add	r3, r1
 8006f46:	4303      	orrs	r3, r0
 8006f48:	d009      	beq.n	8006f5e <__ieee754_pow+0x80e>
 8006f4a:	e9dd 0102 	ldrd	r0, r1, [sp, #8]
 8006f4e:	2200      	movs	r2, #0
 8006f50:	2300      	movs	r3, #0
 8006f52:	f7f9 fdc3 	bl	8000adc <__aeabi_dcmplt>
 8006f56:	3800      	subs	r0, #0
 8006f58:	bf18      	it	ne
 8006f5a:	2001      	movne	r0, #1
 8006f5c:	e512      	b.n	8006984 <__ieee754_pow+0x234>
 8006f5e:	4642      	mov	r2, r8
 8006f60:	464b      	mov	r3, r9
 8006f62:	f7f9 f991 	bl	8000288 <__aeabi_dsub>
 8006f66:	4632      	mov	r2, r6
 8006f68:	463b      	mov	r3, r7
 8006f6a:	f7f9 fdcb 	bl	8000b04 <__aeabi_dcmpge>
 8006f6e:	2800      	cmp	r0, #0
 8006f70:	d1eb      	bne.n	8006f4a <__ieee754_pow+0x7fa>
 8006f72:	4b96      	ldr	r3, [pc, #600]	@ (80071cc <__ieee754_pow+0xa7c>)
 8006f74:	e003      	b.n	8006f7e <__ieee754_pow+0x82e>
 8006f76:	4a96      	ldr	r2, [pc, #600]	@ (80071d0 <__ieee754_pow+0xa80>)
 8006f78:	4293      	cmp	r3, r2
 8006f7a:	f240 80e7 	bls.w	800714c <__ieee754_pow+0x9fc>
 8006f7e:	151b      	asrs	r3, r3, #20
 8006f80:	f2a3 33fe 	subw	r3, r3, #1022	@ 0x3fe
 8006f84:	f44f 1a80 	mov.w	sl, #1048576	@ 0x100000
 8006f88:	fa4a fa03 	asr.w	sl, sl, r3
 8006f8c:	44da      	add	sl, fp
 8006f8e:	f3ca 510a 	ubfx	r1, sl, #20, #11
 8006f92:	4890      	ldr	r0, [pc, #576]	@ (80071d4 <__ieee754_pow+0xa84>)
 8006f94:	f2a1 31ff 	subw	r1, r1, #1023	@ 0x3ff
 8006f98:	4108      	asrs	r0, r1
 8006f9a:	ea00 030a 	and.w	r3, r0, sl
 8006f9e:	f3ca 0a13 	ubfx	sl, sl, #0, #20
 8006fa2:	f1c1 0114 	rsb	r1, r1, #20
 8006fa6:	f44a 1a80 	orr.w	sl, sl, #1048576	@ 0x100000
 8006faa:	fa4a fa01 	asr.w	sl, sl, r1
 8006fae:	f1bb 0f00 	cmp.w	fp, #0
 8006fb2:	4640      	mov	r0, r8
 8006fb4:	4649      	mov	r1, r9
 8006fb6:	f04f 0200 	mov.w	r2, #0
 8006fba:	bfb8      	it	lt
 8006fbc:	f1ca 0a00 	rsblt	sl, sl, #0
 8006fc0:	f7f9 f962 	bl	8000288 <__aeabi_dsub>
 8006fc4:	4680      	mov	r8, r0
 8006fc6:	4689      	mov	r9, r1
 8006fc8:	4632      	mov	r2, r6
 8006fca:	463b      	mov	r3, r7
 8006fcc:	4640      	mov	r0, r8
 8006fce:	4649      	mov	r1, r9
 8006fd0:	f7f9 f95c 	bl	800028c <__adddf3>
 8006fd4:	2400      	movs	r4, #0
 8006fd6:	a36a      	add	r3, pc, #424	@ (adr r3, 8007180 <__ieee754_pow+0xa30>)
 8006fd8:	e9d3 2300 	ldrd	r2, r3, [r3]
 8006fdc:	4620      	mov	r0, r4
 8006fde:	460d      	mov	r5, r1
 8006fe0:	f7f9 fb0a 	bl	80005f8 <__aeabi_dmul>
 8006fe4:	4642      	mov	r2, r8
 8006fe6:	e9cd 0100 	strd	r0, r1, [sp]
 8006fea:	464b      	mov	r3, r9
 8006fec:	4620      	mov	r0, r4
 8006fee:	4629      	mov	r1, r5
 8006ff0:	f7f9 f94a 	bl	8000288 <__aeabi_dsub>
 8006ff4:	4602      	mov	r2, r0
 8006ff6:	460b      	mov	r3, r1
 8006ff8:	4630      	mov	r0, r6
 8006ffa:	4639      	mov	r1, r7
 8006ffc:	f7f9 f944 	bl	8000288 <__aeabi_dsub>
 8007000:	a361      	add	r3, pc, #388	@ (adr r3, 8007188 <__ieee754_pow+0xa38>)
 8007002:	e9d3 2300 	ldrd	r2, r3, [r3]
 8007006:	f7f9 faf7 	bl	80005f8 <__aeabi_dmul>
 800700a:	a361      	add	r3, pc, #388	@ (adr r3, 8007190 <__ieee754_pow+0xa40>)
 800700c:	e9d3 2300 	ldrd	r2, r3, [r3]
 8007010:	4680      	mov	r8, r0
 8007012:	4689      	mov	r9, r1
 8007014:	4620      	mov	r0, r4
 8007016:	4629      	mov	r1, r5
 8007018:	f7f9 faee 	bl	80005f8 <__aeabi_dmul>
 800701c:	4602      	mov	r2, r0
 800701e:	460b      	mov	r3, r1
 8007020:	4640      	mov	r0, r8
 8007022:	4649      	mov	r1, r9
 8007024:	f7f9 f932 	bl	800028c <__adddf3>
 8007028:	4604      	mov	r4, r0
 800702a:	460d      	mov	r5, r1
 800702c:	4602      	mov	r2, r0
 800702e:	460b      	mov	r3, r1
 8007030:	e9dd 0100 	ldrd	r0, r1, [sp]
 8007034:	f7f9 f92a 	bl	800028c <__adddf3>
 8007038:	e9dd 2300 	ldrd	r2, r3, [sp]
 800703c:	4680      	mov	r8, r0
 800703e:	4689      	mov	r9, r1
 8007040:	f7f9 f922 	bl	8000288 <__aeabi_dsub>
 8007044:	4602      	mov	r2, r0
 8007046:	460b      	mov	r3, r1
 8007048:	4620      	mov	r0, r4
 800704a:	4629      	mov	r1, r5
 800704c:	f7f9 f91c 	bl	8000288 <__aeabi_dsub>
 8007050:	4642      	mov	r2, r8
 8007052:	4606      	mov	r6, r0
 8007054:	460f      	mov	r7, r1
 8007056:	464b      	mov	r3, r9
 8007058:	4640      	mov	r0, r8
 800705a:	4649      	mov	r1, r9
 800705c:	f7f9 facc 	bl	80005f8 <__aeabi_dmul>
 8007060:	a34d      	add	r3, pc, #308	@ (adr r3, 8007198 <__ieee754_pow+0xa48>)
 8007062:	e9d3 2300 	ldrd	r2, r3, [r3]
 8007066:	4604      	mov	r4, r0
 8007068:	460d      	mov	r5, r1
 800706a:	f7f9 fac5 	bl	80005f8 <__aeabi_dmul>
 800706e:	a34c      	add	r3, pc, #304	@ (adr r3, 80071a0 <__ieee754_pow+0xa50>)
 8007070:	e9d3 2300 	ldrd	r2, r3, [r3]
 8007074:	f7f9 f908 	bl	8000288 <__aeabi_dsub>
 8007078:	4622      	mov	r2, r4
 800707a:	462b      	mov	r3, r5
 800707c:	f7f9 fabc 	bl	80005f8 <__aeabi_dmul>
 8007080:	a349      	add	r3, pc, #292	@ (adr r3, 80071a8 <__ieee754_pow+0xa58>)
 8007082:	e9d3 2300 	ldrd	r2, r3, [r3]
 8007086:	f7f9 f901 	bl	800028c <__adddf3>
 800708a:	4622      	mov	r2, r4
 800708c:	462b      	mov	r3, r5
 800708e:	f7f9 fab3 	bl	80005f8 <__aeabi_dmul>
 8007092:	a347      	add	r3, pc, #284	@ (adr r3, 80071b0 <__ieee754_pow+0xa60>)
 8007094:	e9d3 2300 	ldrd	r2, r3, [r3]
 8007098:	f7f9 f8f6 	bl	8000288 <__aeabi_dsub>
 800709c:	4622      	mov	r2, r4
 800709e:	462b      	mov	r3, r5
 80070a0:	f7f9 faaa 	bl	80005f8 <__aeabi_dmul>
 80070a4:	a344      	add	r3, pc, #272	@ (adr r3, 80071b8 <__ieee754_pow+0xa68>)
 80070a6:	e9d3 2300 	ldrd	r2, r3, [r3]
 80070aa:	f7f9 f8ef 	bl	800028c <__adddf3>
 80070ae:	4622      	mov	r2, r4
 80070b0:	462b      	mov	r3, r5
 80070b2:	f7f9 faa1 	bl	80005f8 <__aeabi_dmul>
 80070b6:	4602      	mov	r2, r0
 80070b8:	460b      	mov	r3, r1
 80070ba:	4640      	mov	r0, r8
 80070bc:	4649      	mov	r1, r9
 80070be:	f7f9 f8e3 	bl	8000288 <__aeabi_dsub>
 80070c2:	4604      	mov	r4, r0
 80070c4:	460d      	mov	r5, r1
 80070c6:	4602      	mov	r2, r0
 80070c8:	460b      	mov	r3, r1
 80070ca:	4640      	mov	r0, r8
 80070cc:	4649      	mov	r1, r9
 80070ce:	f7f9 fa93 	bl	80005f8 <__aeabi_dmul>
 80070d2:	2200      	movs	r2, #0
 80070d4:	e9cd 0100 	strd	r0, r1, [sp]
 80070d8:	f04f 4380 	mov.w	r3, #1073741824	@ 0x40000000
 80070dc:	4620      	mov	r0, r4
 80070de:	4629      	mov	r1, r5
 80070e0:	f7f9 f8d2 	bl	8000288 <__aeabi_dsub>
 80070e4:	4602      	mov	r2, r0
 80070e6:	460b      	mov	r3, r1
 80070e8:	e9dd 0100 	ldrd	r0, r1, [sp]
 80070ec:	f7f9 fbae 	bl	800084c <__aeabi_ddiv>
 80070f0:	4632      	mov	r2, r6
 80070f2:	4604      	mov	r4, r0
 80070f4:	460d      	mov	r5, r1
 80070f6:	463b      	mov	r3, r7
 80070f8:	4640      	mov	r0, r8
 80070fa:	4649      	mov	r1, r9
 80070fc:	f7f9 fa7c 	bl	80005f8 <__aeabi_dmul>
 8007100:	4632      	mov	r2, r6
 8007102:	463b      	mov	r3, r7
 8007104:	f7f9 f8c2 	bl	800028c <__adddf3>
 8007108:	4602      	mov	r2, r0
 800710a:	460b      	mov	r3, r1
 800710c:	4620      	mov	r0, r4
 800710e:	4629      	mov	r1, r5
 8007110:	f7f9 f8ba 	bl	8000288 <__aeabi_dsub>
 8007114:	4642      	mov	r2, r8
 8007116:	464b      	mov	r3, r9
 8007118:	f7f9 f8b6 	bl	8000288 <__aeabi_dsub>
 800711c:	460b      	mov	r3, r1
 800711e:	4602      	mov	r2, r0
 8007120:	492d      	ldr	r1, [pc, #180]	@ (80071d8 <__ieee754_pow+0xa88>)
 8007122:	2000      	movs	r0, #0
 8007124:	f7f9 f8b0 	bl	8000288 <__aeabi_dsub>
 8007128:	ec41 0b10 	vmov	d0, r0, r1
 800712c:	ee10 3a90 	vmov	r3, s1
 8007130:	eb03 530a 	add.w	r3, r3, sl, lsl #20
 8007134:	f5b3 1f80 	cmp.w	r3, #1048576	@ 0x100000
 8007138:	da0b      	bge.n	8007152 <__ieee754_pow+0xa02>
 800713a:	4650      	mov	r0, sl
 800713c:	f000 fbe8 	bl	8007910 <scalbn>
 8007140:	ec51 0b10 	vmov	r0, r1, d0
 8007144:	e9dd 2302 	ldrd	r2, r3, [sp, #8]
 8007148:	f7ff bb6d 	b.w	8006826 <__ieee754_pow+0xd6>
 800714c:	f8dd a010 	ldr.w	sl, [sp, #16]
 8007150:	e73a      	b.n	8006fc8 <__ieee754_pow+0x878>
 8007152:	ec51 0b10 	vmov	r0, r1, d0
 8007156:	4619      	mov	r1, r3
 8007158:	e7f4      	b.n	8007144 <__ieee754_pow+0x9f4>
 800715a:	491f      	ldr	r1, [pc, #124]	@ (80071d8 <__ieee754_pow+0xa88>)
 800715c:	2000      	movs	r0, #0
 800715e:	f7ff bb14 	b.w	800678a <__ieee754_pow+0x3a>
 8007162:	e9dd 0100 	ldrd	r0, r1, [sp]
 8007166:	f7ff bb10 	b.w	800678a <__ieee754_pow+0x3a>
 800716a:	4630      	mov	r0, r6
 800716c:	4639      	mov	r1, r7
 800716e:	f7ff bb0c 	b.w	800678a <__ieee754_pow+0x3a>
 8007172:	460c      	mov	r4, r1
 8007174:	f7ff bb69 	b.w	800684a <__ieee754_pow+0xfa>
 8007178:	2400      	movs	r4, #0
 800717a:	f7ff bb4b 	b.w	8006814 <__ieee754_pow+0xc4>
 800717e:	bf00      	nop
 8007180:	00000000 	.word	0x00000000
 8007184:	3fe62e43 	.word	0x3fe62e43
 8007188:	fefa39ef 	.word	0xfefa39ef
 800718c:	3fe62e42 	.word	0x3fe62e42
 8007190:	0ca86c39 	.word	0x0ca86c39
 8007194:	be205c61 	.word	0xbe205c61
 8007198:	72bea4d0 	.word	0x72bea4d0
 800719c:	3e663769 	.word	0x3e663769
 80071a0:	c5d26bf1 	.word	0xc5d26bf1
 80071a4:	3ebbbd41 	.word	0x3ebbbd41
 80071a8:	af25de2c 	.word	0xaf25de2c
 80071ac:	3f11566a 	.word	0x3f11566a
 80071b0:	16bebd93 	.word	0x16bebd93
 80071b4:	3f66c16c 	.word	0x3f66c16c
 80071b8:	5555553e 	.word	0x5555553e
 80071bc:	3fc55555 	.word	0x3fc55555
 80071c0:	40900000 	.word	0x40900000
 80071c4:	4090cbff 	.word	0x4090cbff
 80071c8:	3f6f3400 	.word	0x3f6f3400
 80071cc:	4090cc00 	.word	0x4090cc00
 80071d0:	3fe00000 	.word	0x3fe00000
 80071d4:	fff00000 	.word	0xfff00000
 80071d8:	3ff00000 	.word	0x3ff00000
 80071dc:	652b82fe 	.word	0x652b82fe
 80071e0:	3c971547 	.word	0x3c971547
 80071e4:	00000000 	.word	0x00000000

080071e8 <__ieee754_rem_pio2>:
 80071e8:	e92d 4ff0 	stmdb	sp!, {r4, r5, r6, r7, r8, r9, sl, fp, lr}
 80071ec:	ec57 6b10 	vmov	r6, r7, d0
 80071f0:	4bc5      	ldr	r3, [pc, #788]	@ (8007508 <__ieee754_rem_pio2+0x320>)
 80071f2:	b08d      	sub	sp, #52	@ 0x34
 80071f4:	f027 4800 	bic.w	r8, r7, #2147483648	@ 0x80000000
 80071f8:	4598      	cmp	r8, r3
 80071fa:	4604      	mov	r4, r0
 80071fc:	9704      	str	r7, [sp, #16]
 80071fe:	d807      	bhi.n	8007210 <__ieee754_rem_pio2+0x28>
 8007200:	2200      	movs	r2, #0
 8007202:	2300      	movs	r3, #0
 8007204:	ed80 0b00 	vstr	d0, [r0]
 8007208:	e9c0 2302 	strd	r2, r3, [r0, #8]
 800720c:	2500      	movs	r5, #0
 800720e:	e028      	b.n	8007262 <__ieee754_rem_pio2+0x7a>
 8007210:	4bbe      	ldr	r3, [pc, #760]	@ (800750c <__ieee754_rem_pio2+0x324>)
 8007212:	4598      	cmp	r8, r3
 8007214:	d878      	bhi.n	8007308 <__ieee754_rem_pio2+0x120>
 8007216:	9b04      	ldr	r3, [sp, #16]
 8007218:	4dbd      	ldr	r5, [pc, #756]	@ (8007510 <__ieee754_rem_pio2+0x328>)
 800721a:	2b00      	cmp	r3, #0
 800721c:	4630      	mov	r0, r6
 800721e:	a3ac      	add	r3, pc, #688	@ (adr r3, 80074d0 <__ieee754_rem_pio2+0x2e8>)
 8007220:	e9d3 2300 	ldrd	r2, r3, [r3]
 8007224:	4639      	mov	r1, r7
 8007226:	dd38      	ble.n	800729a <__ieee754_rem_pio2+0xb2>
 8007228:	f7f9 f82e 	bl	8000288 <__aeabi_dsub>
 800722c:	45a8      	cmp	r8, r5
 800722e:	4606      	mov	r6, r0
 8007230:	460f      	mov	r7, r1
 8007232:	d01a      	beq.n	800726a <__ieee754_rem_pio2+0x82>
 8007234:	a3a8      	add	r3, pc, #672	@ (adr r3, 80074d8 <__ieee754_rem_pio2+0x2f0>)
 8007236:	e9d3 2300 	ldrd	r2, r3, [r3]
 800723a:	f7f9 f825 	bl	8000288 <__aeabi_dsub>
 800723e:	4602      	mov	r2, r0
 8007240:	460b      	mov	r3, r1
 8007242:	4680      	mov	r8, r0
 8007244:	4689      	mov	r9, r1
 8007246:	4630      	mov	r0, r6
 8007248:	4639      	mov	r1, r7
 800724a:	f7f9 f81d 	bl	8000288 <__aeabi_dsub>
 800724e:	a3a2      	add	r3, pc, #648	@ (adr r3, 80074d8 <__ieee754_rem_pio2+0x2f0>)
 8007250:	e9d3 2300 	ldrd	r2, r3, [r3]
 8007254:	f7f9 f818 	bl	8000288 <__aeabi_dsub>
 8007258:	e9c4 8900 	strd	r8, r9, [r4]
 800725c:	e9c4 0102 	strd	r0, r1, [r4, #8]
 8007260:	2501      	movs	r5, #1
 8007262:	4628      	mov	r0, r5
 8007264:	b00d      	add	sp, #52	@ 0x34
 8007266:	e8bd 8ff0 	ldmia.w	sp!, {r4, r5, r6, r7, r8, r9, sl, fp, pc}
 800726a:	a39d      	add	r3, pc, #628	@ (adr r3, 80074e0 <__ieee754_rem_pio2+0x2f8>)
 800726c:	e9d3 2300 	ldrd	r2, r3, [r3]
 8007270:	f7f9 f80a 	bl	8000288 <__aeabi_dsub>
 8007274:	a39c      	add	r3, pc, #624	@ (adr r3, 80074e8 <__ieee754_rem_pio2+0x300>)
 8007276:	e9d3 2300 	ldrd	r2, r3, [r3]
 800727a:	4606      	mov	r6, r0
 800727c:	460f      	mov	r7, r1
 800727e:	f7f9 f803 	bl	8000288 <__aeabi_dsub>
 8007282:	4602      	mov	r2, r0
 8007284:	460b      	mov	r3, r1
 8007286:	4680      	mov	r8, r0
 8007288:	4689      	mov	r9, r1
 800728a:	4630      	mov	r0, r6
 800728c:	4639      	mov	r1, r7
 800728e:	f7f8 fffb 	bl	8000288 <__aeabi_dsub>
 8007292:	a395      	add	r3, pc, #596	@ (adr r3, 80074e8 <__ieee754_rem_pio2+0x300>)
 8007294:	e9d3 2300 	ldrd	r2, r3, [r3]
 8007298:	e7dc      	b.n	8007254 <__ieee754_rem_pio2+0x6c>
 800729a:	f7f8 fff7 	bl	800028c <__adddf3>
 800729e:	45a8      	cmp	r8, r5
 80072a0:	4606      	mov	r6, r0
 80072a2:	460f      	mov	r7, r1
 80072a4:	d018      	beq.n	80072d8 <__ieee754_rem_pio2+0xf0>
 80072a6:	a38c      	add	r3, pc, #560	@ (adr r3, 80074d8 <__ieee754_rem_pio2+0x2f0>)
 80072a8:	e9d3 2300 	ldrd	r2, r3, [r3]
 80072ac:	f7f8 ffee 	bl	800028c <__adddf3>
 80072b0:	4602      	mov	r2, r0
 80072b2:	460b      	mov	r3, r1
 80072b4:	4680      	mov	r8, r0
 80072b6:	4689      	mov	r9, r1
 80072b8:	4630      	mov	r0, r6
 80072ba:	4639      	mov	r1, r7
 80072bc:	f7f8 ffe4 	bl	8000288 <__aeabi_dsub>
 80072c0:	a385      	add	r3, pc, #532	@ (adr r3, 80074d8 <__ieee754_rem_pio2+0x2f0>)
 80072c2:	e9d3 2300 	ldrd	r2, r3, [r3]
 80072c6:	f7f8 ffe1 	bl	800028c <__adddf3>
 80072ca:	f04f 35ff 	mov.w	r5, #4294967295
 80072ce:	e9c4 8900 	strd	r8, r9, [r4]
 80072d2:	e9c4 0102 	strd	r0, r1, [r4, #8]
 80072d6:	e7c4      	b.n	8007262 <__ieee754_rem_pio2+0x7a>
 80072d8:	a381      	add	r3, pc, #516	@ (adr r3, 80074e0 <__ieee754_rem_pio2+0x2f8>)
 80072da:	e9d3 2300 	ldrd	r2, r3, [r3]
 80072de:	f7f8 ffd5 	bl	800028c <__adddf3>
 80072e2:	a381      	add	r3, pc, #516	@ (adr r3, 80074e8 <__ieee754_rem_pio2+0x300>)
 80072e4:	e9d3 2300 	ldrd	r2, r3, [r3]
 80072e8:	4606      	mov	r6, r0
 80072ea:	460f      	mov	r7, r1
 80072ec:	f7f8 ffce 	bl	800028c <__adddf3>
 80072f0:	4602      	mov	r2, r0
 80072f2:	460b      	mov	r3, r1
 80072f4:	4680      	mov	r8, r0
 80072f6:	4689      	mov	r9, r1
 80072f8:	4630      	mov	r0, r6
 80072fa:	4639      	mov	r1, r7
 80072fc:	f7f8 ffc4 	bl	8000288 <__aeabi_dsub>
 8007300:	a379      	add	r3, pc, #484	@ (adr r3, 80074e8 <__ieee754_rem_pio2+0x300>)
 8007302:	e9d3 2300 	ldrd	r2, r3, [r3]
 8007306:	e7de      	b.n	80072c6 <__ieee754_rem_pio2+0xde>
 8007308:	4b82      	ldr	r3, [pc, #520]	@ (8007514 <__ieee754_rem_pio2+0x32c>)
 800730a:	4598      	cmp	r8, r3
 800730c:	f200 80d1 	bhi.w	80074b2 <__ieee754_rem_pio2+0x2ca>
 8007310:	f7fe fc86 	bl	8005c20 <fabs>
 8007314:	ec57 6b10 	vmov	r6, r7, d0
 8007318:	a375      	add	r3, pc, #468	@ (adr r3, 80074f0 <__ieee754_rem_pio2+0x308>)
 800731a:	e9d3 2300 	ldrd	r2, r3, [r3]
 800731e:	4630      	mov	r0, r6
 8007320:	4639      	mov	r1, r7
 8007322:	f7f9 f969 	bl	80005f8 <__aeabi_dmul>
 8007326:	4b7c      	ldr	r3, [pc, #496]	@ (8007518 <__ieee754_rem_pio2+0x330>)
 8007328:	2200      	movs	r2, #0
 800732a:	f7f8 ffaf 	bl	800028c <__adddf3>
 800732e:	f7f9 fc13 	bl	8000b58 <__aeabi_d2iz>
 8007332:	4605      	mov	r5, r0
 8007334:	f7f9 f8f6 	bl	8000524 <__aeabi_i2d>
 8007338:	4602      	mov	r2, r0
 800733a:	460b      	mov	r3, r1
 800733c:	e9cd 2302 	strd	r2, r3, [sp, #8]
 8007340:	a363      	add	r3, pc, #396	@ (adr r3, 80074d0 <__ieee754_rem_pio2+0x2e8>)
 8007342:	e9d3 2300 	ldrd	r2, r3, [r3]
 8007346:	f7f9 f957 	bl	80005f8 <__aeabi_dmul>
 800734a:	4602      	mov	r2, r0
 800734c:	460b      	mov	r3, r1
 800734e:	4630      	mov	r0, r6
 8007350:	4639      	mov	r1, r7
 8007352:	f7f8 ff99 	bl	8000288 <__aeabi_dsub>
 8007356:	a360      	add	r3, pc, #384	@ (adr r3, 80074d8 <__ieee754_rem_pio2+0x2f0>)
 8007358:	e9d3 2300 	ldrd	r2, r3, [r3]
 800735c:	4682      	mov	sl, r0
 800735e:	468b      	mov	fp, r1
 8007360:	e9dd 0102 	ldrd	r0, r1, [sp, #8]
 8007364:	f7f9 f948 	bl	80005f8 <__aeabi_dmul>
 8007368:	2d1f      	cmp	r5, #31
 800736a:	4606      	mov	r6, r0
 800736c:	460f      	mov	r7, r1
 800736e:	dc0c      	bgt.n	800738a <__ieee754_rem_pio2+0x1a2>
 8007370:	4b6a      	ldr	r3, [pc, #424]	@ (800751c <__ieee754_rem_pio2+0x334>)
 8007372:	1e6a      	subs	r2, r5, #1
 8007374:	f853 3022 	ldr.w	r3, [r3, r2, lsl #2]
 8007378:	4543      	cmp	r3, r8
 800737a:	d006      	beq.n	800738a <__ieee754_rem_pio2+0x1a2>
 800737c:	4632      	mov	r2, r6
 800737e:	463b      	mov	r3, r7
 8007380:	4650      	mov	r0, sl
 8007382:	4659      	mov	r1, fp
 8007384:	f7f8 ff80 	bl	8000288 <__aeabi_dsub>
 8007388:	e00e      	b.n	80073a8 <__ieee754_rem_pio2+0x1c0>
 800738a:	463b      	mov	r3, r7
 800738c:	4632      	mov	r2, r6
 800738e:	4650      	mov	r0, sl
 8007390:	4659      	mov	r1, fp
 8007392:	f7f8 ff79 	bl	8000288 <__aeabi_dsub>
 8007396:	ea4f 5328 	mov.w	r3, r8, asr #20
 800739a:	9305      	str	r3, [sp, #20]
 800739c:	f3c1 530a 	ubfx	r3, r1, #20, #11
 80073a0:	ebc3 5318 	rsb	r3, r3, r8, lsr #20
 80073a4:	2b10      	cmp	r3, #16
 80073a6:	dc02      	bgt.n	80073ae <__ieee754_rem_pio2+0x1c6>
 80073a8:	e9c4 0100 	strd	r0, r1, [r4]
 80073ac:	e039      	b.n	8007422 <__ieee754_rem_pio2+0x23a>
 80073ae:	a34c      	add	r3, pc, #304	@ (adr r3, 80074e0 <__ieee754_rem_pio2+0x2f8>)
 80073b0:	e9d3 2300 	ldrd	r2, r3, [r3]
 80073b4:	e9dd 0102 	ldrd	r0, r1, [sp, #8]
 80073b8:	f7f9 f91e 	bl	80005f8 <__aeabi_dmul>
 80073bc:	4606      	mov	r6, r0
 80073be:	460f      	mov	r7, r1
 80073c0:	4602      	mov	r2, r0
 80073c2:	460b      	mov	r3, r1
 80073c4:	4650      	mov	r0, sl
 80073c6:	4659      	mov	r1, fp
 80073c8:	f7f8 ff5e 	bl	8000288 <__aeabi_dsub>
 80073cc:	4602      	mov	r2, r0
 80073ce:	460b      	mov	r3, r1
 80073d0:	4680      	mov	r8, r0
 80073d2:	4689      	mov	r9, r1
 80073d4:	4650      	mov	r0, sl
 80073d6:	4659      	mov	r1, fp
 80073d8:	f7f8 ff56 	bl	8000288 <__aeabi_dsub>
 80073dc:	4632      	mov	r2, r6
 80073de:	463b      	mov	r3, r7
 80073e0:	f7f8 ff52 	bl	8000288 <__aeabi_dsub>
 80073e4:	a340      	add	r3, pc, #256	@ (adr r3, 80074e8 <__ieee754_rem_pio2+0x300>)
 80073e6:	e9d3 2300 	ldrd	r2, r3, [r3]
 80073ea:	4606      	mov	r6, r0
 80073ec:	460f      	mov	r7, r1
 80073ee:	e9dd 0102 	ldrd	r0, r1, [sp, #8]
 80073f2:	f7f9 f901 	bl	80005f8 <__aeabi_dmul>
 80073f6:	4632      	mov	r2, r6
 80073f8:	463b      	mov	r3, r7
 80073fa:	f7f8 ff45 	bl	8000288 <__aeabi_dsub>
 80073fe:	4602      	mov	r2, r0
 8007400:	460b      	mov	r3, r1
 8007402:	4606      	mov	r6, r0
 8007404:	460f      	mov	r7, r1
 8007406:	4640      	mov	r0, r8
 8007408:	4649      	mov	r1, r9
 800740a:	f7f8 ff3d 	bl	8000288 <__aeabi_dsub>
 800740e:	9a05      	ldr	r2, [sp, #20]
 8007410:	f3c1 530a 	ubfx	r3, r1, #20, #11
 8007414:	1ad3      	subs	r3, r2, r3
 8007416:	2b31      	cmp	r3, #49	@ 0x31
 8007418:	dc20      	bgt.n	800745c <__ieee754_rem_pio2+0x274>
 800741a:	e9c4 0100 	strd	r0, r1, [r4]
 800741e:	46c2      	mov	sl, r8
 8007420:	46cb      	mov	fp, r9
 8007422:	e9d4 8900 	ldrd	r8, r9, [r4]
 8007426:	4650      	mov	r0, sl
 8007428:	4642      	mov	r2, r8
 800742a:	464b      	mov	r3, r9
 800742c:	4659      	mov	r1, fp
 800742e:	f7f8 ff2b 	bl	8000288 <__aeabi_dsub>
 8007432:	463b      	mov	r3, r7
 8007434:	4632      	mov	r2, r6
 8007436:	f7f8 ff27 	bl	8000288 <__aeabi_dsub>
 800743a:	9b04      	ldr	r3, [sp, #16]
 800743c:	2b00      	cmp	r3, #0
 800743e:	e9c4 0102 	strd	r0, r1, [r4, #8]
 8007442:	f6bf af0e 	bge.w	8007262 <__ieee754_rem_pio2+0x7a>
 8007446:	f109 4300 	add.w	r3, r9, #2147483648	@ 0x80000000
 800744a:	6063      	str	r3, [r4, #4]
 800744c:	f101 4300 	add.w	r3, r1, #2147483648	@ 0x80000000
 8007450:	f8c4 8000 	str.w	r8, [r4]
 8007454:	60a0      	str	r0, [r4, #8]
 8007456:	60e3      	str	r3, [r4, #12]
 8007458:	426d      	negs	r5, r5
 800745a:	e702      	b.n	8007262 <__ieee754_rem_pio2+0x7a>
 800745c:	a326      	add	r3, pc, #152	@ (adr r3, 80074f8 <__ieee754_rem_pio2+0x310>)
 800745e:	e9d3 2300 	ldrd	r2, r3, [r3]
 8007462:	e9dd 0102 	ldrd	r0, r1, [sp, #8]
 8007466:	f7f9 f8c7 	bl	80005f8 <__aeabi_dmul>
 800746a:	4606      	mov	r6, r0
 800746c:	460f      	mov	r7, r1
 800746e:	4602      	mov	r2, r0
 8007470:	460b      	mov	r3, r1
 8007472:	4640      	mov	r0, r8
 8007474:	4649      	mov	r1, r9
 8007476:	f7f8 ff07 	bl	8000288 <__aeabi_dsub>
 800747a:	4602      	mov	r2, r0
 800747c:	460b      	mov	r3, r1
 800747e:	4682      	mov	sl, r0
 8007480:	468b      	mov	fp, r1
 8007482:	4640      	mov	r0, r8
 8007484:	4649      	mov	r1, r9
 8007486:	f7f8 feff 	bl	8000288 <__aeabi_dsub>
 800748a:	4632      	mov	r2, r6
 800748c:	463b      	mov	r3, r7
 800748e:	f7f8 fefb 	bl	8000288 <__aeabi_dsub>
 8007492:	a31b      	add	r3, pc, #108	@ (adr r3, 8007500 <__ieee754_rem_pio2+0x318>)
 8007494:	e9d3 2300 	ldrd	r2, r3, [r3]
 8007498:	4606      	mov	r6, r0
 800749a:	460f      	mov	r7, r1
 800749c:	e9dd 0102 	ldrd	r0, r1, [sp, #8]
 80074a0:	f7f9 f8aa 	bl	80005f8 <__aeabi_dmul>
 80074a4:	4632      	mov	r2, r6
 80074a6:	463b      	mov	r3, r7
 80074a8:	f7f8 feee 	bl	8000288 <__aeabi_dsub>
 80074ac:	4606      	mov	r6, r0
 80074ae:	460f      	mov	r7, r1
 80074b0:	e764      	b.n	800737c <__ieee754_rem_pio2+0x194>
 80074b2:	4b1b      	ldr	r3, [pc, #108]	@ (8007520 <__ieee754_rem_pio2+0x338>)
 80074b4:	4598      	cmp	r8, r3
 80074b6:	d935      	bls.n	8007524 <__ieee754_rem_pio2+0x33c>
 80074b8:	4632      	mov	r2, r6
 80074ba:	463b      	mov	r3, r7
 80074bc:	4630      	mov	r0, r6
 80074be:	4639      	mov	r1, r7
 80074c0:	f7f8 fee2 	bl	8000288 <__aeabi_dsub>
 80074c4:	e9c4 0102 	strd	r0, r1, [r4, #8]
 80074c8:	e9c4 0100 	strd	r0, r1, [r4]
 80074cc:	e69e      	b.n	800720c <__ieee754_rem_pio2+0x24>
 80074ce:	bf00      	nop
 80074d0:	54400000 	.word	0x54400000
 80074d4:	3ff921fb 	.word	0x3ff921fb
 80074d8:	1a626331 	.word	0x1a626331
 80074dc:	3dd0b461 	.word	0x3dd0b461
 80074e0:	1a600000 	.word	0x1a600000
 80074e4:	3dd0b461 	.word	0x3dd0b461
 80074e8:	2e037073 	.word	0x2e037073
 80074ec:	3ba3198a 	.word	0x3ba3198a
 80074f0:	6dc9c883 	.word	0x6dc9c883
 80074f4:	3fe45f30 	.word	0x3fe45f30
 80074f8:	2e000000 	.word	0x2e000000
 80074fc:	3ba3198a 	.word	0x3ba3198a
 8007500:	252049c1 	.word	0x252049c1
 8007504:	397b839a 	.word	0x397b839a
 8007508:	3fe921fb 	.word	0x3fe921fb
 800750c:	4002d97b 	.word	0x4002d97b
 8007510:	3ff921fb 	.word	0x3ff921fb
 8007514:	413921fb 	.word	0x413921fb
 8007518:	3fe00000 	.word	0x3fe00000
 800751c:	0800cb80 	.word	0x0800cb80
 8007520:	7fefffff 	.word	0x7fefffff
 8007524:	ea4f 5528 	mov.w	r5, r8, asr #20
 8007528:	f2a5 4516 	subw	r5, r5, #1046	@ 0x416
 800752c:	eba8 5105 	sub.w	r1, r8, r5, lsl #20
 8007530:	4630      	mov	r0, r6
 8007532:	460f      	mov	r7, r1
 8007534:	f7f9 fb10 	bl	8000b58 <__aeabi_d2iz>
 8007538:	f7f8 fff4 	bl	8000524 <__aeabi_i2d>
 800753c:	4602      	mov	r2, r0
 800753e:	460b      	mov	r3, r1
 8007540:	4630      	mov	r0, r6
 8007542:	4639      	mov	r1, r7
 8007544:	e9cd 2306 	strd	r2, r3, [sp, #24]
 8007548:	f7f8 fe9e 	bl	8000288 <__aeabi_dsub>
 800754c:	4b22      	ldr	r3, [pc, #136]	@ (80075d8 <__ieee754_rem_pio2+0x3f0>)
 800754e:	2200      	movs	r2, #0
 8007550:	f7f9 f852 	bl	80005f8 <__aeabi_dmul>
 8007554:	460f      	mov	r7, r1
 8007556:	4606      	mov	r6, r0
 8007558:	f7f9 fafe 	bl	8000b58 <__aeabi_d2iz>
 800755c:	f7f8 ffe2 	bl	8000524 <__aeabi_i2d>
 8007560:	4602      	mov	r2, r0
 8007562:	460b      	mov	r3, r1
 8007564:	4630      	mov	r0, r6
 8007566:	4639      	mov	r1, r7
 8007568:	e9cd 2308 	strd	r2, r3, [sp, #32]
 800756c:	f7f8 fe8c 	bl	8000288 <__aeabi_dsub>
 8007570:	4b19      	ldr	r3, [pc, #100]	@ (80075d8 <__ieee754_rem_pio2+0x3f0>)
 8007572:	2200      	movs	r2, #0
 8007574:	f7f9 f840 	bl	80005f8 <__aeabi_dmul>
 8007578:	e9cd 010a 	strd	r0, r1, [sp, #40]	@ 0x28
 800757c:	f10d 0930 	add.w	r9, sp, #48	@ 0x30
 8007580:	f04f 0803 	mov.w	r8, #3
 8007584:	2600      	movs	r6, #0
 8007586:	2700      	movs	r7, #0
 8007588:	e979 0102 	ldrd	r0, r1, [r9, #-8]!
 800758c:	4632      	mov	r2, r6
 800758e:	463b      	mov	r3, r7
 8007590:	46c2      	mov	sl, r8
 8007592:	f108 38ff 	add.w	r8, r8, #4294967295
 8007596:	f7f9 fa97 	bl	8000ac8 <__aeabi_dcmpeq>
 800759a:	2800      	cmp	r0, #0
 800759c:	d1f4      	bne.n	8007588 <__ieee754_rem_pio2+0x3a0>
 800759e:	4b0f      	ldr	r3, [pc, #60]	@ (80075dc <__ieee754_rem_pio2+0x3f4>)
 80075a0:	9301      	str	r3, [sp, #4]
 80075a2:	2302      	movs	r3, #2
 80075a4:	9300      	str	r3, [sp, #0]
 80075a6:	462a      	mov	r2, r5
 80075a8:	4653      	mov	r3, sl
 80075aa:	4621      	mov	r1, r4
 80075ac:	a806      	add	r0, sp, #24
 80075ae:	f000 fa67 	bl	8007a80 <__kernel_rem_pio2>
 80075b2:	9b04      	ldr	r3, [sp, #16]
 80075b4:	2b00      	cmp	r3, #0
 80075b6:	4605      	mov	r5, r0
 80075b8:	f6bf ae53 	bge.w	8007262 <__ieee754_rem_pio2+0x7a>
 80075bc:	e9d4 2100 	ldrd	r2, r1, [r4]
 80075c0:	f101 4300 	add.w	r3, r1, #2147483648	@ 0x80000000
 80075c4:	e9c4 2300 	strd	r2, r3, [r4]
 80075c8:	e9d4 2102 	ldrd	r2, r1, [r4, #8]
 80075cc:	f101 4300 	add.w	r3, r1, #2147483648	@ 0x80000000
 80075d0:	e9c4 2302 	strd	r2, r3, [r4, #8]
 80075d4:	e740      	b.n	8007458 <__ieee754_rem_pio2+0x270>
 80075d6:	bf00      	nop
 80075d8:	41700000 	.word	0x41700000
 80075dc:	0800cc00 	.word	0x0800cc00

080075e0 <atan>:
 80075e0:	e92d 4ff8 	stmdb	sp!, {r3, r4, r5, r6, r7, r8, r9, sl, fp, lr}
 80075e4:	ec55 4b10 	vmov	r4, r5, d0
 80075e8:	4bbf      	ldr	r3, [pc, #764]	@ (80078e8 <atan+0x308>)
 80075ea:	f025 4600 	bic.w	r6, r5, #2147483648	@ 0x80000000
 80075ee:	429e      	cmp	r6, r3
 80075f0:	46ab      	mov	fp, r5
 80075f2:	d918      	bls.n	8007626 <atan+0x46>
 80075f4:	4bbd      	ldr	r3, [pc, #756]	@ (80078ec <atan+0x30c>)
 80075f6:	429e      	cmp	r6, r3
 80075f8:	d801      	bhi.n	80075fe <atan+0x1e>
 80075fa:	d109      	bne.n	8007610 <atan+0x30>
 80075fc:	b144      	cbz	r4, 8007610 <atan+0x30>
 80075fe:	4622      	mov	r2, r4
 8007600:	462b      	mov	r3, r5
 8007602:	4620      	mov	r0, r4
 8007604:	4629      	mov	r1, r5
 8007606:	f7f8 fe41 	bl	800028c <__adddf3>
 800760a:	4604      	mov	r4, r0
 800760c:	460d      	mov	r5, r1
 800760e:	e006      	b.n	800761e <atan+0x3e>
 8007610:	f1bb 0f00 	cmp.w	fp, #0
 8007614:	f340 812b 	ble.w	800786e <atan+0x28e>
 8007618:	a597      	add	r5, pc, #604	@ (adr r5, 8007878 <atan+0x298>)
 800761a:	e9d5 4500 	ldrd	r4, r5, [r5]
 800761e:	ec45 4b10 	vmov	d0, r4, r5
 8007622:	e8bd 8ff8 	ldmia.w	sp!, {r3, r4, r5, r6, r7, r8, r9, sl, fp, pc}
 8007626:	4bb2      	ldr	r3, [pc, #712]	@ (80078f0 <atan+0x310>)
 8007628:	429e      	cmp	r6, r3
 800762a:	d813      	bhi.n	8007654 <atan+0x74>
 800762c:	f1a3 73de 	sub.w	r3, r3, #29097984	@ 0x1bc0000
 8007630:	429e      	cmp	r6, r3
 8007632:	d80c      	bhi.n	800764e <atan+0x6e>
 8007634:	a392      	add	r3, pc, #584	@ (adr r3, 8007880 <atan+0x2a0>)
 8007636:	e9d3 2300 	ldrd	r2, r3, [r3]
 800763a:	4620      	mov	r0, r4
 800763c:	4629      	mov	r1, r5
 800763e:	f7f8 fe25 	bl	800028c <__adddf3>
 8007642:	4bac      	ldr	r3, [pc, #688]	@ (80078f4 <atan+0x314>)
 8007644:	2200      	movs	r2, #0
 8007646:	f7f9 fa67 	bl	8000b18 <__aeabi_dcmpgt>
 800764a:	2800      	cmp	r0, #0
 800764c:	d1e7      	bne.n	800761e <atan+0x3e>
 800764e:	f04f 3aff 	mov.w	sl, #4294967295
 8007652:	e029      	b.n	80076a8 <atan+0xc8>
 8007654:	f7fe fae4 	bl	8005c20 <fabs>
 8007658:	4ba7      	ldr	r3, [pc, #668]	@ (80078f8 <atan+0x318>)
 800765a:	429e      	cmp	r6, r3
 800765c:	ec55 4b10 	vmov	r4, r5, d0
 8007660:	f200 80bc 	bhi.w	80077dc <atan+0x1fc>
 8007664:	f5a3 2350 	sub.w	r3, r3, #851968	@ 0xd0000
 8007668:	429e      	cmp	r6, r3
 800766a:	f200 809e 	bhi.w	80077aa <atan+0x1ca>
 800766e:	4622      	mov	r2, r4
 8007670:	462b      	mov	r3, r5
 8007672:	4620      	mov	r0, r4
 8007674:	4629      	mov	r1, r5
 8007676:	f7f8 fe09 	bl	800028c <__adddf3>
 800767a:	4b9e      	ldr	r3, [pc, #632]	@ (80078f4 <atan+0x314>)
 800767c:	2200      	movs	r2, #0
 800767e:	f7f8 fe03 	bl	8000288 <__aeabi_dsub>
 8007682:	2200      	movs	r2, #0
 8007684:	4606      	mov	r6, r0
 8007686:	460f      	mov	r7, r1
 8007688:	f04f 4380 	mov.w	r3, #1073741824	@ 0x40000000
 800768c:	4620      	mov	r0, r4
 800768e:	4629      	mov	r1, r5
 8007690:	f7f8 fdfc 	bl	800028c <__adddf3>
 8007694:	4602      	mov	r2, r0
 8007696:	460b      	mov	r3, r1
 8007698:	4630      	mov	r0, r6
 800769a:	4639      	mov	r1, r7
 800769c:	f7f9 f8d6 	bl	800084c <__aeabi_ddiv>
 80076a0:	f04f 0a00 	mov.w	sl, #0
 80076a4:	4604      	mov	r4, r0
 80076a6:	460d      	mov	r5, r1
 80076a8:	4622      	mov	r2, r4
 80076aa:	462b      	mov	r3, r5
 80076ac:	4620      	mov	r0, r4
 80076ae:	4629      	mov	r1, r5
 80076b0:	f7f8 ffa2 	bl	80005f8 <__aeabi_dmul>
 80076b4:	4602      	mov	r2, r0
 80076b6:	460b      	mov	r3, r1
 80076b8:	4680      	mov	r8, r0
 80076ba:	4689      	mov	r9, r1
 80076bc:	f7f8 ff9c 	bl	80005f8 <__aeabi_dmul>
 80076c0:	a371      	add	r3, pc, #452	@ (adr r3, 8007888 <atan+0x2a8>)
 80076c2:	e9d3 2300 	ldrd	r2, r3, [r3]
 80076c6:	4606      	mov	r6, r0
 80076c8:	460f      	mov	r7, r1
 80076ca:	f7f8 ff95 	bl	80005f8 <__aeabi_dmul>
 80076ce:	a370      	add	r3, pc, #448	@ (adr r3, 8007890 <atan+0x2b0>)
 80076d0:	e9d3 2300 	ldrd	r2, r3, [r3]
 80076d4:	f7f8 fdda 	bl	800028c <__adddf3>
 80076d8:	4632      	mov	r2, r6
 80076da:	463b      	mov	r3, r7
 80076dc:	f7f8 ff8c 	bl	80005f8 <__aeabi_dmul>
 80076e0:	a36d      	add	r3, pc, #436	@ (adr r3, 8007898 <atan+0x2b8>)
 80076e2:	e9d3 2300 	ldrd	r2, r3, [r3]
 80076e6:	f7f8 fdd1 	bl	800028c <__adddf3>
 80076ea:	4632      	mov	r2, r6
 80076ec:	463b      	mov	r3, r7
 80076ee:	f7f8 ff83 	bl	80005f8 <__aeabi_dmul>
 80076f2:	a36b      	add	r3, pc, #428	@ (adr r3, 80078a0 <atan+0x2c0>)
 80076f4:	e9d3 2300 	ldrd	r2, r3, [r3]
 80076f8:	f7f8 fdc8 	bl	800028c <__adddf3>
 80076fc:	4632      	mov	r2, r6
 80076fe:	463b      	mov	r3, r7
 8007700:	f7f8 ff7a 	bl	80005f8 <__aeabi_dmul>
 8007704:	a368      	add	r3, pc, #416	@ (adr r3, 80078a8 <atan+0x2c8>)
 8007706:	e9d3 2300 	ldrd	r2, r3, [r3]
 800770a:	f7f8 fdbf 	bl	800028c <__adddf3>
 800770e:	4632      	mov	r2, r6
 8007710:	463b      	mov	r3, r7
 8007712:	f7f8 ff71 	bl	80005f8 <__aeabi_dmul>
 8007716:	a366      	add	r3, pc, #408	@ (adr r3, 80078b0 <atan+0x2d0>)
 8007718:	e9d3 2300 	ldrd	r2, r3, [r3]
 800771c:	f7f8 fdb6 	bl	800028c <__adddf3>
 8007720:	4642      	mov	r2, r8
 8007722:	464b      	mov	r3, r9
 8007724:	f7f8 ff68 	bl	80005f8 <__aeabi_dmul>
 8007728:	a363      	add	r3, pc, #396	@ (adr r3, 80078b8 <atan+0x2d8>)
 800772a:	e9d3 2300 	ldrd	r2, r3, [r3]
 800772e:	4680      	mov	r8, r0
 8007730:	4689      	mov	r9, r1
 8007732:	4630      	mov	r0, r6
 8007734:	4639      	mov	r1, r7
 8007736:	f7f8 ff5f 	bl	80005f8 <__aeabi_dmul>
 800773a:	a361      	add	r3, pc, #388	@ (adr r3, 80078c0 <atan+0x2e0>)
 800773c:	e9d3 2300 	ldrd	r2, r3, [r3]
 8007740:	f7f8 fda2 	bl	8000288 <__aeabi_dsub>
 8007744:	4632      	mov	r2, r6
 8007746:	463b      	mov	r3, r7
 8007748:	f7f8 ff56 	bl	80005f8 <__aeabi_dmul>
 800774c:	a35e      	add	r3, pc, #376	@ (adr r3, 80078c8 <atan+0x2e8>)
 800774e:	e9d3 2300 	ldrd	r2, r3, [r3]
 8007752:	f7f8 fd99 	bl	8000288 <__aeabi_dsub>
 8007756:	4632      	mov	r2, r6
 8007758:	463b      	mov	r3, r7
 800775a:	f7f8 ff4d 	bl	80005f8 <__aeabi_dmul>
 800775e:	a35c      	add	r3, pc, #368	@ (adr r3, 80078d0 <atan+0x2f0>)
 8007760:	e9d3 2300 	ldrd	r2, r3, [r3]
 8007764:	f7f8 fd90 	bl	8000288 <__aeabi_dsub>
 8007768:	4632      	mov	r2, r6
 800776a:	463b      	mov	r3, r7
 800776c:	f7f8 ff44 	bl	80005f8 <__aeabi_dmul>
 8007770:	a359      	add	r3, pc, #356	@ (adr r3, 80078d8 <atan+0x2f8>)
 8007772:	e9d3 2300 	ldrd	r2, r3, [r3]
 8007776:	f7f8 fd87 	bl	8000288 <__aeabi_dsub>
 800777a:	4632      	mov	r2, r6
 800777c:	463b      	mov	r3, r7
 800777e:	f7f8 ff3b 	bl	80005f8 <__aeabi_dmul>
 8007782:	4602      	mov	r2, r0
 8007784:	460b      	mov	r3, r1
 8007786:	4640      	mov	r0, r8
 8007788:	4649      	mov	r1, r9
 800778a:	f7f8 fd7f 	bl	800028c <__adddf3>
 800778e:	4622      	mov	r2, r4
 8007790:	462b      	mov	r3, r5
 8007792:	f7f8 ff31 	bl	80005f8 <__aeabi_dmul>
 8007796:	f1ba 3fff 	cmp.w	sl, #4294967295
 800779a:	4602      	mov	r2, r0
 800779c:	460b      	mov	r3, r1
 800779e:	d148      	bne.n	8007832 <atan+0x252>
 80077a0:	4620      	mov	r0, r4
 80077a2:	4629      	mov	r1, r5
 80077a4:	f7f8 fd70 	bl	8000288 <__aeabi_dsub>
 80077a8:	e72f      	b.n	800760a <atan+0x2a>
 80077aa:	4b52      	ldr	r3, [pc, #328]	@ (80078f4 <atan+0x314>)
 80077ac:	2200      	movs	r2, #0
 80077ae:	4620      	mov	r0, r4
 80077b0:	4629      	mov	r1, r5
 80077b2:	f7f8 fd69 	bl	8000288 <__aeabi_dsub>
 80077b6:	4b4f      	ldr	r3, [pc, #316]	@ (80078f4 <atan+0x314>)
 80077b8:	4606      	mov	r6, r0
 80077ba:	460f      	mov	r7, r1
 80077bc:	2200      	movs	r2, #0
 80077be:	4620      	mov	r0, r4
 80077c0:	4629      	mov	r1, r5
 80077c2:	f7f8 fd63 	bl	800028c <__adddf3>
 80077c6:	4602      	mov	r2, r0
 80077c8:	460b      	mov	r3, r1
 80077ca:	4630      	mov	r0, r6
 80077cc:	4639      	mov	r1, r7
 80077ce:	f7f9 f83d 	bl	800084c <__aeabi_ddiv>
 80077d2:	f04f 0a01 	mov.w	sl, #1
 80077d6:	4604      	mov	r4, r0
 80077d8:	460d      	mov	r5, r1
 80077da:	e765      	b.n	80076a8 <atan+0xc8>
 80077dc:	4b47      	ldr	r3, [pc, #284]	@ (80078fc <atan+0x31c>)
 80077de:	429e      	cmp	r6, r3
 80077e0:	d21c      	bcs.n	800781c <atan+0x23c>
 80077e2:	4b47      	ldr	r3, [pc, #284]	@ (8007900 <atan+0x320>)
 80077e4:	2200      	movs	r2, #0
 80077e6:	4620      	mov	r0, r4
 80077e8:	4629      	mov	r1, r5
 80077ea:	f7f8 fd4d 	bl	8000288 <__aeabi_dsub>
 80077ee:	4b44      	ldr	r3, [pc, #272]	@ (8007900 <atan+0x320>)
 80077f0:	4606      	mov	r6, r0
 80077f2:	460f      	mov	r7, r1
 80077f4:	2200      	movs	r2, #0
 80077f6:	4620      	mov	r0, r4
 80077f8:	4629      	mov	r1, r5
 80077fa:	f7f8 fefd 	bl	80005f8 <__aeabi_dmul>
 80077fe:	4b3d      	ldr	r3, [pc, #244]	@ (80078f4 <atan+0x314>)
 8007800:	2200      	movs	r2, #0
 8007802:	f7f8 fd43 	bl	800028c <__adddf3>
 8007806:	4602      	mov	r2, r0
 8007808:	460b      	mov	r3, r1
 800780a:	4630      	mov	r0, r6
 800780c:	4639      	mov	r1, r7
 800780e:	f7f9 f81d 	bl	800084c <__aeabi_ddiv>
 8007812:	f04f 0a02 	mov.w	sl, #2
 8007816:	4604      	mov	r4, r0
 8007818:	460d      	mov	r5, r1
 800781a:	e745      	b.n	80076a8 <atan+0xc8>
 800781c:	4622      	mov	r2, r4
 800781e:	462b      	mov	r3, r5
 8007820:	4938      	ldr	r1, [pc, #224]	@ (8007904 <atan+0x324>)
 8007822:	2000      	movs	r0, #0
 8007824:	f7f9 f812 	bl	800084c <__aeabi_ddiv>
 8007828:	f04f 0a03 	mov.w	sl, #3
 800782c:	4604      	mov	r4, r0
 800782e:	460d      	mov	r5, r1
 8007830:	e73a      	b.n	80076a8 <atan+0xc8>
 8007832:	4b35      	ldr	r3, [pc, #212]	@ (8007908 <atan+0x328>)
 8007834:	4e35      	ldr	r6, [pc, #212]	@ (800790c <atan+0x32c>)
 8007836:	eb03 03ca 	add.w	r3, r3, sl, lsl #3
 800783a:	e9d3 2300 	ldrd	r2, r3, [r3]
 800783e:	f7f8 fd23 	bl	8000288 <__aeabi_dsub>
 8007842:	4622      	mov	r2, r4
 8007844:	462b      	mov	r3, r5
 8007846:	f7f8 fd1f 	bl	8000288 <__aeabi_dsub>
 800784a:	eb06 06ca 	add.w	r6, r6, sl, lsl #3
 800784e:	4602      	mov	r2, r0
 8007850:	460b      	mov	r3, r1
 8007852:	e9d6 0100 	ldrd	r0, r1, [r6]
 8007856:	f7f8 fd17 	bl	8000288 <__aeabi_dsub>
 800785a:	f1bb 0f00 	cmp.w	fp, #0
 800785e:	4604      	mov	r4, r0
 8007860:	460d      	mov	r5, r1
 8007862:	f6bf aedc 	bge.w	800761e <atan+0x3e>
 8007866:	f101 4300 	add.w	r3, r1, #2147483648	@ 0x80000000
 800786a:	461d      	mov	r5, r3
 800786c:	e6d7      	b.n	800761e <atan+0x3e>
 800786e:	a51c      	add	r5, pc, #112	@ (adr r5, 80078e0 <atan+0x300>)
 8007870:	e9d5 4500 	ldrd	r4, r5, [r5]
 8007874:	e6d3      	b.n	800761e <atan+0x3e>
 8007876:	bf00      	nop
 8007878:	54442d18 	.word	0x54442d18
 800787c:	3ff921fb 	.word	0x3ff921fb
 8007880:	8800759c 	.word	0x8800759c
 8007884:	7e37e43c 	.word	0x7e37e43c
 8007888:	e322da11 	.word	0xe322da11
 800788c:	3f90ad3a 	.word	0x3f90ad3a
 8007890:	24760deb 	.word	0x24760deb
 8007894:	3fa97b4b 	.word	0x3fa97b4b
 8007898:	a0d03d51 	.word	0xa0d03d51
 800789c:	3fb10d66 	.word	0x3fb10d66
 80078a0:	c54c206e 	.word	0xc54c206e
 80078a4:	3fb745cd 	.word	0x3fb745cd
 80078a8:	920083ff 	.word	0x920083ff
 80078ac:	3fc24924 	.word	0x3fc24924
 80078b0:	5555550d 	.word	0x5555550d
 80078b4:	3fd55555 	.word	0x3fd55555
 80078b8:	2c6a6c2f 	.word	0x2c6a6c2f
 80078bc:	bfa2b444 	.word	0xbfa2b444
 80078c0:	52defd9a 	.word	0x52defd9a
 80078c4:	3fadde2d 	.word	0x3fadde2d
 80078c8:	af749a6d 	.word	0xaf749a6d
 80078cc:	3fb3b0f2 	.word	0x3fb3b0f2
 80078d0:	fe231671 	.word	0xfe231671
 80078d4:	3fbc71c6 	.word	0x3fbc71c6
 80078d8:	9998ebc4 	.word	0x9998ebc4
 80078dc:	3fc99999 	.word	0x3fc99999
 80078e0:	54442d18 	.word	0x54442d18
 80078e4:	bff921fb 	.word	0xbff921fb
 80078e8:	440fffff 	.word	0x440fffff
 80078ec:	7ff00000 	.word	0x7ff00000
 80078f0:	3fdbffff 	.word	0x3fdbffff
 80078f4:	3ff00000 	.word	0x3ff00000
 80078f8:	3ff2ffff 	.word	0x3ff2ffff
 80078fc:	40038000 	.word	0x40038000
 8007900:	3ff80000 	.word	0x3ff80000
 8007904:	bff00000 	.word	0xbff00000
 8007908:	0800cd08 	.word	0x0800cd08
 800790c:	0800cd28 	.word	0x0800cd28

08007910 <scalbn>:
 8007910:	b570      	push	{r4, r5, r6, lr}
 8007912:	ec55 4b10 	vmov	r4, r5, d0
 8007916:	f3c5 510a 	ubfx	r1, r5, #20, #11
 800791a:	4606      	mov	r6, r0
 800791c:	462b      	mov	r3, r5
 800791e:	b991      	cbnz	r1, 8007946 <scalbn+0x36>
 8007920:	f025 4300 	bic.w	r3, r5, #2147483648	@ 0x80000000
 8007924:	4323      	orrs	r3, r4
 8007926:	d03b      	beq.n	80079a0 <scalbn+0x90>
 8007928:	4b33      	ldr	r3, [pc, #204]	@ (80079f8 <scalbn+0xe8>)
 800792a:	4620      	mov	r0, r4
 800792c:	4629      	mov	r1, r5
 800792e:	2200      	movs	r2, #0
 8007930:	f7f8 fe62 	bl	80005f8 <__aeabi_dmul>
 8007934:	4b31      	ldr	r3, [pc, #196]	@ (80079fc <scalbn+0xec>)
 8007936:	429e      	cmp	r6, r3
 8007938:	4604      	mov	r4, r0
 800793a:	460d      	mov	r5, r1
 800793c:	da0f      	bge.n	800795e <scalbn+0x4e>
 800793e:	a326      	add	r3, pc, #152	@ (adr r3, 80079d8 <scalbn+0xc8>)
 8007940:	e9d3 2300 	ldrd	r2, r3, [r3]
 8007944:	e01e      	b.n	8007984 <scalbn+0x74>
 8007946:	f240 72ff 	movw	r2, #2047	@ 0x7ff
 800794a:	4291      	cmp	r1, r2
 800794c:	d10b      	bne.n	8007966 <scalbn+0x56>
 800794e:	4622      	mov	r2, r4
 8007950:	4620      	mov	r0, r4
 8007952:	4629      	mov	r1, r5
 8007954:	f7f8 fc9a 	bl	800028c <__adddf3>
 8007958:	4604      	mov	r4, r0
 800795a:	460d      	mov	r5, r1
 800795c:	e020      	b.n	80079a0 <scalbn+0x90>
 800795e:	460b      	mov	r3, r1
 8007960:	f3c1 510a 	ubfx	r1, r1, #20, #11
 8007964:	3936      	subs	r1, #54	@ 0x36
 8007966:	f24c 3250 	movw	r2, #50000	@ 0xc350
 800796a:	4296      	cmp	r6, r2
 800796c:	dd0d      	ble.n	800798a <scalbn+0x7a>
 800796e:	2d00      	cmp	r5, #0
 8007970:	a11b      	add	r1, pc, #108	@ (adr r1, 80079e0 <scalbn+0xd0>)
 8007972:	e9d1 0100 	ldrd	r0, r1, [r1]
 8007976:	da02      	bge.n	800797e <scalbn+0x6e>
 8007978:	a11b      	add	r1, pc, #108	@ (adr r1, 80079e8 <scalbn+0xd8>)
 800797a:	e9d1 0100 	ldrd	r0, r1, [r1]
 800797e:	a318      	add	r3, pc, #96	@ (adr r3, 80079e0 <scalbn+0xd0>)
 8007980:	e9d3 2300 	ldrd	r2, r3, [r3]
 8007984:	f7f8 fe38 	bl	80005f8 <__aeabi_dmul>
 8007988:	e7e6      	b.n	8007958 <scalbn+0x48>
 800798a:	1872      	adds	r2, r6, r1
 800798c:	f240 71fe 	movw	r1, #2046	@ 0x7fe
 8007990:	428a      	cmp	r2, r1
 8007992:	dcec      	bgt.n	800796e <scalbn+0x5e>
 8007994:	2a00      	cmp	r2, #0
 8007996:	dd06      	ble.n	80079a6 <scalbn+0x96>
 8007998:	f36f 531e 	bfc	r3, #20, #11
 800799c:	ea43 5502 	orr.w	r5, r3, r2, lsl #20
 80079a0:	ec45 4b10 	vmov	d0, r4, r5
 80079a4:	bd70      	pop	{r4, r5, r6, pc}
 80079a6:	f112 0f35 	cmn.w	r2, #53	@ 0x35
 80079aa:	da08      	bge.n	80079be <scalbn+0xae>
 80079ac:	2d00      	cmp	r5, #0
 80079ae:	a10a      	add	r1, pc, #40	@ (adr r1, 80079d8 <scalbn+0xc8>)
 80079b0:	e9d1 0100 	ldrd	r0, r1, [r1]
 80079b4:	dac3      	bge.n	800793e <scalbn+0x2e>
 80079b6:	a10e      	add	r1, pc, #56	@ (adr r1, 80079f0 <scalbn+0xe0>)
 80079b8:	e9d1 0100 	ldrd	r0, r1, [r1]
 80079bc:	e7bf      	b.n	800793e <scalbn+0x2e>
 80079be:	3236      	adds	r2, #54	@ 0x36
 80079c0:	f36f 531e 	bfc	r3, #20, #11
 80079c4:	ea43 5502 	orr.w	r5, r3, r2, lsl #20
 80079c8:	4620      	mov	r0, r4
 80079ca:	4b0d      	ldr	r3, [pc, #52]	@ (8007a00 <scalbn+0xf0>)
 80079cc:	4629      	mov	r1, r5
 80079ce:	2200      	movs	r2, #0
 80079d0:	e7d8      	b.n	8007984 <scalbn+0x74>
 80079d2:	bf00      	nop
 80079d4:	f3af 8000 	nop.w
 80079d8:	c2f8f359 	.word	0xc2f8f359
 80079dc:	01a56e1f 	.word	0x01a56e1f
 80079e0:	8800759c 	.word	0x8800759c
 80079e4:	7e37e43c 	.word	0x7e37e43c
 80079e8:	8800759c 	.word	0x8800759c
 80079ec:	fe37e43c 	.word	0xfe37e43c
 80079f0:	c2f8f359 	.word	0xc2f8f359
 80079f4:	81a56e1f 	.word	0x81a56e1f
 80079f8:	43500000 	.word	0x43500000
 80079fc:	ffff3cb0 	.word	0xffff3cb0
 8007a00:	3c900000 	.word	0x3c900000

08007a04 <with_errno>:
 8007a04:	b510      	push	{r4, lr}
 8007a06:	ed2d 8b02 	vpush	{d8}
 8007a0a:	eeb0 8a40 	vmov.f32	s16, s0
 8007a0e:	eef0 8a60 	vmov.f32	s17, s1
 8007a12:	4604      	mov	r4, r0
 8007a14:	f002 fb3a 	bl	800a08c <__errno>
 8007a18:	eeb0 0a48 	vmov.f32	s0, s16
 8007a1c:	eef0 0a68 	vmov.f32	s1, s17
 8007a20:	ecbd 8b02 	vpop	{d8}
 8007a24:	6004      	str	r4, [r0, #0]
 8007a26:	bd10      	pop	{r4, pc}

08007a28 <xflow>:
 8007a28:	4603      	mov	r3, r0
 8007a2a:	b507      	push	{r0, r1, r2, lr}
 8007a2c:	ec51 0b10 	vmov	r0, r1, d0
 8007a30:	b183      	cbz	r3, 8007a54 <xflow+0x2c>
 8007a32:	4602      	mov	r2, r0
 8007a34:	f101 4300 	add.w	r3, r1, #2147483648	@ 0x80000000
 8007a38:	e9cd 2300 	strd	r2, r3, [sp]
 8007a3c:	e9dd 2300 	ldrd	r2, r3, [sp]
 8007a40:	f7f8 fdda 	bl	80005f8 <__aeabi_dmul>
 8007a44:	ec41 0b10 	vmov	d0, r0, r1
 8007a48:	2022      	movs	r0, #34	@ 0x22
 8007a4a:	b003      	add	sp, #12
 8007a4c:	f85d eb04 	ldr.w	lr, [sp], #4
 8007a50:	f7ff bfd8 	b.w	8007a04 <with_errno>
 8007a54:	4602      	mov	r2, r0
 8007a56:	460b      	mov	r3, r1
 8007a58:	e7ee      	b.n	8007a38 <xflow+0x10>
 8007a5a:	0000      	movs	r0, r0
 8007a5c:	0000      	movs	r0, r0
	...

08007a60 <__math_uflow>:
 8007a60:	ed9f 0b01 	vldr	d0, [pc, #4]	@ 8007a68 <__math_uflow+0x8>
 8007a64:	f7ff bfe0 	b.w	8007a28 <xflow>
 8007a68:	00000000 	.word	0x00000000
 8007a6c:	10000000 	.word	0x10000000

08007a70 <__math_oflow>:
 8007a70:	ed9f 0b01 	vldr	d0, [pc, #4]	@ 8007a78 <__math_oflow+0x8>
 8007a74:	f7ff bfd8 	b.w	8007a28 <xflow>
 8007a78:	00000000 	.word	0x00000000
 8007a7c:	70000000 	.word	0x70000000

08007a80 <__kernel_rem_pio2>:
 8007a80:	e92d 4ff0 	stmdb	sp!, {r4, r5, r6, r7, r8, r9, sl, fp, lr}
 8007a84:	ed2d 8b02 	vpush	{d8}
 8007a88:	f5ad 7d19 	sub.w	sp, sp, #612	@ 0x264
 8007a8c:	f112 0f14 	cmn.w	r2, #20
 8007a90:	9306      	str	r3, [sp, #24]
 8007a92:	9104      	str	r1, [sp, #16]
 8007a94:	4bc2      	ldr	r3, [pc, #776]	@ (8007da0 <__kernel_rem_pio2+0x320>)
 8007a96:	99a4      	ldr	r1, [sp, #656]	@ 0x290
 8007a98:	9008      	str	r0, [sp, #32]
 8007a9a:	f853 3021 	ldr.w	r3, [r3, r1, lsl #2]
 8007a9e:	9300      	str	r3, [sp, #0]
 8007aa0:	9b06      	ldr	r3, [sp, #24]
 8007aa2:	f103 33ff 	add.w	r3, r3, #4294967295
 8007aa6:	bfa8      	it	ge
 8007aa8:	1ed4      	subge	r4, r2, #3
 8007aaa:	9305      	str	r3, [sp, #20]
 8007aac:	bfb2      	itee	lt
 8007aae:	2400      	movlt	r4, #0
 8007ab0:	2318      	movge	r3, #24
 8007ab2:	fb94 f4f3 	sdivge	r4, r4, r3
 8007ab6:	f06f 0317 	mvn.w	r3, #23
 8007aba:	fb04 3303 	mla	r3, r4, r3, r3
 8007abe:	eb03 0b02 	add.w	fp, r3, r2
 8007ac2:	9b00      	ldr	r3, [sp, #0]
 8007ac4:	9a05      	ldr	r2, [sp, #20]
 8007ac6:	ed9f 8bb2 	vldr	d8, [pc, #712]	@ 8007d90 <__kernel_rem_pio2+0x310>
 8007aca:	eb03 0802 	add.w	r8, r3, r2
 8007ace:	9ba5      	ldr	r3, [sp, #660]	@ 0x294
 8007ad0:	1aa7      	subs	r7, r4, r2
 8007ad2:	ae20      	add	r6, sp, #128	@ 0x80
 8007ad4:	eb03 0987 	add.w	r9, r3, r7, lsl #2
 8007ad8:	2500      	movs	r5, #0
 8007ada:	4545      	cmp	r5, r8
 8007adc:	dd12      	ble.n	8007b04 <__kernel_rem_pio2+0x84>
 8007ade:	9b06      	ldr	r3, [sp, #24]
 8007ae0:	aa20      	add	r2, sp, #128	@ 0x80
 8007ae2:	eb02 05c3 	add.w	r5, r2, r3, lsl #3
 8007ae6:	f50d 7ae0 	add.w	sl, sp, #448	@ 0x1c0
 8007aea:	2700      	movs	r7, #0
 8007aec:	9b00      	ldr	r3, [sp, #0]
 8007aee:	429f      	cmp	r7, r3
 8007af0:	dc2e      	bgt.n	8007b50 <__kernel_rem_pio2+0xd0>
 8007af2:	ed9f 7ba7 	vldr	d7, [pc, #668]	@ 8007d90 <__kernel_rem_pio2+0x310>
 8007af6:	f8dd 9020 	ldr.w	r9, [sp, #32]
 8007afa:	ed8d 7b02 	vstr	d7, [sp, #8]
 8007afe:	46a8      	mov	r8, r5
 8007b00:	2600      	movs	r6, #0
 8007b02:	e01b      	b.n	8007b3c <__kernel_rem_pio2+0xbc>
 8007b04:	42ef      	cmn	r7, r5
 8007b06:	d407      	bmi.n	8007b18 <__kernel_rem_pio2+0x98>
 8007b08:	f859 0025 	ldr.w	r0, [r9, r5, lsl #2]
 8007b0c:	f7f8 fd0a 	bl	8000524 <__aeabi_i2d>
 8007b10:	e8e6 0102 	strd	r0, r1, [r6], #8
 8007b14:	3501      	adds	r5, #1
 8007b16:	e7e0      	b.n	8007ada <__kernel_rem_pio2+0x5a>
 8007b18:	ec51 0b18 	vmov	r0, r1, d8
 8007b1c:	e7f8      	b.n	8007b10 <__kernel_rem_pio2+0x90>
 8007b1e:	e978 2302 	ldrd	r2, r3, [r8, #-8]!
 8007b22:	e8f9 0102 	ldrd	r0, r1, [r9], #8
 8007b26:	f7f8 fd67 	bl	80005f8 <__aeabi_dmul>
 8007b2a:	4602      	mov	r2, r0
 8007b2c:	460b      	mov	r3, r1
 8007b2e:	e9dd 0102 	ldrd	r0, r1, [sp, #8]
 8007b32:	f7f8 fbab 	bl	800028c <__adddf3>
 8007b36:	e9cd 0102 	strd	r0, r1, [sp, #8]
 8007b3a:	3601      	adds	r6, #1
 8007b3c:	9b05      	ldr	r3, [sp, #20]
 8007b3e:	429e      	cmp	r6, r3
 8007b40:	dded      	ble.n	8007b1e <__kernel_rem_pio2+0x9e>
 8007b42:	ed9d 7b02 	vldr	d7, [sp, #8]
 8007b46:	3701      	adds	r7, #1
 8007b48:	ecaa 7b02 	vstmia	sl!, {d7}
 8007b4c:	3508      	adds	r5, #8
 8007b4e:	e7cd      	b.n	8007aec <__kernel_rem_pio2+0x6c>
 8007b50:	9b00      	ldr	r3, [sp, #0]
 8007b52:	f8dd 8000 	ldr.w	r8, [sp]
 8007b56:	aa0c      	add	r2, sp, #48	@ 0x30
 8007b58:	eb02 0383 	add.w	r3, r2, r3, lsl #2
 8007b5c:	930a      	str	r3, [sp, #40]	@ 0x28
 8007b5e:	9ba5      	ldr	r3, [sp, #660]	@ 0x294
 8007b60:	eb03 0384 	add.w	r3, r3, r4, lsl #2
 8007b64:	9309      	str	r3, [sp, #36]	@ 0x24
 8007b66:	ea4f 03c8 	mov.w	r3, r8, lsl #3
 8007b6a:	930b      	str	r3, [sp, #44]	@ 0x2c
 8007b6c:	ab98      	add	r3, sp, #608	@ 0x260
 8007b6e:	eb03 03c8 	add.w	r3, r3, r8, lsl #3
 8007b72:	ed13 7b28 	vldr	d7, [r3, #-160]	@ 0xffffff60
 8007b76:	ed8d 7b02 	vstr	d7, [sp, #8]
 8007b7a:	ac0c      	add	r4, sp, #48	@ 0x30
 8007b7c:	ab70      	add	r3, sp, #448	@ 0x1c0
 8007b7e:	eb03 05c8 	add.w	r5, r3, r8, lsl #3
 8007b82:	46a1      	mov	r9, r4
 8007b84:	46c2      	mov	sl, r8
 8007b86:	f1ba 0f00 	cmp.w	sl, #0
 8007b8a:	dc77      	bgt.n	8007c7c <__kernel_rem_pio2+0x1fc>
 8007b8c:	4658      	mov	r0, fp
 8007b8e:	ed9d 0b02 	vldr	d0, [sp, #8]
 8007b92:	f7ff febd 	bl	8007910 <scalbn>
 8007b96:	ec57 6b10 	vmov	r6, r7, d0
 8007b9a:	2200      	movs	r2, #0
 8007b9c:	f04f 537f 	mov.w	r3, #1069547520	@ 0x3fc00000
 8007ba0:	4630      	mov	r0, r6
 8007ba2:	4639      	mov	r1, r7
 8007ba4:	f7f8 fd28 	bl	80005f8 <__aeabi_dmul>
 8007ba8:	ec41 0b10 	vmov	d0, r0, r1
 8007bac:	f000 fab8 	bl	8008120 <floor>
 8007bb0:	4b7c      	ldr	r3, [pc, #496]	@ (8007da4 <__kernel_rem_pio2+0x324>)
 8007bb2:	ec51 0b10 	vmov	r0, r1, d0
 8007bb6:	2200      	movs	r2, #0
 8007bb8:	f7f8 fd1e 	bl	80005f8 <__aeabi_dmul>
 8007bbc:	4602      	mov	r2, r0
 8007bbe:	460b      	mov	r3, r1
 8007bc0:	4630      	mov	r0, r6
 8007bc2:	4639      	mov	r1, r7
 8007bc4:	f7f8 fb60 	bl	8000288 <__aeabi_dsub>
 8007bc8:	460f      	mov	r7, r1
 8007bca:	4606      	mov	r6, r0
 8007bcc:	f7f8 ffc4 	bl	8000b58 <__aeabi_d2iz>
 8007bd0:	9002      	str	r0, [sp, #8]
 8007bd2:	f7f8 fca7 	bl	8000524 <__aeabi_i2d>
 8007bd6:	4602      	mov	r2, r0
 8007bd8:	460b      	mov	r3, r1
 8007bda:	4630      	mov	r0, r6
 8007bdc:	4639      	mov	r1, r7
 8007bde:	f7f8 fb53 	bl	8000288 <__aeabi_dsub>
 8007be2:	f1bb 0f00 	cmp.w	fp, #0
 8007be6:	4606      	mov	r6, r0
 8007be8:	460f      	mov	r7, r1
 8007bea:	dd6c      	ble.n	8007cc6 <__kernel_rem_pio2+0x246>
 8007bec:	f108 31ff 	add.w	r1, r8, #4294967295
 8007bf0:	ab0c      	add	r3, sp, #48	@ 0x30
 8007bf2:	9d02      	ldr	r5, [sp, #8]
 8007bf4:	f853 3021 	ldr.w	r3, [r3, r1, lsl #2]
 8007bf8:	f1cb 0018 	rsb	r0, fp, #24
 8007bfc:	fa43 f200 	asr.w	r2, r3, r0
 8007c00:	4415      	add	r5, r2
 8007c02:	4082      	lsls	r2, r0
 8007c04:	1a9b      	subs	r3, r3, r2
 8007c06:	aa0c      	add	r2, sp, #48	@ 0x30
 8007c08:	9502      	str	r5, [sp, #8]
 8007c0a:	f842 3021 	str.w	r3, [r2, r1, lsl #2]
 8007c0e:	f1cb 0217 	rsb	r2, fp, #23
 8007c12:	fa43 f902 	asr.w	r9, r3, r2
 8007c16:	f1b9 0f00 	cmp.w	r9, #0
 8007c1a:	dd64      	ble.n	8007ce6 <__kernel_rem_pio2+0x266>
 8007c1c:	9b02      	ldr	r3, [sp, #8]
 8007c1e:	2200      	movs	r2, #0
 8007c20:	3301      	adds	r3, #1
 8007c22:	9302      	str	r3, [sp, #8]
 8007c24:	4615      	mov	r5, r2
 8007c26:	f06f 417f 	mvn.w	r1, #4278190080	@ 0xff000000
 8007c2a:	4590      	cmp	r8, r2
 8007c2c:	f300 80a1 	bgt.w	8007d72 <__kernel_rem_pio2+0x2f2>
 8007c30:	f1bb 0f00 	cmp.w	fp, #0
 8007c34:	dd07      	ble.n	8007c46 <__kernel_rem_pio2+0x1c6>
 8007c36:	f1bb 0f01 	cmp.w	fp, #1
 8007c3a:	f000 80c1 	beq.w	8007dc0 <__kernel_rem_pio2+0x340>
 8007c3e:	f1bb 0f02 	cmp.w	fp, #2
 8007c42:	f000 80c8 	beq.w	8007dd6 <__kernel_rem_pio2+0x356>
 8007c46:	f1b9 0f02 	cmp.w	r9, #2
 8007c4a:	d14c      	bne.n	8007ce6 <__kernel_rem_pio2+0x266>
 8007c4c:	4632      	mov	r2, r6
 8007c4e:	463b      	mov	r3, r7
 8007c50:	4955      	ldr	r1, [pc, #340]	@ (8007da8 <__kernel_rem_pio2+0x328>)
 8007c52:	2000      	movs	r0, #0
 8007c54:	f7f8 fb18 	bl	8000288 <__aeabi_dsub>
 8007c58:	4606      	mov	r6, r0
 8007c5a:	460f      	mov	r7, r1
 8007c5c:	2d00      	cmp	r5, #0
 8007c5e:	d042      	beq.n	8007ce6 <__kernel_rem_pio2+0x266>
 8007c60:	4658      	mov	r0, fp
 8007c62:	ed9f 0b4d 	vldr	d0, [pc, #308]	@ 8007d98 <__kernel_rem_pio2+0x318>
 8007c66:	f7ff fe53 	bl	8007910 <scalbn>
 8007c6a:	4630      	mov	r0, r6
 8007c6c:	4639      	mov	r1, r7
 8007c6e:	ec53 2b10 	vmov	r2, r3, d0
 8007c72:	f7f8 fb09 	bl	8000288 <__aeabi_dsub>
 8007c76:	4606      	mov	r6, r0
 8007c78:	460f      	mov	r7, r1
 8007c7a:	e034      	b.n	8007ce6 <__kernel_rem_pio2+0x266>
 8007c7c:	4b4b      	ldr	r3, [pc, #300]	@ (8007dac <__kernel_rem_pio2+0x32c>)
 8007c7e:	2200      	movs	r2, #0
 8007c80:	e9dd 0102 	ldrd	r0, r1, [sp, #8]
 8007c84:	f7f8 fcb8 	bl	80005f8 <__aeabi_dmul>
 8007c88:	f7f8 ff66 	bl	8000b58 <__aeabi_d2iz>
 8007c8c:	f7f8 fc4a 	bl	8000524 <__aeabi_i2d>
 8007c90:	4b47      	ldr	r3, [pc, #284]	@ (8007db0 <__kernel_rem_pio2+0x330>)
 8007c92:	2200      	movs	r2, #0
 8007c94:	4606      	mov	r6, r0
 8007c96:	460f      	mov	r7, r1
 8007c98:	f7f8 fcae 	bl	80005f8 <__aeabi_dmul>
 8007c9c:	4602      	mov	r2, r0
 8007c9e:	460b      	mov	r3, r1
 8007ca0:	e9dd 0102 	ldrd	r0, r1, [sp, #8]
 8007ca4:	f7f8 faf0 	bl	8000288 <__aeabi_dsub>
 8007ca8:	f7f8 ff56 	bl	8000b58 <__aeabi_d2iz>
 8007cac:	e975 2302 	ldrd	r2, r3, [r5, #-8]!
 8007cb0:	f849 0b04 	str.w	r0, [r9], #4
 8007cb4:	4639      	mov	r1, r7
 8007cb6:	4630      	mov	r0, r6
 8007cb8:	f7f8 fae8 	bl	800028c <__adddf3>
 8007cbc:	f10a 3aff 	add.w	sl, sl, #4294967295
 8007cc0:	e9cd 0102 	strd	r0, r1, [sp, #8]
 8007cc4:	e75f      	b.n	8007b86 <__kernel_rem_pio2+0x106>
 8007cc6:	d107      	bne.n	8007cd8 <__kernel_rem_pio2+0x258>
 8007cc8:	f108 33ff 	add.w	r3, r8, #4294967295
 8007ccc:	aa0c      	add	r2, sp, #48	@ 0x30
 8007cce:	f852 3023 	ldr.w	r3, [r2, r3, lsl #2]
 8007cd2:	ea4f 59e3 	mov.w	r9, r3, asr #23
 8007cd6:	e79e      	b.n	8007c16 <__kernel_rem_pio2+0x196>
 8007cd8:	4b36      	ldr	r3, [pc, #216]	@ (8007db4 <__kernel_rem_pio2+0x334>)
 8007cda:	2200      	movs	r2, #0
 8007cdc:	f7f8 ff12 	bl	8000b04 <__aeabi_dcmpge>
 8007ce0:	2800      	cmp	r0, #0
 8007ce2:	d143      	bne.n	8007d6c <__kernel_rem_pio2+0x2ec>
 8007ce4:	4681      	mov	r9, r0
 8007ce6:	2200      	movs	r2, #0
 8007ce8:	2300      	movs	r3, #0
 8007cea:	4630      	mov	r0, r6
 8007cec:	4639      	mov	r1, r7
 8007cee:	f7f8 feeb 	bl	8000ac8 <__aeabi_dcmpeq>
 8007cf2:	2800      	cmp	r0, #0
 8007cf4:	f000 80c1 	beq.w	8007e7a <__kernel_rem_pio2+0x3fa>
 8007cf8:	f108 33ff 	add.w	r3, r8, #4294967295
 8007cfc:	2200      	movs	r2, #0
 8007cfe:	9900      	ldr	r1, [sp, #0]
 8007d00:	428b      	cmp	r3, r1
 8007d02:	da70      	bge.n	8007de6 <__kernel_rem_pio2+0x366>
 8007d04:	2a00      	cmp	r2, #0
 8007d06:	f000 808b 	beq.w	8007e20 <__kernel_rem_pio2+0x3a0>
 8007d0a:	f108 38ff 	add.w	r8, r8, #4294967295
 8007d0e:	ab0c      	add	r3, sp, #48	@ 0x30
 8007d10:	f1ab 0b18 	sub.w	fp, fp, #24
 8007d14:	f853 3028 	ldr.w	r3, [r3, r8, lsl #2]
 8007d18:	2b00      	cmp	r3, #0
 8007d1a:	d0f6      	beq.n	8007d0a <__kernel_rem_pio2+0x28a>
 8007d1c:	4658      	mov	r0, fp
 8007d1e:	ed9f 0b1e 	vldr	d0, [pc, #120]	@ 8007d98 <__kernel_rem_pio2+0x318>
 8007d22:	f7ff fdf5 	bl	8007910 <scalbn>
 8007d26:	f108 0301 	add.w	r3, r8, #1
 8007d2a:	00da      	lsls	r2, r3, #3
 8007d2c:	9205      	str	r2, [sp, #20]
 8007d2e:	ec55 4b10 	vmov	r4, r5, d0
 8007d32:	aa70      	add	r2, sp, #448	@ 0x1c0
 8007d34:	f8df b074 	ldr.w	fp, [pc, #116]	@ 8007dac <__kernel_rem_pio2+0x32c>
 8007d38:	eb02 07c3 	add.w	r7, r2, r3, lsl #3
 8007d3c:	4646      	mov	r6, r8
 8007d3e:	f04f 0a00 	mov.w	sl, #0
 8007d42:	2e00      	cmp	r6, #0
 8007d44:	f280 80d1 	bge.w	8007eea <__kernel_rem_pio2+0x46a>
 8007d48:	4644      	mov	r4, r8
 8007d4a:	2c00      	cmp	r4, #0
 8007d4c:	f2c0 80ff 	blt.w	8007f4e <__kernel_rem_pio2+0x4ce>
 8007d50:	4b19      	ldr	r3, [pc, #100]	@ (8007db8 <__kernel_rem_pio2+0x338>)
 8007d52:	461f      	mov	r7, r3
 8007d54:	ab70      	add	r3, sp, #448	@ 0x1c0
 8007d56:	eb03 03c4 	add.w	r3, r3, r4, lsl #3
 8007d5a:	9306      	str	r3, [sp, #24]
 8007d5c:	f04f 0a00 	mov.w	sl, #0
 8007d60:	f04f 0b00 	mov.w	fp, #0
 8007d64:	2600      	movs	r6, #0
 8007d66:	eba8 0504 	sub.w	r5, r8, r4
 8007d6a:	e0e4      	b.n	8007f36 <__kernel_rem_pio2+0x4b6>
 8007d6c:	f04f 0902 	mov.w	r9, #2
 8007d70:	e754      	b.n	8007c1c <__kernel_rem_pio2+0x19c>
 8007d72:	f854 3b04 	ldr.w	r3, [r4], #4
 8007d76:	bb0d      	cbnz	r5, 8007dbc <__kernel_rem_pio2+0x33c>
 8007d78:	b123      	cbz	r3, 8007d84 <__kernel_rem_pio2+0x304>
 8007d7a:	f1c3 7380 	rsb	r3, r3, #16777216	@ 0x1000000
 8007d7e:	f844 3c04 	str.w	r3, [r4, #-4]
 8007d82:	2301      	movs	r3, #1
 8007d84:	3201      	adds	r2, #1
 8007d86:	461d      	mov	r5, r3
 8007d88:	e74f      	b.n	8007c2a <__kernel_rem_pio2+0x1aa>
 8007d8a:	bf00      	nop
 8007d8c:	f3af 8000 	nop.w
	...
 8007d9c:	3ff00000 	.word	0x3ff00000
 8007da0:	0800cd88 	.word	0x0800cd88
 8007da4:	40200000 	.word	0x40200000
 8007da8:	3ff00000 	.word	0x3ff00000
 8007dac:	3e700000 	.word	0x3e700000
 8007db0:	41700000 	.word	0x41700000
 8007db4:	3fe00000 	.word	0x3fe00000
 8007db8:	0800cd48 	.word	0x0800cd48
 8007dbc:	1acb      	subs	r3, r1, r3
 8007dbe:	e7de      	b.n	8007d7e <__kernel_rem_pio2+0x2fe>
 8007dc0:	f108 32ff 	add.w	r2, r8, #4294967295
 8007dc4:	ab0c      	add	r3, sp, #48	@ 0x30
 8007dc6:	f853 3022 	ldr.w	r3, [r3, r2, lsl #2]
 8007dca:	f3c3 0316 	ubfx	r3, r3, #0, #23
 8007dce:	a90c      	add	r1, sp, #48	@ 0x30
 8007dd0:	f841 3022 	str.w	r3, [r1, r2, lsl #2]
 8007dd4:	e737      	b.n	8007c46 <__kernel_rem_pio2+0x1c6>
 8007dd6:	f108 32ff 	add.w	r2, r8, #4294967295
 8007dda:	ab0c      	add	r3, sp, #48	@ 0x30
 8007ddc:	f853 3022 	ldr.w	r3, [r3, r2, lsl #2]
 8007de0:	f3c3 0315 	ubfx	r3, r3, #0, #22
 8007de4:	e7f3      	b.n	8007dce <__kernel_rem_pio2+0x34e>
 8007de6:	a90c      	add	r1, sp, #48	@ 0x30
 8007de8:	f851 1023 	ldr.w	r1, [r1, r3, lsl #2]
 8007dec:	3b01      	subs	r3, #1
 8007dee:	430a      	orrs	r2, r1
 8007df0:	e785      	b.n	8007cfe <__kernel_rem_pio2+0x27e>
 8007df2:	3401      	adds	r4, #1
 8007df4:	f853 2d04 	ldr.w	r2, [r3, #-4]!
 8007df8:	2a00      	cmp	r2, #0
 8007dfa:	d0fa      	beq.n	8007df2 <__kernel_rem_pio2+0x372>
 8007dfc:	9b0b      	ldr	r3, [sp, #44]	@ 0x2c
 8007dfe:	f503 7318 	add.w	r3, r3, #608	@ 0x260
 8007e02:	eb0d 0503 	add.w	r5, sp, r3
 8007e06:	9b06      	ldr	r3, [sp, #24]
 8007e08:	aa20      	add	r2, sp, #128	@ 0x80
 8007e0a:	4443      	add	r3, r8
 8007e0c:	f108 0701 	add.w	r7, r8, #1
 8007e10:	3d98      	subs	r5, #152	@ 0x98
 8007e12:	eb02 06c3 	add.w	r6, r2, r3, lsl #3
 8007e16:	4444      	add	r4, r8
 8007e18:	42bc      	cmp	r4, r7
 8007e1a:	da04      	bge.n	8007e26 <__kernel_rem_pio2+0x3a6>
 8007e1c:	46a0      	mov	r8, r4
 8007e1e:	e6a2      	b.n	8007b66 <__kernel_rem_pio2+0xe6>
 8007e20:	9b0a      	ldr	r3, [sp, #40]	@ 0x28
 8007e22:	2401      	movs	r4, #1
 8007e24:	e7e6      	b.n	8007df4 <__kernel_rem_pio2+0x374>
 8007e26:	9b09      	ldr	r3, [sp, #36]	@ 0x24
 8007e28:	f853 0027 	ldr.w	r0, [r3, r7, lsl #2]
 8007e2c:	f7f8 fb7a 	bl	8000524 <__aeabi_i2d>
 8007e30:	ed9f 7baf 	vldr	d7, [pc, #700]	@ 80080f0 <__kernel_rem_pio2+0x670>
 8007e34:	e8e6 0102 	strd	r0, r1, [r6], #8
 8007e38:	ed8d 7b02 	vstr	d7, [sp, #8]
 8007e3c:	f8dd 9020 	ldr.w	r9, [sp, #32]
 8007e40:	46b2      	mov	sl, r6
 8007e42:	f04f 0800 	mov.w	r8, #0
 8007e46:	9b05      	ldr	r3, [sp, #20]
 8007e48:	4598      	cmp	r8, r3
 8007e4a:	dd05      	ble.n	8007e58 <__kernel_rem_pio2+0x3d8>
 8007e4c:	ed9d 7b02 	vldr	d7, [sp, #8]
 8007e50:	3701      	adds	r7, #1
 8007e52:	eca5 7b02 	vstmia	r5!, {d7}
 8007e56:	e7df      	b.n	8007e18 <__kernel_rem_pio2+0x398>
 8007e58:	e97a 2302 	ldrd	r2, r3, [sl, #-8]!
 8007e5c:	e8f9 0102 	ldrd	r0, r1, [r9], #8
 8007e60:	f7f8 fbca 	bl	80005f8 <__aeabi_dmul>
 8007e64:	4602      	mov	r2, r0
 8007e66:	460b      	mov	r3, r1
 8007e68:	e9dd 0102 	ldrd	r0, r1, [sp, #8]
 8007e6c:	f7f8 fa0e 	bl	800028c <__adddf3>
 8007e70:	f108 0801 	add.w	r8, r8, #1
 8007e74:	e9cd 0102 	strd	r0, r1, [sp, #8]
 8007e78:	e7e5      	b.n	8007e46 <__kernel_rem_pio2+0x3c6>
 8007e7a:	f1cb 0000 	rsb	r0, fp, #0
 8007e7e:	ec47 6b10 	vmov	d0, r6, r7
 8007e82:	f7ff fd45 	bl	8007910 <scalbn>
 8007e86:	ec55 4b10 	vmov	r4, r5, d0
 8007e8a:	4b9b      	ldr	r3, [pc, #620]	@ (80080f8 <__kernel_rem_pio2+0x678>)
 8007e8c:	2200      	movs	r2, #0
 8007e8e:	4620      	mov	r0, r4
 8007e90:	4629      	mov	r1, r5
 8007e92:	f7f8 fe37 	bl	8000b04 <__aeabi_dcmpge>
 8007e96:	b300      	cbz	r0, 8007eda <__kernel_rem_pio2+0x45a>
 8007e98:	4b98      	ldr	r3, [pc, #608]	@ (80080fc <__kernel_rem_pio2+0x67c>)
 8007e9a:	2200      	movs	r2, #0
 8007e9c:	4620      	mov	r0, r4
 8007e9e:	4629      	mov	r1, r5
 8007ea0:	f7f8 fbaa 	bl	80005f8 <__aeabi_dmul>
 8007ea4:	f7f8 fe58 	bl	8000b58 <__aeabi_d2iz>
 8007ea8:	4606      	mov	r6, r0
 8007eaa:	f7f8 fb3b 	bl	8000524 <__aeabi_i2d>
 8007eae:	4b92      	ldr	r3, [pc, #584]	@ (80080f8 <__kernel_rem_pio2+0x678>)
 8007eb0:	2200      	movs	r2, #0
 8007eb2:	f7f8 fba1 	bl	80005f8 <__aeabi_dmul>
 8007eb6:	460b      	mov	r3, r1
 8007eb8:	4602      	mov	r2, r0
 8007eba:	4629      	mov	r1, r5
 8007ebc:	4620      	mov	r0, r4
 8007ebe:	f7f8 f9e3 	bl	8000288 <__aeabi_dsub>
 8007ec2:	f7f8 fe49 	bl	8000b58 <__aeabi_d2iz>
 8007ec6:	ab0c      	add	r3, sp, #48	@ 0x30
 8007ec8:	f10b 0b18 	add.w	fp, fp, #24
 8007ecc:	f843 0028 	str.w	r0, [r3, r8, lsl #2]
 8007ed0:	f108 0801 	add.w	r8, r8, #1
 8007ed4:	f843 6028 	str.w	r6, [r3, r8, lsl #2]
 8007ed8:	e720      	b.n	8007d1c <__kernel_rem_pio2+0x29c>
 8007eda:	4620      	mov	r0, r4
 8007edc:	4629      	mov	r1, r5
 8007ede:	f7f8 fe3b 	bl	8000b58 <__aeabi_d2iz>
 8007ee2:	ab0c      	add	r3, sp, #48	@ 0x30
 8007ee4:	f843 0028 	str.w	r0, [r3, r8, lsl #2]
 8007ee8:	e718      	b.n	8007d1c <__kernel_rem_pio2+0x29c>
 8007eea:	ab0c      	add	r3, sp, #48	@ 0x30
 8007eec:	f853 0026 	ldr.w	r0, [r3, r6, lsl #2]
 8007ef0:	f7f8 fb18 	bl	8000524 <__aeabi_i2d>
 8007ef4:	4622      	mov	r2, r4
 8007ef6:	462b      	mov	r3, r5
 8007ef8:	f7f8 fb7e 	bl	80005f8 <__aeabi_dmul>
 8007efc:	4652      	mov	r2, sl
 8007efe:	e967 0102 	strd	r0, r1, [r7, #-8]!
 8007f02:	465b      	mov	r3, fp
 8007f04:	4620      	mov	r0, r4
 8007f06:	4629      	mov	r1, r5
 8007f08:	f7f8 fb76 	bl	80005f8 <__aeabi_dmul>
 8007f0c:	3e01      	subs	r6, #1
 8007f0e:	4604      	mov	r4, r0
 8007f10:	460d      	mov	r5, r1
 8007f12:	e716      	b.n	8007d42 <__kernel_rem_pio2+0x2c2>
 8007f14:	9906      	ldr	r1, [sp, #24]
 8007f16:	e8f1 2302 	ldrd	r2, r3, [r1], #8
 8007f1a:	9106      	str	r1, [sp, #24]
 8007f1c:	e8f7 0102 	ldrd	r0, r1, [r7], #8
 8007f20:	f7f8 fb6a 	bl	80005f8 <__aeabi_dmul>
 8007f24:	4602      	mov	r2, r0
 8007f26:	460b      	mov	r3, r1
 8007f28:	4650      	mov	r0, sl
 8007f2a:	4659      	mov	r1, fp
 8007f2c:	f7f8 f9ae 	bl	800028c <__adddf3>
 8007f30:	3601      	adds	r6, #1
 8007f32:	4682      	mov	sl, r0
 8007f34:	468b      	mov	fp, r1
 8007f36:	9b00      	ldr	r3, [sp, #0]
 8007f38:	429e      	cmp	r6, r3
 8007f3a:	dc01      	bgt.n	8007f40 <__kernel_rem_pio2+0x4c0>
 8007f3c:	42ae      	cmp	r6, r5
 8007f3e:	dde9      	ble.n	8007f14 <__kernel_rem_pio2+0x494>
 8007f40:	ab48      	add	r3, sp, #288	@ 0x120
 8007f42:	eb03 05c5 	add.w	r5, r3, r5, lsl #3
 8007f46:	e9c5 ab00 	strd	sl, fp, [r5]
 8007f4a:	3c01      	subs	r4, #1
 8007f4c:	e6fd      	b.n	8007d4a <__kernel_rem_pio2+0x2ca>
 8007f4e:	9ba4      	ldr	r3, [sp, #656]	@ 0x290
 8007f50:	2b02      	cmp	r3, #2
 8007f52:	dc0b      	bgt.n	8007f6c <__kernel_rem_pio2+0x4ec>
 8007f54:	2b00      	cmp	r3, #0
 8007f56:	dc35      	bgt.n	8007fc4 <__kernel_rem_pio2+0x544>
 8007f58:	d059      	beq.n	800800e <__kernel_rem_pio2+0x58e>
 8007f5a:	9b02      	ldr	r3, [sp, #8]
 8007f5c:	f003 0007 	and.w	r0, r3, #7
 8007f60:	f50d 7d19 	add.w	sp, sp, #612	@ 0x264
 8007f64:	ecbd 8b02 	vpop	{d8}
 8007f68:	e8bd 8ff0 	ldmia.w	sp!, {r4, r5, r6, r7, r8, r9, sl, fp, pc}
 8007f6c:	9ba4      	ldr	r3, [sp, #656]	@ 0x290
 8007f6e:	2b03      	cmp	r3, #3
 8007f70:	d1f3      	bne.n	8007f5a <__kernel_rem_pio2+0x4da>
 8007f72:	9b05      	ldr	r3, [sp, #20]
 8007f74:	f503 7318 	add.w	r3, r3, #608	@ 0x260
 8007f78:	eb0d 0403 	add.w	r4, sp, r3
 8007f7c:	f5a4 74a4 	sub.w	r4, r4, #328	@ 0x148
 8007f80:	4625      	mov	r5, r4
 8007f82:	46c2      	mov	sl, r8
 8007f84:	f1ba 0f00 	cmp.w	sl, #0
 8007f88:	dc69      	bgt.n	800805e <__kernel_rem_pio2+0x5de>
 8007f8a:	4645      	mov	r5, r8
 8007f8c:	2d01      	cmp	r5, #1
 8007f8e:	f300 8087 	bgt.w	80080a0 <__kernel_rem_pio2+0x620>
 8007f92:	9c05      	ldr	r4, [sp, #20]
 8007f94:	ab48      	add	r3, sp, #288	@ 0x120
 8007f96:	441c      	add	r4, r3
 8007f98:	2000      	movs	r0, #0
 8007f9a:	2100      	movs	r1, #0
 8007f9c:	f1b8 0f01 	cmp.w	r8, #1
 8007fa0:	f300 809c 	bgt.w	80080dc <__kernel_rem_pio2+0x65c>
 8007fa4:	e9dd 5648 	ldrd	r5, r6, [sp, #288]	@ 0x120
 8007fa8:	e9dd 784a 	ldrd	r7, r8, [sp, #296]	@ 0x128
 8007fac:	f1b9 0f00 	cmp.w	r9, #0
 8007fb0:	f040 80a6 	bne.w	8008100 <__kernel_rem_pio2+0x680>
 8007fb4:	9b04      	ldr	r3, [sp, #16]
 8007fb6:	e9c3 5600 	strd	r5, r6, [r3]
 8007fba:	e9c3 7802 	strd	r7, r8, [r3, #8]
 8007fbe:	e9c3 0104 	strd	r0, r1, [r3, #16]
 8007fc2:	e7ca      	b.n	8007f5a <__kernel_rem_pio2+0x4da>
 8007fc4:	9d05      	ldr	r5, [sp, #20]
 8007fc6:	ab48      	add	r3, sp, #288	@ 0x120
 8007fc8:	441d      	add	r5, r3
 8007fca:	4644      	mov	r4, r8
 8007fcc:	2000      	movs	r0, #0
 8007fce:	2100      	movs	r1, #0
 8007fd0:	2c00      	cmp	r4, #0
 8007fd2:	da35      	bge.n	8008040 <__kernel_rem_pio2+0x5c0>
 8007fd4:	f1b9 0f00 	cmp.w	r9, #0
 8007fd8:	d038      	beq.n	800804c <__kernel_rem_pio2+0x5cc>
 8007fda:	4602      	mov	r2, r0
 8007fdc:	f101 4300 	add.w	r3, r1, #2147483648	@ 0x80000000
 8007fe0:	9c04      	ldr	r4, [sp, #16]
 8007fe2:	e9c4 2300 	strd	r2, r3, [r4]
 8007fe6:	4602      	mov	r2, r0
 8007fe8:	460b      	mov	r3, r1
 8007fea:	e9dd 0148 	ldrd	r0, r1, [sp, #288]	@ 0x120
 8007fee:	f7f8 f94b 	bl	8000288 <__aeabi_dsub>
 8007ff2:	ad4a      	add	r5, sp, #296	@ 0x128
 8007ff4:	2401      	movs	r4, #1
 8007ff6:	45a0      	cmp	r8, r4
 8007ff8:	da2b      	bge.n	8008052 <__kernel_rem_pio2+0x5d2>
 8007ffa:	f1b9 0f00 	cmp.w	r9, #0
 8007ffe:	d002      	beq.n	8008006 <__kernel_rem_pio2+0x586>
 8008000:	f101 4300 	add.w	r3, r1, #2147483648	@ 0x80000000
 8008004:	4619      	mov	r1, r3
 8008006:	9b04      	ldr	r3, [sp, #16]
 8008008:	e9c3 0102 	strd	r0, r1, [r3, #8]
 800800c:	e7a5      	b.n	8007f5a <__kernel_rem_pio2+0x4da>
 800800e:	9c05      	ldr	r4, [sp, #20]
 8008010:	ab48      	add	r3, sp, #288	@ 0x120
 8008012:	441c      	add	r4, r3
 8008014:	2000      	movs	r0, #0
 8008016:	2100      	movs	r1, #0
 8008018:	f1b8 0f00 	cmp.w	r8, #0
 800801c:	da09      	bge.n	8008032 <__kernel_rem_pio2+0x5b2>
 800801e:	f1b9 0f00 	cmp.w	r9, #0
 8008022:	d002      	beq.n	800802a <__kernel_rem_pio2+0x5aa>
 8008024:	f101 4300 	add.w	r3, r1, #2147483648	@ 0x80000000
 8008028:	4619      	mov	r1, r3
 800802a:	9b04      	ldr	r3, [sp, #16]
 800802c:	e9c3 0100 	strd	r0, r1, [r3]
 8008030:	e793      	b.n	8007f5a <__kernel_rem_pio2+0x4da>
 8008032:	e974 2302 	ldrd	r2, r3, [r4, #-8]!
 8008036:	f7f8 f929 	bl	800028c <__adddf3>
 800803a:	f108 38ff 	add.w	r8, r8, #4294967295
 800803e:	e7eb      	b.n	8008018 <__kernel_rem_pio2+0x598>
 8008040:	e975 2302 	ldrd	r2, r3, [r5, #-8]!
 8008044:	f7f8 f922 	bl	800028c <__adddf3>
 8008048:	3c01      	subs	r4, #1
 800804a:	e7c1      	b.n	8007fd0 <__kernel_rem_pio2+0x550>
 800804c:	4602      	mov	r2, r0
 800804e:	460b      	mov	r3, r1
 8008050:	e7c6      	b.n	8007fe0 <__kernel_rem_pio2+0x560>
 8008052:	e8f5 2302 	ldrd	r2, r3, [r5], #8
 8008056:	f7f8 f919 	bl	800028c <__adddf3>
 800805a:	3401      	adds	r4, #1
 800805c:	e7cb      	b.n	8007ff6 <__kernel_rem_pio2+0x576>
 800805e:	ed35 7b02 	vldmdb	r5!, {d7}
 8008062:	ed8d 7b00 	vstr	d7, [sp]
 8008066:	ed95 7b02 	vldr	d7, [r5, #8]
 800806a:	e9dd 0100 	ldrd	r0, r1, [sp]
 800806e:	ec53 2b17 	vmov	r2, r3, d7
 8008072:	ed8d 7b06 	vstr	d7, [sp, #24]
 8008076:	f7f8 f909 	bl	800028c <__adddf3>
 800807a:	4602      	mov	r2, r0
 800807c:	460b      	mov	r3, r1
 800807e:	4606      	mov	r6, r0
 8008080:	460f      	mov	r7, r1
 8008082:	e9dd 0100 	ldrd	r0, r1, [sp]
 8008086:	f7f8 f8ff 	bl	8000288 <__aeabi_dsub>
 800808a:	e9dd 2306 	ldrd	r2, r3, [sp, #24]
 800808e:	f7f8 f8fd 	bl	800028c <__adddf3>
 8008092:	f10a 3aff 	add.w	sl, sl, #4294967295
 8008096:	e9c5 0102 	strd	r0, r1, [r5, #8]
 800809a:	e9c5 6700 	strd	r6, r7, [r5]
 800809e:	e771      	b.n	8007f84 <__kernel_rem_pio2+0x504>
 80080a0:	ed34 7b02 	vldmdb	r4!, {d7}
 80080a4:	e9d4 ab02 	ldrd	sl, fp, [r4, #8]
 80080a8:	ec51 0b17 	vmov	r0, r1, d7
 80080ac:	4652      	mov	r2, sl
 80080ae:	465b      	mov	r3, fp
 80080b0:	ed8d 7b00 	vstr	d7, [sp]
 80080b4:	f7f8 f8ea 	bl	800028c <__adddf3>
 80080b8:	4602      	mov	r2, r0
 80080ba:	460b      	mov	r3, r1
 80080bc:	4606      	mov	r6, r0
 80080be:	460f      	mov	r7, r1
 80080c0:	e9dd 0100 	ldrd	r0, r1, [sp]
 80080c4:	f7f8 f8e0 	bl	8000288 <__aeabi_dsub>
 80080c8:	4652      	mov	r2, sl
 80080ca:	465b      	mov	r3, fp
 80080cc:	f7f8 f8de 	bl	800028c <__adddf3>
 80080d0:	3d01      	subs	r5, #1
 80080d2:	e9c4 0102 	strd	r0, r1, [r4, #8]
 80080d6:	e9c4 6700 	strd	r6, r7, [r4]
 80080da:	e757      	b.n	8007f8c <__kernel_rem_pio2+0x50c>
 80080dc:	e974 2302 	ldrd	r2, r3, [r4, #-8]!
 80080e0:	f7f8 f8d4 	bl	800028c <__adddf3>
 80080e4:	f108 38ff 	add.w	r8, r8, #4294967295
 80080e8:	e758      	b.n	8007f9c <__kernel_rem_pio2+0x51c>
 80080ea:	bf00      	nop
 80080ec:	f3af 8000 	nop.w
	...
 80080f8:	41700000 	.word	0x41700000
 80080fc:	3e700000 	.word	0x3e700000
 8008100:	9b04      	ldr	r3, [sp, #16]
 8008102:	9a04      	ldr	r2, [sp, #16]
 8008104:	601d      	str	r5, [r3, #0]
 8008106:	f106 4400 	add.w	r4, r6, #2147483648	@ 0x80000000
 800810a:	605c      	str	r4, [r3, #4]
 800810c:	609f      	str	r7, [r3, #8]
 800810e:	f108 4300 	add.w	r3, r8, #2147483648	@ 0x80000000
 8008112:	60d3      	str	r3, [r2, #12]
 8008114:	f101 4300 	add.w	r3, r1, #2147483648	@ 0x80000000
 8008118:	6110      	str	r0, [r2, #16]
 800811a:	6153      	str	r3, [r2, #20]
 800811c:	e71d      	b.n	8007f5a <__kernel_rem_pio2+0x4da>
 800811e:	bf00      	nop

08008120 <floor>:
 8008120:	ec51 0b10 	vmov	r0, r1, d0
 8008124:	f3c1 530a 	ubfx	r3, r1, #20, #11
 8008128:	e92d 41f0 	stmdb	sp!, {r4, r5, r6, r7, r8, lr}
 800812c:	f2a3 36ff 	subw	r6, r3, #1023	@ 0x3ff
 8008130:	2e13      	cmp	r6, #19
 8008132:	460c      	mov	r4, r1
 8008134:	4605      	mov	r5, r0
 8008136:	4680      	mov	r8, r0
 8008138:	dc34      	bgt.n	80081a4 <floor+0x84>
 800813a:	2e00      	cmp	r6, #0
 800813c:	da17      	bge.n	800816e <floor+0x4e>
 800813e:	a332      	add	r3, pc, #200	@ (adr r3, 8008208 <floor+0xe8>)
 8008140:	e9d3 2300 	ldrd	r2, r3, [r3]
 8008144:	f7f8 f8a2 	bl	800028c <__adddf3>
 8008148:	2200      	movs	r2, #0
 800814a:	2300      	movs	r3, #0
 800814c:	f7f8 fce4 	bl	8000b18 <__aeabi_dcmpgt>
 8008150:	b150      	cbz	r0, 8008168 <floor+0x48>
 8008152:	2c00      	cmp	r4, #0
 8008154:	da55      	bge.n	8008202 <floor+0xe2>
 8008156:	f024 4400 	bic.w	r4, r4, #2147483648	@ 0x80000000
 800815a:	432c      	orrs	r4, r5
 800815c:	2500      	movs	r5, #0
 800815e:	42ac      	cmp	r4, r5
 8008160:	4c2b      	ldr	r4, [pc, #172]	@ (8008210 <floor+0xf0>)
 8008162:	bf08      	it	eq
 8008164:	f04f 4400 	moveq.w	r4, #2147483648	@ 0x80000000
 8008168:	4621      	mov	r1, r4
 800816a:	4628      	mov	r0, r5
 800816c:	e023      	b.n	80081b6 <floor+0x96>
 800816e:	4f29      	ldr	r7, [pc, #164]	@ (8008214 <floor+0xf4>)
 8008170:	4137      	asrs	r7, r6
 8008172:	ea01 0307 	and.w	r3, r1, r7
 8008176:	4303      	orrs	r3, r0
 8008178:	d01d      	beq.n	80081b6 <floor+0x96>
 800817a:	a323      	add	r3, pc, #140	@ (adr r3, 8008208 <floor+0xe8>)
 800817c:	e9d3 2300 	ldrd	r2, r3, [r3]
 8008180:	f7f8 f884 	bl	800028c <__adddf3>
 8008184:	2200      	movs	r2, #0
 8008186:	2300      	movs	r3, #0
 8008188:	f7f8 fcc6 	bl	8000b18 <__aeabi_dcmpgt>
 800818c:	2800      	cmp	r0, #0
 800818e:	d0eb      	beq.n	8008168 <floor+0x48>
 8008190:	2c00      	cmp	r4, #0
 8008192:	bfbe      	ittt	lt
 8008194:	f44f 1380 	movlt.w	r3, #1048576	@ 0x100000
 8008198:	4133      	asrlt	r3, r6
 800819a:	18e4      	addlt	r4, r4, r3
 800819c:	ea24 0407 	bic.w	r4, r4, r7
 80081a0:	2500      	movs	r5, #0
 80081a2:	e7e1      	b.n	8008168 <floor+0x48>
 80081a4:	2e33      	cmp	r6, #51	@ 0x33
 80081a6:	dd0a      	ble.n	80081be <floor+0x9e>
 80081a8:	f5b6 6f80 	cmp.w	r6, #1024	@ 0x400
 80081ac:	d103      	bne.n	80081b6 <floor+0x96>
 80081ae:	4602      	mov	r2, r0
 80081b0:	460b      	mov	r3, r1
 80081b2:	f7f8 f86b 	bl	800028c <__adddf3>
 80081b6:	ec41 0b10 	vmov	d0, r0, r1
 80081ba:	e8bd 81f0 	ldmia.w	sp!, {r4, r5, r6, r7, r8, pc}
 80081be:	f2a3 4313 	subw	r3, r3, #1043	@ 0x413
 80081c2:	f04f 37ff 	mov.w	r7, #4294967295
 80081c6:	40df      	lsrs	r7, r3
 80081c8:	4207      	tst	r7, r0
 80081ca:	d0f4      	beq.n	80081b6 <floor+0x96>
 80081cc:	a30e      	add	r3, pc, #56	@ (adr r3, 8008208 <floor+0xe8>)
 80081ce:	e9d3 2300 	ldrd	r2, r3, [r3]
 80081d2:	f7f8 f85b 	bl	800028c <__adddf3>
 80081d6:	2200      	movs	r2, #0
 80081d8:	2300      	movs	r3, #0
 80081da:	f7f8 fc9d 	bl	8000b18 <__aeabi_dcmpgt>
 80081de:	2800      	cmp	r0, #0
 80081e0:	d0c2      	beq.n	8008168 <floor+0x48>
 80081e2:	2c00      	cmp	r4, #0
 80081e4:	da0a      	bge.n	80081fc <floor+0xdc>
 80081e6:	2e14      	cmp	r6, #20
 80081e8:	d101      	bne.n	80081ee <floor+0xce>
 80081ea:	3401      	adds	r4, #1
 80081ec:	e006      	b.n	80081fc <floor+0xdc>
 80081ee:	f1c6 0634 	rsb	r6, r6, #52	@ 0x34
 80081f2:	2301      	movs	r3, #1
 80081f4:	40b3      	lsls	r3, r6
 80081f6:	441d      	add	r5, r3
 80081f8:	4545      	cmp	r5, r8
 80081fa:	d3f6      	bcc.n	80081ea <floor+0xca>
 80081fc:	ea25 0507 	bic.w	r5, r5, r7
 8008200:	e7b2      	b.n	8008168 <floor+0x48>
 8008202:	2500      	movs	r5, #0
 8008204:	462c      	mov	r4, r5
 8008206:	e7af      	b.n	8008168 <floor+0x48>
 8008208:	8800759c 	.word	0x8800759c
 800820c:	7e37e43c 	.word	0x7e37e43c
 8008210:	bff00000 	.word	0xbff00000
 8008214:	000fffff 	.word	0x000fffff

08008218 <malloc>:
 8008218:	4b02      	ldr	r3, [pc, #8]	@ (8008224 <malloc+0xc>)
 800821a:	4601      	mov	r1, r0
 800821c:	6818      	ldr	r0, [r3, #0]
 800821e:	f000 b825 	b.w	800826c <_malloc_r>
 8008222:	bf00      	nop
 8008224:	2000022c 	.word	0x2000022c

08008228 <sbrk_aligned>:
 8008228:	b570      	push	{r4, r5, r6, lr}
 800822a:	4e0f      	ldr	r6, [pc, #60]	@ (8008268 <sbrk_aligned+0x40>)
 800822c:	460c      	mov	r4, r1
 800822e:	6831      	ldr	r1, [r6, #0]
 8008230:	4605      	mov	r5, r0
 8008232:	b911      	cbnz	r1, 800823a <sbrk_aligned+0x12>
 8008234:	f001 ff08 	bl	800a048 <_sbrk_r>
 8008238:	6030      	str	r0, [r6, #0]
 800823a:	4621      	mov	r1, r4
 800823c:	4628      	mov	r0, r5
 800823e:	f001 ff03 	bl	800a048 <_sbrk_r>
 8008242:	1c43      	adds	r3, r0, #1
 8008244:	d103      	bne.n	800824e <sbrk_aligned+0x26>
 8008246:	f04f 34ff 	mov.w	r4, #4294967295
 800824a:	4620      	mov	r0, r4
 800824c:	bd70      	pop	{r4, r5, r6, pc}
 800824e:	1cc4      	adds	r4, r0, #3
 8008250:	f024 0403 	bic.w	r4, r4, #3
 8008254:	42a0      	cmp	r0, r4
 8008256:	d0f8      	beq.n	800824a <sbrk_aligned+0x22>
 8008258:	1a21      	subs	r1, r4, r0
 800825a:	4628      	mov	r0, r5
 800825c:	f001 fef4 	bl	800a048 <_sbrk_r>
 8008260:	3001      	adds	r0, #1
 8008262:	d1f2      	bne.n	800824a <sbrk_aligned+0x22>
 8008264:	e7ef      	b.n	8008246 <sbrk_aligned+0x1e>
 8008266:	bf00      	nop
 8008268:	20001648 	.word	0x20001648

0800826c <_malloc_r>:
 800826c:	e92d 43f8 	stmdb	sp!, {r3, r4, r5, r6, r7, r8, r9, lr}
 8008270:	1ccd      	adds	r5, r1, #3
 8008272:	f025 0503 	bic.w	r5, r5, #3
 8008276:	3508      	adds	r5, #8
 8008278:	2d0c      	cmp	r5, #12
 800827a:	bf38      	it	cc
 800827c:	250c      	movcc	r5, #12
 800827e:	2d00      	cmp	r5, #0
 8008280:	4606      	mov	r6, r0
 8008282:	db01      	blt.n	8008288 <_malloc_r+0x1c>
 8008284:	42a9      	cmp	r1, r5
 8008286:	d904      	bls.n	8008292 <_malloc_r+0x26>
 8008288:	230c      	movs	r3, #12
 800828a:	6033      	str	r3, [r6, #0]
 800828c:	2000      	movs	r0, #0
 800828e:	e8bd 83f8 	ldmia.w	sp!, {r3, r4, r5, r6, r7, r8, r9, pc}
 8008292:	f8df 80d4 	ldr.w	r8, [pc, #212]	@ 8008368 <_malloc_r+0xfc>
 8008296:	f000 f869 	bl	800836c <__malloc_lock>
 800829a:	f8d8 3000 	ldr.w	r3, [r8]
 800829e:	461c      	mov	r4, r3
 80082a0:	bb44      	cbnz	r4, 80082f4 <_malloc_r+0x88>
 80082a2:	4629      	mov	r1, r5
 80082a4:	4630      	mov	r0, r6
 80082a6:	f7ff ffbf 	bl	8008228 <sbrk_aligned>
 80082aa:	1c43      	adds	r3, r0, #1
 80082ac:	4604      	mov	r4, r0
 80082ae:	d158      	bne.n	8008362 <_malloc_r+0xf6>
 80082b0:	f8d8 4000 	ldr.w	r4, [r8]
 80082b4:	4627      	mov	r7, r4
 80082b6:	2f00      	cmp	r7, #0
 80082b8:	d143      	bne.n	8008342 <_malloc_r+0xd6>
 80082ba:	2c00      	cmp	r4, #0
 80082bc:	d04b      	beq.n	8008356 <_malloc_r+0xea>
 80082be:	6823      	ldr	r3, [r4, #0]
 80082c0:	4639      	mov	r1, r7
 80082c2:	4630      	mov	r0, r6
 80082c4:	eb04 0903 	add.w	r9, r4, r3
 80082c8:	f001 febe 	bl	800a048 <_sbrk_r>
 80082cc:	4581      	cmp	r9, r0
 80082ce:	d142      	bne.n	8008356 <_malloc_r+0xea>
 80082d0:	6821      	ldr	r1, [r4, #0]
 80082d2:	1a6d      	subs	r5, r5, r1
 80082d4:	4629      	mov	r1, r5
 80082d6:	4630      	mov	r0, r6
 80082d8:	f7ff ffa6 	bl	8008228 <sbrk_aligned>
 80082dc:	3001      	adds	r0, #1
 80082de:	d03a      	beq.n	8008356 <_malloc_r+0xea>
 80082e0:	6823      	ldr	r3, [r4, #0]
 80082e2:	442b      	add	r3, r5
 80082e4:	6023      	str	r3, [r4, #0]
 80082e6:	f8d8 3000 	ldr.w	r3, [r8]
 80082ea:	685a      	ldr	r2, [r3, #4]
 80082ec:	bb62      	cbnz	r2, 8008348 <_malloc_r+0xdc>
 80082ee:	f8c8 7000 	str.w	r7, [r8]
 80082f2:	e00f      	b.n	8008314 <_malloc_r+0xa8>
 80082f4:	6822      	ldr	r2, [r4, #0]
 80082f6:	1b52      	subs	r2, r2, r5
 80082f8:	d420      	bmi.n	800833c <_malloc_r+0xd0>
 80082fa:	2a0b      	cmp	r2, #11
 80082fc:	d917      	bls.n	800832e <_malloc_r+0xc2>
 80082fe:	1961      	adds	r1, r4, r5
 8008300:	42a3      	cmp	r3, r4
 8008302:	6025      	str	r5, [r4, #0]
 8008304:	bf18      	it	ne
 8008306:	6059      	strne	r1, [r3, #4]
 8008308:	6863      	ldr	r3, [r4, #4]
 800830a:	bf08      	it	eq
 800830c:	f8c8 1000 	streq.w	r1, [r8]
 8008310:	5162      	str	r2, [r4, r5]
 8008312:	604b      	str	r3, [r1, #4]
 8008314:	4630      	mov	r0, r6
 8008316:	f000 f82f 	bl	8008378 <__malloc_unlock>
 800831a:	f104 000b 	add.w	r0, r4, #11
 800831e:	1d23      	adds	r3, r4, #4
 8008320:	f020 0007 	bic.w	r0, r0, #7
 8008324:	1ac2      	subs	r2, r0, r3
 8008326:	bf1c      	itt	ne
 8008328:	1a1b      	subne	r3, r3, r0
 800832a:	50a3      	strne	r3, [r4, r2]
 800832c:	e7af      	b.n	800828e <_malloc_r+0x22>
 800832e:	6862      	ldr	r2, [r4, #4]
 8008330:	42a3      	cmp	r3, r4
 8008332:	bf0c      	ite	eq
 8008334:	f8c8 2000 	streq.w	r2, [r8]
 8008338:	605a      	strne	r2, [r3, #4]
 800833a:	e7eb      	b.n	8008314 <_malloc_r+0xa8>
 800833c:	4623      	mov	r3, r4
 800833e:	6864      	ldr	r4, [r4, #4]
 8008340:	e7ae      	b.n	80082a0 <_malloc_r+0x34>
 8008342:	463c      	mov	r4, r7
 8008344:	687f      	ldr	r7, [r7, #4]
 8008346:	e7b6      	b.n	80082b6 <_malloc_r+0x4a>
 8008348:	461a      	mov	r2, r3
 800834a:	685b      	ldr	r3, [r3, #4]
 800834c:	42a3      	cmp	r3, r4
 800834e:	d1fb      	bne.n	8008348 <_malloc_r+0xdc>
 8008350:	2300      	movs	r3, #0
 8008352:	6053      	str	r3, [r2, #4]
 8008354:	e7de      	b.n	8008314 <_malloc_r+0xa8>
 8008356:	230c      	movs	r3, #12
 8008358:	6033      	str	r3, [r6, #0]
 800835a:	4630      	mov	r0, r6
 800835c:	f000 f80c 	bl	8008378 <__malloc_unlock>
 8008360:	e794      	b.n	800828c <_malloc_r+0x20>
 8008362:	6005      	str	r5, [r0, #0]
 8008364:	e7d6      	b.n	8008314 <_malloc_r+0xa8>
 8008366:	bf00      	nop
 8008368:	2000164c 	.word	0x2000164c

0800836c <__malloc_lock>:
 800836c:	4801      	ldr	r0, [pc, #4]	@ (8008374 <__malloc_lock+0x8>)
 800836e:	f001 beb8 	b.w	800a0e2 <__retarget_lock_acquire_recursive>
 8008372:	bf00      	nop
 8008374:	20001790 	.word	0x20001790

08008378 <__malloc_unlock>:
 8008378:	4801      	ldr	r0, [pc, #4]	@ (8008380 <__malloc_unlock+0x8>)
 800837a:	f001 beb3 	b.w	800a0e4 <__retarget_lock_release_recursive>
 800837e:	bf00      	nop
 8008380:	20001790 	.word	0x20001790

08008384 <sulp>:
 8008384:	b570      	push	{r4, r5, r6, lr}
 8008386:	4604      	mov	r4, r0
 8008388:	460d      	mov	r5, r1
 800838a:	ec45 4b10 	vmov	d0, r4, r5
 800838e:	4616      	mov	r6, r2
 8008390:	f003 fc38 	bl	800bc04 <__ulp>
 8008394:	ec51 0b10 	vmov	r0, r1, d0
 8008398:	b17e      	cbz	r6, 80083ba <sulp+0x36>
 800839a:	f3c5 530a 	ubfx	r3, r5, #20, #11
 800839e:	f1c3 036b 	rsb	r3, r3, #107	@ 0x6b
 80083a2:	2b00      	cmp	r3, #0
 80083a4:	dd09      	ble.n	80083ba <sulp+0x36>
 80083a6:	051b      	lsls	r3, r3, #20
 80083a8:	f103 557f 	add.w	r5, r3, #1069547520	@ 0x3fc00000
 80083ac:	2400      	movs	r4, #0
 80083ae:	f505 1540 	add.w	r5, r5, #3145728	@ 0x300000
 80083b2:	4622      	mov	r2, r4
 80083b4:	462b      	mov	r3, r5
 80083b6:	f7f8 f91f 	bl	80005f8 <__aeabi_dmul>
 80083ba:	ec41 0b10 	vmov	d0, r0, r1
 80083be:	bd70      	pop	{r4, r5, r6, pc}

080083c0 <_strtod_l>:
 80083c0:	e92d 4ff0 	stmdb	sp!, {r4, r5, r6, r7, r8, r9, sl, fp, lr}
 80083c4:	b09f      	sub	sp, #124	@ 0x7c
 80083c6:	460c      	mov	r4, r1
 80083c8:	9217      	str	r2, [sp, #92]	@ 0x5c
 80083ca:	2200      	movs	r2, #0
 80083cc:	921a      	str	r2, [sp, #104]	@ 0x68
 80083ce:	9005      	str	r0, [sp, #20]
 80083d0:	f04f 0a00 	mov.w	sl, #0
 80083d4:	f04f 0b00 	mov.w	fp, #0
 80083d8:	460a      	mov	r2, r1
 80083da:	9219      	str	r2, [sp, #100]	@ 0x64
 80083dc:	7811      	ldrb	r1, [r2, #0]
 80083de:	292b      	cmp	r1, #43	@ 0x2b
 80083e0:	d04a      	beq.n	8008478 <_strtod_l+0xb8>
 80083e2:	d838      	bhi.n	8008456 <_strtod_l+0x96>
 80083e4:	290d      	cmp	r1, #13
 80083e6:	d832      	bhi.n	800844e <_strtod_l+0x8e>
 80083e8:	2908      	cmp	r1, #8
 80083ea:	d832      	bhi.n	8008452 <_strtod_l+0x92>
 80083ec:	2900      	cmp	r1, #0
 80083ee:	d03b      	beq.n	8008468 <_strtod_l+0xa8>
 80083f0:	2200      	movs	r2, #0
 80083f2:	920e      	str	r2, [sp, #56]	@ 0x38
 80083f4:	9d19      	ldr	r5, [sp, #100]	@ 0x64
 80083f6:	782a      	ldrb	r2, [r5, #0]
 80083f8:	2a30      	cmp	r2, #48	@ 0x30
 80083fa:	f040 80b2 	bne.w	8008562 <_strtod_l+0x1a2>
 80083fe:	786a      	ldrb	r2, [r5, #1]
 8008400:	f002 02df 	and.w	r2, r2, #223	@ 0xdf
 8008404:	2a58      	cmp	r2, #88	@ 0x58
 8008406:	d16e      	bne.n	80084e6 <_strtod_l+0x126>
 8008408:	9302      	str	r3, [sp, #8]
 800840a:	9b0e      	ldr	r3, [sp, #56]	@ 0x38
 800840c:	9301      	str	r3, [sp, #4]
 800840e:	ab1a      	add	r3, sp, #104	@ 0x68
 8008410:	9300      	str	r3, [sp, #0]
 8008412:	4a8f      	ldr	r2, [pc, #572]	@ (8008650 <_strtod_l+0x290>)
 8008414:	9805      	ldr	r0, [sp, #20]
 8008416:	ab1b      	add	r3, sp, #108	@ 0x6c
 8008418:	a919      	add	r1, sp, #100	@ 0x64
 800841a:	f002 fda3 	bl	800af64 <__gethex>
 800841e:	f010 060f 	ands.w	r6, r0, #15
 8008422:	4604      	mov	r4, r0
 8008424:	d005      	beq.n	8008432 <_strtod_l+0x72>
 8008426:	2e06      	cmp	r6, #6
 8008428:	d128      	bne.n	800847c <_strtod_l+0xbc>
 800842a:	3501      	adds	r5, #1
 800842c:	2300      	movs	r3, #0
 800842e:	9519      	str	r5, [sp, #100]	@ 0x64
 8008430:	930e      	str	r3, [sp, #56]	@ 0x38
 8008432:	9b17      	ldr	r3, [sp, #92]	@ 0x5c
 8008434:	2b00      	cmp	r3, #0
 8008436:	f040 858e 	bne.w	8008f56 <_strtod_l+0xb96>
 800843a:	9b0e      	ldr	r3, [sp, #56]	@ 0x38
 800843c:	b1cb      	cbz	r3, 8008472 <_strtod_l+0xb2>
 800843e:	4652      	mov	r2, sl
 8008440:	f10b 4300 	add.w	r3, fp, #2147483648	@ 0x80000000
 8008444:	ec43 2b10 	vmov	d0, r2, r3
 8008448:	b01f      	add	sp, #124	@ 0x7c
 800844a:	e8bd 8ff0 	ldmia.w	sp!, {r4, r5, r6, r7, r8, r9, sl, fp, pc}
 800844e:	2920      	cmp	r1, #32
 8008450:	d1ce      	bne.n	80083f0 <_strtod_l+0x30>
 8008452:	3201      	adds	r2, #1
 8008454:	e7c1      	b.n	80083da <_strtod_l+0x1a>
 8008456:	292d      	cmp	r1, #45	@ 0x2d
 8008458:	d1ca      	bne.n	80083f0 <_strtod_l+0x30>
 800845a:	2101      	movs	r1, #1
 800845c:	910e      	str	r1, [sp, #56]	@ 0x38
 800845e:	1c51      	adds	r1, r2, #1
 8008460:	9119      	str	r1, [sp, #100]	@ 0x64
 8008462:	7852      	ldrb	r2, [r2, #1]
 8008464:	2a00      	cmp	r2, #0
 8008466:	d1c5      	bne.n	80083f4 <_strtod_l+0x34>
 8008468:	9b17      	ldr	r3, [sp, #92]	@ 0x5c
 800846a:	9419      	str	r4, [sp, #100]	@ 0x64
 800846c:	2b00      	cmp	r3, #0
 800846e:	f040 8570 	bne.w	8008f52 <_strtod_l+0xb92>
 8008472:	4652      	mov	r2, sl
 8008474:	465b      	mov	r3, fp
 8008476:	e7e5      	b.n	8008444 <_strtod_l+0x84>
 8008478:	2100      	movs	r1, #0
 800847a:	e7ef      	b.n	800845c <_strtod_l+0x9c>
 800847c:	9a1a      	ldr	r2, [sp, #104]	@ 0x68
 800847e:	b13a      	cbz	r2, 8008490 <_strtod_l+0xd0>
 8008480:	2135      	movs	r1, #53	@ 0x35
 8008482:	a81c      	add	r0, sp, #112	@ 0x70
 8008484:	f003 fcb8 	bl	800bdf8 <__copybits>
 8008488:	991a      	ldr	r1, [sp, #104]	@ 0x68
 800848a:	9805      	ldr	r0, [sp, #20]
 800848c:	f003 f88e 	bl	800b5ac <_Bfree>
 8008490:	3e01      	subs	r6, #1
 8008492:	9a1b      	ldr	r2, [sp, #108]	@ 0x6c
 8008494:	2e04      	cmp	r6, #4
 8008496:	d806      	bhi.n	80084a6 <_strtod_l+0xe6>
 8008498:	e8df f006 	tbb	[pc, r6]
 800849c:	201d0314 	.word	0x201d0314
 80084a0:	14          	.byte	0x14
 80084a1:	00          	.byte	0x00
 80084a2:	e9dd ab1c 	ldrd	sl, fp, [sp, #112]	@ 0x70
 80084a6:	05e1      	lsls	r1, r4, #23
 80084a8:	bf48      	it	mi
 80084aa:	f04b 4b00 	orrmi.w	fp, fp, #2147483648	@ 0x80000000
 80084ae:	f02b 4300 	bic.w	r3, fp, #2147483648	@ 0x80000000
 80084b2:	0d1b      	lsrs	r3, r3, #20
 80084b4:	051b      	lsls	r3, r3, #20
 80084b6:	2b00      	cmp	r3, #0
 80084b8:	d1bb      	bne.n	8008432 <_strtod_l+0x72>
 80084ba:	f001 fde7 	bl	800a08c <__errno>
 80084be:	2322      	movs	r3, #34	@ 0x22
 80084c0:	6003      	str	r3, [r0, #0]
 80084c2:	e7b6      	b.n	8008432 <_strtod_l+0x72>
 80084c4:	e9dd a31c 	ldrd	sl, r3, [sp, #112]	@ 0x70
 80084c8:	f202 4233 	addw	r2, r2, #1075	@ 0x433
 80084cc:	f423 1380 	bic.w	r3, r3, #1048576	@ 0x100000
 80084d0:	ea43 5b02 	orr.w	fp, r3, r2, lsl #20
 80084d4:	e7e7      	b.n	80084a6 <_strtod_l+0xe6>
 80084d6:	f8df b180 	ldr.w	fp, [pc, #384]	@ 8008658 <_strtod_l+0x298>
 80084da:	e7e4      	b.n	80084a6 <_strtod_l+0xe6>
 80084dc:	f06f 4b00 	mvn.w	fp, #2147483648	@ 0x80000000
 80084e0:	f04f 3aff 	mov.w	sl, #4294967295
 80084e4:	e7df      	b.n	80084a6 <_strtod_l+0xe6>
 80084e6:	9b19      	ldr	r3, [sp, #100]	@ 0x64
 80084e8:	1c5a      	adds	r2, r3, #1
 80084ea:	9219      	str	r2, [sp, #100]	@ 0x64
 80084ec:	785b      	ldrb	r3, [r3, #1]
 80084ee:	2b30      	cmp	r3, #48	@ 0x30
 80084f0:	d0f9      	beq.n	80084e6 <_strtod_l+0x126>
 80084f2:	2b00      	cmp	r3, #0
 80084f4:	d09d      	beq.n	8008432 <_strtod_l+0x72>
 80084f6:	2301      	movs	r3, #1
 80084f8:	2700      	movs	r7, #0
 80084fa:	9308      	str	r3, [sp, #32]
 80084fc:	9b19      	ldr	r3, [sp, #100]	@ 0x64
 80084fe:	930c      	str	r3, [sp, #48]	@ 0x30
 8008500:	970b      	str	r7, [sp, #44]	@ 0x2c
 8008502:	46b9      	mov	r9, r7
 8008504:	220a      	movs	r2, #10
 8008506:	9819      	ldr	r0, [sp, #100]	@ 0x64
 8008508:	7805      	ldrb	r5, [r0, #0]
 800850a:	f1a5 0330 	sub.w	r3, r5, #48	@ 0x30
 800850e:	b2d9      	uxtb	r1, r3
 8008510:	2909      	cmp	r1, #9
 8008512:	d928      	bls.n	8008566 <_strtod_l+0x1a6>
 8008514:	494f      	ldr	r1, [pc, #316]	@ (8008654 <_strtod_l+0x294>)
 8008516:	2201      	movs	r2, #1
 8008518:	f001 fd4b 	bl	8009fb2 <strncmp>
 800851c:	2800      	cmp	r0, #0
 800851e:	d032      	beq.n	8008586 <_strtod_l+0x1c6>
 8008520:	2000      	movs	r0, #0
 8008522:	462a      	mov	r2, r5
 8008524:	900a      	str	r0, [sp, #40]	@ 0x28
 8008526:	464d      	mov	r5, r9
 8008528:	4603      	mov	r3, r0
 800852a:	2a65      	cmp	r2, #101	@ 0x65
 800852c:	d001      	beq.n	8008532 <_strtod_l+0x172>
 800852e:	2a45      	cmp	r2, #69	@ 0x45
 8008530:	d114      	bne.n	800855c <_strtod_l+0x19c>
 8008532:	b91d      	cbnz	r5, 800853c <_strtod_l+0x17c>
 8008534:	9a08      	ldr	r2, [sp, #32]
 8008536:	4302      	orrs	r2, r0
 8008538:	d096      	beq.n	8008468 <_strtod_l+0xa8>
 800853a:	2500      	movs	r5, #0
 800853c:	9c19      	ldr	r4, [sp, #100]	@ 0x64
 800853e:	1c62      	adds	r2, r4, #1
 8008540:	9219      	str	r2, [sp, #100]	@ 0x64
 8008542:	7862      	ldrb	r2, [r4, #1]
 8008544:	2a2b      	cmp	r2, #43	@ 0x2b
 8008546:	d07a      	beq.n	800863e <_strtod_l+0x27e>
 8008548:	2a2d      	cmp	r2, #45	@ 0x2d
 800854a:	d07e      	beq.n	800864a <_strtod_l+0x28a>
 800854c:	f04f 0c00 	mov.w	ip, #0
 8008550:	f1a2 0130 	sub.w	r1, r2, #48	@ 0x30
 8008554:	2909      	cmp	r1, #9
 8008556:	f240 8085 	bls.w	8008664 <_strtod_l+0x2a4>
 800855a:	9419      	str	r4, [sp, #100]	@ 0x64
 800855c:	f04f 0800 	mov.w	r8, #0
 8008560:	e0a5      	b.n	80086ae <_strtod_l+0x2ee>
 8008562:	2300      	movs	r3, #0
 8008564:	e7c8      	b.n	80084f8 <_strtod_l+0x138>
 8008566:	f1b9 0f08 	cmp.w	r9, #8
 800856a:	bfd8      	it	le
 800856c:	990b      	ldrle	r1, [sp, #44]	@ 0x2c
 800856e:	f100 0001 	add.w	r0, r0, #1
 8008572:	bfda      	itte	le
 8008574:	fb02 3301 	mlale	r3, r2, r1, r3
 8008578:	930b      	strle	r3, [sp, #44]	@ 0x2c
 800857a:	fb02 3707 	mlagt	r7, r2, r7, r3
 800857e:	f109 0901 	add.w	r9, r9, #1
 8008582:	9019      	str	r0, [sp, #100]	@ 0x64
 8008584:	e7bf      	b.n	8008506 <_strtod_l+0x146>
 8008586:	9b19      	ldr	r3, [sp, #100]	@ 0x64
 8008588:	1c5a      	adds	r2, r3, #1
 800858a:	9219      	str	r2, [sp, #100]	@ 0x64
 800858c:	785a      	ldrb	r2, [r3, #1]
 800858e:	f1b9 0f00 	cmp.w	r9, #0
 8008592:	d03b      	beq.n	800860c <_strtod_l+0x24c>
 8008594:	900a      	str	r0, [sp, #40]	@ 0x28
 8008596:	464d      	mov	r5, r9
 8008598:	f1a2 0330 	sub.w	r3, r2, #48	@ 0x30
 800859c:	2b09      	cmp	r3, #9
 800859e:	d912      	bls.n	80085c6 <_strtod_l+0x206>
 80085a0:	2301      	movs	r3, #1
 80085a2:	e7c2      	b.n	800852a <_strtod_l+0x16a>
 80085a4:	9b19      	ldr	r3, [sp, #100]	@ 0x64
 80085a6:	1c5a      	adds	r2, r3, #1
 80085a8:	9219      	str	r2, [sp, #100]	@ 0x64
 80085aa:	785a      	ldrb	r2, [r3, #1]
 80085ac:	3001      	adds	r0, #1
 80085ae:	2a30      	cmp	r2, #48	@ 0x30
 80085b0:	d0f8      	beq.n	80085a4 <_strtod_l+0x1e4>
 80085b2:	f1a2 0331 	sub.w	r3, r2, #49	@ 0x31
 80085b6:	2b08      	cmp	r3, #8
 80085b8:	f200 84d2 	bhi.w	8008f60 <_strtod_l+0xba0>
 80085bc:	9b19      	ldr	r3, [sp, #100]	@ 0x64
 80085be:	900a      	str	r0, [sp, #40]	@ 0x28
 80085c0:	2000      	movs	r0, #0
 80085c2:	930c      	str	r3, [sp, #48]	@ 0x30
 80085c4:	4605      	mov	r5, r0
 80085c6:	3a30      	subs	r2, #48	@ 0x30
 80085c8:	f100 0301 	add.w	r3, r0, #1
 80085cc:	d018      	beq.n	8008600 <_strtod_l+0x240>
 80085ce:	990a      	ldr	r1, [sp, #40]	@ 0x28
 80085d0:	4419      	add	r1, r3
 80085d2:	910a      	str	r1, [sp, #40]	@ 0x28
 80085d4:	462e      	mov	r6, r5
 80085d6:	f04f 0e0a 	mov.w	lr, #10
 80085da:	1c71      	adds	r1, r6, #1
 80085dc:	eba1 0c05 	sub.w	ip, r1, r5
 80085e0:	4563      	cmp	r3, ip
 80085e2:	dc15      	bgt.n	8008610 <_strtod_l+0x250>
 80085e4:	ea20 70e0 	bic.w	r0, r0, r0, asr #31
 80085e8:	182b      	adds	r3, r5, r0
 80085ea:	2b08      	cmp	r3, #8
 80085ec:	f105 0501 	add.w	r5, r5, #1
 80085f0:	4405      	add	r5, r0
 80085f2:	dc1a      	bgt.n	800862a <_strtod_l+0x26a>
 80085f4:	990b      	ldr	r1, [sp, #44]	@ 0x2c
 80085f6:	230a      	movs	r3, #10
 80085f8:	fb03 2301 	mla	r3, r3, r1, r2
 80085fc:	930b      	str	r3, [sp, #44]	@ 0x2c
 80085fe:	2300      	movs	r3, #0
 8008600:	9a19      	ldr	r2, [sp, #100]	@ 0x64
 8008602:	1c51      	adds	r1, r2, #1
 8008604:	9119      	str	r1, [sp, #100]	@ 0x64
 8008606:	7852      	ldrb	r2, [r2, #1]
 8008608:	4618      	mov	r0, r3
 800860a:	e7c5      	b.n	8008598 <_strtod_l+0x1d8>
 800860c:	4648      	mov	r0, r9
 800860e:	e7ce      	b.n	80085ae <_strtod_l+0x1ee>
 8008610:	2e08      	cmp	r6, #8
 8008612:	dc05      	bgt.n	8008620 <_strtod_l+0x260>
 8008614:	9e0b      	ldr	r6, [sp, #44]	@ 0x2c
 8008616:	fb0e f606 	mul.w	r6, lr, r6
 800861a:	960b      	str	r6, [sp, #44]	@ 0x2c
 800861c:	460e      	mov	r6, r1
 800861e:	e7dc      	b.n	80085da <_strtod_l+0x21a>
 8008620:	2910      	cmp	r1, #16
 8008622:	bfd8      	it	le
 8008624:	fb0e f707 	mulle.w	r7, lr, r7
 8008628:	e7f8      	b.n	800861c <_strtod_l+0x25c>
 800862a:	2b0f      	cmp	r3, #15
 800862c:	bfdc      	itt	le
 800862e:	230a      	movle	r3, #10
 8008630:	fb03 2707 	mlale	r7, r3, r7, r2
 8008634:	e7e3      	b.n	80085fe <_strtod_l+0x23e>
 8008636:	2300      	movs	r3, #0
 8008638:	930a      	str	r3, [sp, #40]	@ 0x28
 800863a:	2301      	movs	r3, #1
 800863c:	e77a      	b.n	8008534 <_strtod_l+0x174>
 800863e:	f04f 0c00 	mov.w	ip, #0
 8008642:	1ca2      	adds	r2, r4, #2
 8008644:	9219      	str	r2, [sp, #100]	@ 0x64
 8008646:	78a2      	ldrb	r2, [r4, #2]
 8008648:	e782      	b.n	8008550 <_strtod_l+0x190>
 800864a:	f04f 0c01 	mov.w	ip, #1
 800864e:	e7f8      	b.n	8008642 <_strtod_l+0x282>
 8008650:	0800cdac 	.word	0x0800cdac
 8008654:	0800c933 	.word	0x0800c933
 8008658:	7ff00000 	.word	0x7ff00000
 800865c:	9a19      	ldr	r2, [sp, #100]	@ 0x64
 800865e:	1c51      	adds	r1, r2, #1
 8008660:	9119      	str	r1, [sp, #100]	@ 0x64
 8008662:	7852      	ldrb	r2, [r2, #1]
 8008664:	2a30      	cmp	r2, #48	@ 0x30
 8008666:	d0f9      	beq.n	800865c <_strtod_l+0x29c>
 8008668:	f1a2 0131 	sub.w	r1, r2, #49	@ 0x31
 800866c:	2908      	cmp	r1, #8
 800866e:	f63f af75 	bhi.w	800855c <_strtod_l+0x19c>
 8008672:	3a30      	subs	r2, #48	@ 0x30
 8008674:	9209      	str	r2, [sp, #36]	@ 0x24
 8008676:	9a19      	ldr	r2, [sp, #100]	@ 0x64
 8008678:	920f      	str	r2, [sp, #60]	@ 0x3c
 800867a:	f04f 080a 	mov.w	r8, #10
 800867e:	9a19      	ldr	r2, [sp, #100]	@ 0x64
 8008680:	1c56      	adds	r6, r2, #1
 8008682:	9619      	str	r6, [sp, #100]	@ 0x64
 8008684:	7852      	ldrb	r2, [r2, #1]
 8008686:	f1a2 0e30 	sub.w	lr, r2, #48	@ 0x30
 800868a:	f1be 0f09 	cmp.w	lr, #9
 800868e:	d939      	bls.n	8008704 <_strtod_l+0x344>
 8008690:	990f      	ldr	r1, [sp, #60]	@ 0x3c
 8008692:	1a76      	subs	r6, r6, r1
 8008694:	2e08      	cmp	r6, #8
 8008696:	f644 681f 	movw	r8, #19999	@ 0x4e1f
 800869a:	dc03      	bgt.n	80086a4 <_strtod_l+0x2e4>
 800869c:	9909      	ldr	r1, [sp, #36]	@ 0x24
 800869e:	4588      	cmp	r8, r1
 80086a0:	bfa8      	it	ge
 80086a2:	4688      	movge	r8, r1
 80086a4:	f1bc 0f00 	cmp.w	ip, #0
 80086a8:	d001      	beq.n	80086ae <_strtod_l+0x2ee>
 80086aa:	f1c8 0800 	rsb	r8, r8, #0
 80086ae:	2d00      	cmp	r5, #0
 80086b0:	d14e      	bne.n	8008750 <_strtod_l+0x390>
 80086b2:	9908      	ldr	r1, [sp, #32]
 80086b4:	4308      	orrs	r0, r1
 80086b6:	f47f aebc 	bne.w	8008432 <_strtod_l+0x72>
 80086ba:	2b00      	cmp	r3, #0
 80086bc:	f47f aed4 	bne.w	8008468 <_strtod_l+0xa8>
 80086c0:	2a69      	cmp	r2, #105	@ 0x69
 80086c2:	d028      	beq.n	8008716 <_strtod_l+0x356>
 80086c4:	dc25      	bgt.n	8008712 <_strtod_l+0x352>
 80086c6:	2a49      	cmp	r2, #73	@ 0x49
 80086c8:	d025      	beq.n	8008716 <_strtod_l+0x356>
 80086ca:	2a4e      	cmp	r2, #78	@ 0x4e
 80086cc:	f47f aecc 	bne.w	8008468 <_strtod_l+0xa8>
 80086d0:	499a      	ldr	r1, [pc, #616]	@ (800893c <_strtod_l+0x57c>)
 80086d2:	a819      	add	r0, sp, #100	@ 0x64
 80086d4:	f002 fe68 	bl	800b3a8 <__match>
 80086d8:	2800      	cmp	r0, #0
 80086da:	f43f aec5 	beq.w	8008468 <_strtod_l+0xa8>
 80086de:	9b19      	ldr	r3, [sp, #100]	@ 0x64
 80086e0:	781b      	ldrb	r3, [r3, #0]
 80086e2:	2b28      	cmp	r3, #40	@ 0x28
 80086e4:	d12e      	bne.n	8008744 <_strtod_l+0x384>
 80086e6:	4996      	ldr	r1, [pc, #600]	@ (8008940 <_strtod_l+0x580>)
 80086e8:	aa1c      	add	r2, sp, #112	@ 0x70
 80086ea:	a819      	add	r0, sp, #100	@ 0x64
 80086ec:	f002 fe70 	bl	800b3d0 <__hexnan>
 80086f0:	2805      	cmp	r0, #5
 80086f2:	d127      	bne.n	8008744 <_strtod_l+0x384>
 80086f4:	9b1d      	ldr	r3, [sp, #116]	@ 0x74
 80086f6:	f8dd a070 	ldr.w	sl, [sp, #112]	@ 0x70
 80086fa:	f043 4bff 	orr.w	fp, r3, #2139095040	@ 0x7f800000
 80086fe:	f44b 0be0 	orr.w	fp, fp, #7340032	@ 0x700000
 8008702:	e696      	b.n	8008432 <_strtod_l+0x72>
 8008704:	9909      	ldr	r1, [sp, #36]	@ 0x24
 8008706:	fb08 2101 	mla	r1, r8, r1, r2
 800870a:	f1a1 0230 	sub.w	r2, r1, #48	@ 0x30
 800870e:	9209      	str	r2, [sp, #36]	@ 0x24
 8008710:	e7b5      	b.n	800867e <_strtod_l+0x2be>
 8008712:	2a6e      	cmp	r2, #110	@ 0x6e
 8008714:	e7da      	b.n	80086cc <_strtod_l+0x30c>
 8008716:	498b      	ldr	r1, [pc, #556]	@ (8008944 <_strtod_l+0x584>)
 8008718:	a819      	add	r0, sp, #100	@ 0x64
 800871a:	f002 fe45 	bl	800b3a8 <__match>
 800871e:	2800      	cmp	r0, #0
 8008720:	f43f aea2 	beq.w	8008468 <_strtod_l+0xa8>
 8008724:	9b19      	ldr	r3, [sp, #100]	@ 0x64
 8008726:	4988      	ldr	r1, [pc, #544]	@ (8008948 <_strtod_l+0x588>)
 8008728:	3b01      	subs	r3, #1
 800872a:	a819      	add	r0, sp, #100	@ 0x64
 800872c:	9319      	str	r3, [sp, #100]	@ 0x64
 800872e:	f002 fe3b 	bl	800b3a8 <__match>
 8008732:	b910      	cbnz	r0, 800873a <_strtod_l+0x37a>
 8008734:	9b19      	ldr	r3, [sp, #100]	@ 0x64
 8008736:	3301      	adds	r3, #1
 8008738:	9319      	str	r3, [sp, #100]	@ 0x64
 800873a:	f8df b21c 	ldr.w	fp, [pc, #540]	@ 8008958 <_strtod_l+0x598>
 800873e:	f04f 0a00 	mov.w	sl, #0
 8008742:	e676      	b.n	8008432 <_strtod_l+0x72>
 8008744:	4881      	ldr	r0, [pc, #516]	@ (800894c <_strtod_l+0x58c>)
 8008746:	f7fd fad3 	bl	8005cf0 <nan>
 800874a:	ec5b ab10 	vmov	sl, fp, d0
 800874e:	e670      	b.n	8008432 <_strtod_l+0x72>
 8008750:	9b0a      	ldr	r3, [sp, #40]	@ 0x28
 8008752:	980b      	ldr	r0, [sp, #44]	@ 0x2c
 8008754:	eba8 0303 	sub.w	r3, r8, r3
 8008758:	f1b9 0f00 	cmp.w	r9, #0
 800875c:	bf08      	it	eq
 800875e:	46a9      	moveq	r9, r5
 8008760:	2d10      	cmp	r5, #16
 8008762:	9309      	str	r3, [sp, #36]	@ 0x24
 8008764:	462c      	mov	r4, r5
 8008766:	bfa8      	it	ge
 8008768:	2410      	movge	r4, #16
 800876a:	f7f7 fecb 	bl	8000504 <__aeabi_ui2d>
 800876e:	2d09      	cmp	r5, #9
 8008770:	4682      	mov	sl, r0
 8008772:	468b      	mov	fp, r1
 8008774:	dc13      	bgt.n	800879e <_strtod_l+0x3de>
 8008776:	9b09      	ldr	r3, [sp, #36]	@ 0x24
 8008778:	2b00      	cmp	r3, #0
 800877a:	f43f ae5a 	beq.w	8008432 <_strtod_l+0x72>
 800877e:	9b09      	ldr	r3, [sp, #36]	@ 0x24
 8008780:	dd78      	ble.n	8008874 <_strtod_l+0x4b4>
 8008782:	2b16      	cmp	r3, #22
 8008784:	dc5f      	bgt.n	8008846 <_strtod_l+0x486>
 8008786:	4972      	ldr	r1, [pc, #456]	@ (8008950 <_strtod_l+0x590>)
 8008788:	eb01 01c3 	add.w	r1, r1, r3, lsl #3
 800878c:	e9d1 0100 	ldrd	r0, r1, [r1]
 8008790:	4652      	mov	r2, sl
 8008792:	465b      	mov	r3, fp
 8008794:	f7f7 ff30 	bl	80005f8 <__aeabi_dmul>
 8008798:	4682      	mov	sl, r0
 800879a:	468b      	mov	fp, r1
 800879c:	e649      	b.n	8008432 <_strtod_l+0x72>
 800879e:	4b6c      	ldr	r3, [pc, #432]	@ (8008950 <_strtod_l+0x590>)
 80087a0:	eb03 03c4 	add.w	r3, r3, r4, lsl #3
 80087a4:	e953 2312 	ldrd	r2, r3, [r3, #-72]	@ 0x48
 80087a8:	f7f7 ff26 	bl	80005f8 <__aeabi_dmul>
 80087ac:	4682      	mov	sl, r0
 80087ae:	4638      	mov	r0, r7
 80087b0:	468b      	mov	fp, r1
 80087b2:	f7f7 fea7 	bl	8000504 <__aeabi_ui2d>
 80087b6:	4602      	mov	r2, r0
 80087b8:	460b      	mov	r3, r1
 80087ba:	4650      	mov	r0, sl
 80087bc:	4659      	mov	r1, fp
 80087be:	f7f7 fd65 	bl	800028c <__adddf3>
 80087c2:	2d0f      	cmp	r5, #15
 80087c4:	4682      	mov	sl, r0
 80087c6:	468b      	mov	fp, r1
 80087c8:	ddd5      	ble.n	8008776 <_strtod_l+0x3b6>
 80087ca:	9b09      	ldr	r3, [sp, #36]	@ 0x24
 80087cc:	1b2c      	subs	r4, r5, r4
 80087ce:	441c      	add	r4, r3
 80087d0:	2c00      	cmp	r4, #0
 80087d2:	f340 8093 	ble.w	80088fc <_strtod_l+0x53c>
 80087d6:	f014 030f 	ands.w	r3, r4, #15
 80087da:	d00a      	beq.n	80087f2 <_strtod_l+0x432>
 80087dc:	495c      	ldr	r1, [pc, #368]	@ (8008950 <_strtod_l+0x590>)
 80087de:	eb01 01c3 	add.w	r1, r1, r3, lsl #3
 80087e2:	4652      	mov	r2, sl
 80087e4:	465b      	mov	r3, fp
 80087e6:	e9d1 0100 	ldrd	r0, r1, [r1]
 80087ea:	f7f7 ff05 	bl	80005f8 <__aeabi_dmul>
 80087ee:	4682      	mov	sl, r0
 80087f0:	468b      	mov	fp, r1
 80087f2:	f034 040f 	bics.w	r4, r4, #15
 80087f6:	d073      	beq.n	80088e0 <_strtod_l+0x520>
 80087f8:	f5b4 7f9a 	cmp.w	r4, #308	@ 0x134
 80087fc:	dd49      	ble.n	8008892 <_strtod_l+0x4d2>
 80087fe:	2400      	movs	r4, #0
 8008800:	46a0      	mov	r8, r4
 8008802:	940b      	str	r4, [sp, #44]	@ 0x2c
 8008804:	46a1      	mov	r9, r4
 8008806:	9a05      	ldr	r2, [sp, #20]
 8008808:	f8df b14c 	ldr.w	fp, [pc, #332]	@ 8008958 <_strtod_l+0x598>
 800880c:	2322      	movs	r3, #34	@ 0x22
 800880e:	6013      	str	r3, [r2, #0]
 8008810:	f04f 0a00 	mov.w	sl, #0
 8008814:	9b0b      	ldr	r3, [sp, #44]	@ 0x2c
 8008816:	2b00      	cmp	r3, #0
 8008818:	f43f ae0b 	beq.w	8008432 <_strtod_l+0x72>
 800881c:	991a      	ldr	r1, [sp, #104]	@ 0x68
 800881e:	9805      	ldr	r0, [sp, #20]
 8008820:	f002 fec4 	bl	800b5ac <_Bfree>
 8008824:	9805      	ldr	r0, [sp, #20]
 8008826:	4649      	mov	r1, r9
 8008828:	f002 fec0 	bl	800b5ac <_Bfree>
 800882c:	9805      	ldr	r0, [sp, #20]
 800882e:	4641      	mov	r1, r8
 8008830:	f002 febc 	bl	800b5ac <_Bfree>
 8008834:	990b      	ldr	r1, [sp, #44]	@ 0x2c
 8008836:	9805      	ldr	r0, [sp, #20]
 8008838:	f002 feb8 	bl	800b5ac <_Bfree>
 800883c:	9805      	ldr	r0, [sp, #20]
 800883e:	4621      	mov	r1, r4
 8008840:	f002 feb4 	bl	800b5ac <_Bfree>
 8008844:	e5f5      	b.n	8008432 <_strtod_l+0x72>
 8008846:	9a09      	ldr	r2, [sp, #36]	@ 0x24
 8008848:	f1c5 0325 	rsb	r3, r5, #37	@ 0x25
 800884c:	4293      	cmp	r3, r2
 800884e:	dbbc      	blt.n	80087ca <_strtod_l+0x40a>
 8008850:	4c3f      	ldr	r4, [pc, #252]	@ (8008950 <_strtod_l+0x590>)
 8008852:	f1c5 050f 	rsb	r5, r5, #15
 8008856:	eb04 01c5 	add.w	r1, r4, r5, lsl #3
 800885a:	4652      	mov	r2, sl
 800885c:	465b      	mov	r3, fp
 800885e:	e9d1 0100 	ldrd	r0, r1, [r1]
 8008862:	f7f7 fec9 	bl	80005f8 <__aeabi_dmul>
 8008866:	9b09      	ldr	r3, [sp, #36]	@ 0x24
 8008868:	1b5d      	subs	r5, r3, r5
 800886a:	eb04 04c5 	add.w	r4, r4, r5, lsl #3
 800886e:	e9d4 2300 	ldrd	r2, r3, [r4]
 8008872:	e78f      	b.n	8008794 <_strtod_l+0x3d4>
 8008874:	3316      	adds	r3, #22
 8008876:	dba8      	blt.n	80087ca <_strtod_l+0x40a>
 8008878:	9b0a      	ldr	r3, [sp, #40]	@ 0x28
 800887a:	eba3 0808 	sub.w	r8, r3, r8
 800887e:	4b34      	ldr	r3, [pc, #208]	@ (8008950 <_strtod_l+0x590>)
 8008880:	eb03 08c8 	add.w	r8, r3, r8, lsl #3
 8008884:	e9d8 2300 	ldrd	r2, r3, [r8]
 8008888:	4650      	mov	r0, sl
 800888a:	4659      	mov	r1, fp
 800888c:	f7f7 ffde 	bl	800084c <__aeabi_ddiv>
 8008890:	e782      	b.n	8008798 <_strtod_l+0x3d8>
 8008892:	2300      	movs	r3, #0
 8008894:	4f2f      	ldr	r7, [pc, #188]	@ (8008954 <_strtod_l+0x594>)
 8008896:	1124      	asrs	r4, r4, #4
 8008898:	4650      	mov	r0, sl
 800889a:	4659      	mov	r1, fp
 800889c:	461e      	mov	r6, r3
 800889e:	2c01      	cmp	r4, #1
 80088a0:	dc21      	bgt.n	80088e6 <_strtod_l+0x526>
 80088a2:	b10b      	cbz	r3, 80088a8 <_strtod_l+0x4e8>
 80088a4:	4682      	mov	sl, r0
 80088a6:	468b      	mov	fp, r1
 80088a8:	492a      	ldr	r1, [pc, #168]	@ (8008954 <_strtod_l+0x594>)
 80088aa:	f1ab 7b54 	sub.w	fp, fp, #55574528	@ 0x3500000
 80088ae:	eb01 01c6 	add.w	r1, r1, r6, lsl #3
 80088b2:	4652      	mov	r2, sl
 80088b4:	465b      	mov	r3, fp
 80088b6:	e9d1 0100 	ldrd	r0, r1, [r1]
 80088ba:	f7f7 fe9d 	bl	80005f8 <__aeabi_dmul>
 80088be:	4b26      	ldr	r3, [pc, #152]	@ (8008958 <_strtod_l+0x598>)
 80088c0:	460a      	mov	r2, r1
 80088c2:	400b      	ands	r3, r1
 80088c4:	4925      	ldr	r1, [pc, #148]	@ (800895c <_strtod_l+0x59c>)
 80088c6:	428b      	cmp	r3, r1
 80088c8:	4682      	mov	sl, r0
 80088ca:	d898      	bhi.n	80087fe <_strtod_l+0x43e>
 80088cc:	f5a1 1180 	sub.w	r1, r1, #1048576	@ 0x100000
 80088d0:	428b      	cmp	r3, r1
 80088d2:	bf86      	itte	hi
 80088d4:	f8df b088 	ldrhi.w	fp, [pc, #136]	@ 8008960 <_strtod_l+0x5a0>
 80088d8:	f04f 3aff 	movhi.w	sl, #4294967295
 80088dc:	f102 7b54 	addls.w	fp, r2, #55574528	@ 0x3500000
 80088e0:	2300      	movs	r3, #0
 80088e2:	9308      	str	r3, [sp, #32]
 80088e4:	e076      	b.n	80089d4 <_strtod_l+0x614>
 80088e6:	07e2      	lsls	r2, r4, #31
 80088e8:	d504      	bpl.n	80088f4 <_strtod_l+0x534>
 80088ea:	e9d7 2300 	ldrd	r2, r3, [r7]
 80088ee:	f7f7 fe83 	bl	80005f8 <__aeabi_dmul>
 80088f2:	2301      	movs	r3, #1
 80088f4:	3601      	adds	r6, #1
 80088f6:	1064      	asrs	r4, r4, #1
 80088f8:	3708      	adds	r7, #8
 80088fa:	e7d0      	b.n	800889e <_strtod_l+0x4de>
 80088fc:	d0f0      	beq.n	80088e0 <_strtod_l+0x520>
 80088fe:	4264      	negs	r4, r4
 8008900:	f014 020f 	ands.w	r2, r4, #15
 8008904:	d00a      	beq.n	800891c <_strtod_l+0x55c>
 8008906:	4b12      	ldr	r3, [pc, #72]	@ (8008950 <_strtod_l+0x590>)
 8008908:	eb03 03c2 	add.w	r3, r3, r2, lsl #3
 800890c:	4650      	mov	r0, sl
 800890e:	4659      	mov	r1, fp
 8008910:	e9d3 2300 	ldrd	r2, r3, [r3]
 8008914:	f7f7 ff9a 	bl	800084c <__aeabi_ddiv>
 8008918:	4682      	mov	sl, r0
 800891a:	468b      	mov	fp, r1
 800891c:	1124      	asrs	r4, r4, #4
 800891e:	d0df      	beq.n	80088e0 <_strtod_l+0x520>
 8008920:	2c1f      	cmp	r4, #31
 8008922:	dd1f      	ble.n	8008964 <_strtod_l+0x5a4>
 8008924:	2400      	movs	r4, #0
 8008926:	46a0      	mov	r8, r4
 8008928:	940b      	str	r4, [sp, #44]	@ 0x2c
 800892a:	46a1      	mov	r9, r4
 800892c:	9a05      	ldr	r2, [sp, #20]
 800892e:	2322      	movs	r3, #34	@ 0x22
 8008930:	f04f 0a00 	mov.w	sl, #0
 8008934:	f04f 0b00 	mov.w	fp, #0
 8008938:	6013      	str	r3, [r2, #0]
 800893a:	e76b      	b.n	8008814 <_strtod_l+0x454>
 800893c:	0800c942 	.word	0x0800c942
 8008940:	0800cd98 	.word	0x0800cd98
 8008944:	0800c93a 	.word	0x0800c93a
 8008948:	0800c9b5 	.word	0x0800c9b5
 800894c:	0800c9b1 	.word	0x0800c9b1
 8008950:	0800cf20 	.word	0x0800cf20
 8008954:	0800cef8 	.word	0x0800cef8
 8008958:	7ff00000 	.word	0x7ff00000
 800895c:	7ca00000 	.word	0x7ca00000
 8008960:	7fefffff 	.word	0x7fefffff
 8008964:	f014 0310 	ands.w	r3, r4, #16
 8008968:	bf18      	it	ne
 800896a:	236a      	movne	r3, #106	@ 0x6a
 800896c:	4ea9      	ldr	r6, [pc, #676]	@ (8008c14 <_strtod_l+0x854>)
 800896e:	9308      	str	r3, [sp, #32]
 8008970:	4650      	mov	r0, sl
 8008972:	4659      	mov	r1, fp
 8008974:	2300      	movs	r3, #0
 8008976:	07e7      	lsls	r7, r4, #31
 8008978:	d504      	bpl.n	8008984 <_strtod_l+0x5c4>
 800897a:	e9d6 2300 	ldrd	r2, r3, [r6]
 800897e:	f7f7 fe3b 	bl	80005f8 <__aeabi_dmul>
 8008982:	2301      	movs	r3, #1
 8008984:	1064      	asrs	r4, r4, #1
 8008986:	f106 0608 	add.w	r6, r6, #8
 800898a:	d1f4      	bne.n	8008976 <_strtod_l+0x5b6>
 800898c:	b10b      	cbz	r3, 8008992 <_strtod_l+0x5d2>
 800898e:	4682      	mov	sl, r0
 8008990:	468b      	mov	fp, r1
 8008992:	9b08      	ldr	r3, [sp, #32]
 8008994:	b1b3      	cbz	r3, 80089c4 <_strtod_l+0x604>
 8008996:	f3cb 520a 	ubfx	r2, fp, #20, #11
 800899a:	f1c2 036b 	rsb	r3, r2, #107	@ 0x6b
 800899e:	2b00      	cmp	r3, #0
 80089a0:	4659      	mov	r1, fp
 80089a2:	dd0f      	ble.n	80089c4 <_strtod_l+0x604>
 80089a4:	2b1f      	cmp	r3, #31
 80089a6:	dd56      	ble.n	8008a56 <_strtod_l+0x696>
 80089a8:	2b34      	cmp	r3, #52	@ 0x34
 80089aa:	bfde      	ittt	le
 80089ac:	f04f 33ff 	movle.w	r3, #4294967295
 80089b0:	f1c2 024b 	rsble	r2, r2, #75	@ 0x4b
 80089b4:	4093      	lslle	r3, r2
 80089b6:	f04f 0a00 	mov.w	sl, #0
 80089ba:	bfcc      	ite	gt
 80089bc:	f04f 7b5c 	movgt.w	fp, #57671680	@ 0x3700000
 80089c0:	ea03 0b01 	andle.w	fp, r3, r1
 80089c4:	2200      	movs	r2, #0
 80089c6:	2300      	movs	r3, #0
 80089c8:	4650      	mov	r0, sl
 80089ca:	4659      	mov	r1, fp
 80089cc:	f7f8 f87c 	bl	8000ac8 <__aeabi_dcmpeq>
 80089d0:	2800      	cmp	r0, #0
 80089d2:	d1a7      	bne.n	8008924 <_strtod_l+0x564>
 80089d4:	9b0b      	ldr	r3, [sp, #44]	@ 0x2c
 80089d6:	9300      	str	r3, [sp, #0]
 80089d8:	990c      	ldr	r1, [sp, #48]	@ 0x30
 80089da:	9805      	ldr	r0, [sp, #20]
 80089dc:	462b      	mov	r3, r5
 80089de:	464a      	mov	r2, r9
 80089e0:	f002 fe4c 	bl	800b67c <__s2b>
 80089e4:	900b      	str	r0, [sp, #44]	@ 0x2c
 80089e6:	2800      	cmp	r0, #0
 80089e8:	f43f af09 	beq.w	80087fe <_strtod_l+0x43e>
 80089ec:	9a09      	ldr	r2, [sp, #36]	@ 0x24
 80089ee:	9b0a      	ldr	r3, [sp, #40]	@ 0x28
 80089f0:	2a00      	cmp	r2, #0
 80089f2:	eba3 0308 	sub.w	r3, r3, r8
 80089f6:	bfa8      	it	ge
 80089f8:	2300      	movge	r3, #0
 80089fa:	9312      	str	r3, [sp, #72]	@ 0x48
 80089fc:	2400      	movs	r4, #0
 80089fe:	ea22 73e2 	bic.w	r3, r2, r2, asr #31
 8008a02:	9316      	str	r3, [sp, #88]	@ 0x58
 8008a04:	46a0      	mov	r8, r4
 8008a06:	9b0b      	ldr	r3, [sp, #44]	@ 0x2c
 8008a08:	9805      	ldr	r0, [sp, #20]
 8008a0a:	6859      	ldr	r1, [r3, #4]
 8008a0c:	f002 fd8e 	bl	800b52c <_Balloc>
 8008a10:	4681      	mov	r9, r0
 8008a12:	2800      	cmp	r0, #0
 8008a14:	f43f aef7 	beq.w	8008806 <_strtod_l+0x446>
 8008a18:	9b0b      	ldr	r3, [sp, #44]	@ 0x2c
 8008a1a:	691a      	ldr	r2, [r3, #16]
 8008a1c:	3202      	adds	r2, #2
 8008a1e:	f103 010c 	add.w	r1, r3, #12
 8008a22:	0092      	lsls	r2, r2, #2
 8008a24:	300c      	adds	r0, #12
 8008a26:	f001 fb5e 	bl	800a0e6 <memcpy>
 8008a2a:	ec4b ab10 	vmov	d0, sl, fp
 8008a2e:	9805      	ldr	r0, [sp, #20]
 8008a30:	aa1c      	add	r2, sp, #112	@ 0x70
 8008a32:	a91b      	add	r1, sp, #108	@ 0x6c
 8008a34:	e9cd ab0c 	strd	sl, fp, [sp, #48]	@ 0x30
 8008a38:	f003 f954 	bl	800bce4 <__d2b>
 8008a3c:	901a      	str	r0, [sp, #104]	@ 0x68
 8008a3e:	2800      	cmp	r0, #0
 8008a40:	f43f aee1 	beq.w	8008806 <_strtod_l+0x446>
 8008a44:	9805      	ldr	r0, [sp, #20]
 8008a46:	2101      	movs	r1, #1
 8008a48:	f002 feae 	bl	800b7a8 <__i2b>
 8008a4c:	4680      	mov	r8, r0
 8008a4e:	b948      	cbnz	r0, 8008a64 <_strtod_l+0x6a4>
 8008a50:	f04f 0800 	mov.w	r8, #0
 8008a54:	e6d7      	b.n	8008806 <_strtod_l+0x446>
 8008a56:	f04f 32ff 	mov.w	r2, #4294967295
 8008a5a:	fa02 f303 	lsl.w	r3, r2, r3
 8008a5e:	ea03 0a0a 	and.w	sl, r3, sl
 8008a62:	e7af      	b.n	80089c4 <_strtod_l+0x604>
 8008a64:	9d1b      	ldr	r5, [sp, #108]	@ 0x6c
 8008a66:	9a1c      	ldr	r2, [sp, #112]	@ 0x70
 8008a68:	2d00      	cmp	r5, #0
 8008a6a:	bfab      	itete	ge
 8008a6c:	9b12      	ldrge	r3, [sp, #72]	@ 0x48
 8008a6e:	9b16      	ldrlt	r3, [sp, #88]	@ 0x58
 8008a70:	9e16      	ldrge	r6, [sp, #88]	@ 0x58
 8008a72:	9f12      	ldrlt	r7, [sp, #72]	@ 0x48
 8008a74:	bfac      	ite	ge
 8008a76:	18ef      	addge	r7, r5, r3
 8008a78:	1b5e      	sublt	r6, r3, r5
 8008a7a:	9b08      	ldr	r3, [sp, #32]
 8008a7c:	1aed      	subs	r5, r5, r3
 8008a7e:	4415      	add	r5, r2
 8008a80:	4b65      	ldr	r3, [pc, #404]	@ (8008c18 <_strtod_l+0x858>)
 8008a82:	3d01      	subs	r5, #1
 8008a84:	429d      	cmp	r5, r3
 8008a86:	f1c2 0236 	rsb	r2, r2, #54	@ 0x36
 8008a8a:	da50      	bge.n	8008b2e <_strtod_l+0x76e>
 8008a8c:	1b5b      	subs	r3, r3, r5
 8008a8e:	2b1f      	cmp	r3, #31
 8008a90:	eba2 0203 	sub.w	r2, r2, r3
 8008a94:	f04f 0101 	mov.w	r1, #1
 8008a98:	dc3d      	bgt.n	8008b16 <_strtod_l+0x756>
 8008a9a:	fa01 f303 	lsl.w	r3, r1, r3
 8008a9e:	9313      	str	r3, [sp, #76]	@ 0x4c
 8008aa0:	2300      	movs	r3, #0
 8008aa2:	9310      	str	r3, [sp, #64]	@ 0x40
 8008aa4:	18bd      	adds	r5, r7, r2
 8008aa6:	9b08      	ldr	r3, [sp, #32]
 8008aa8:	42af      	cmp	r7, r5
 8008aaa:	4416      	add	r6, r2
 8008aac:	441e      	add	r6, r3
 8008aae:	463b      	mov	r3, r7
 8008ab0:	bfa8      	it	ge
 8008ab2:	462b      	movge	r3, r5
 8008ab4:	42b3      	cmp	r3, r6
 8008ab6:	bfa8      	it	ge
 8008ab8:	4633      	movge	r3, r6
 8008aba:	2b00      	cmp	r3, #0
 8008abc:	bfc2      	ittt	gt
 8008abe:	1aed      	subgt	r5, r5, r3
 8008ac0:	1af6      	subgt	r6, r6, r3
 8008ac2:	1aff      	subgt	r7, r7, r3
 8008ac4:	9b12      	ldr	r3, [sp, #72]	@ 0x48
 8008ac6:	2b00      	cmp	r3, #0
 8008ac8:	dd16      	ble.n	8008af8 <_strtod_l+0x738>
 8008aca:	4641      	mov	r1, r8
 8008acc:	9805      	ldr	r0, [sp, #20]
 8008ace:	461a      	mov	r2, r3
 8008ad0:	f002 ff22 	bl	800b918 <__pow5mult>
 8008ad4:	4680      	mov	r8, r0
 8008ad6:	2800      	cmp	r0, #0
 8008ad8:	d0ba      	beq.n	8008a50 <_strtod_l+0x690>
 8008ada:	4601      	mov	r1, r0
 8008adc:	9a1a      	ldr	r2, [sp, #104]	@ 0x68
 8008ade:	9805      	ldr	r0, [sp, #20]
 8008ae0:	f002 fe78 	bl	800b7d4 <__multiply>
 8008ae4:	900a      	str	r0, [sp, #40]	@ 0x28
 8008ae6:	2800      	cmp	r0, #0
 8008ae8:	f43f ae8d 	beq.w	8008806 <_strtod_l+0x446>
 8008aec:	991a      	ldr	r1, [sp, #104]	@ 0x68
 8008aee:	9805      	ldr	r0, [sp, #20]
 8008af0:	f002 fd5c 	bl	800b5ac <_Bfree>
 8008af4:	9b0a      	ldr	r3, [sp, #40]	@ 0x28
 8008af6:	931a      	str	r3, [sp, #104]	@ 0x68
 8008af8:	2d00      	cmp	r5, #0
 8008afa:	dc1d      	bgt.n	8008b38 <_strtod_l+0x778>
 8008afc:	9b09      	ldr	r3, [sp, #36]	@ 0x24
 8008afe:	2b00      	cmp	r3, #0
 8008b00:	dd23      	ble.n	8008b4a <_strtod_l+0x78a>
 8008b02:	4649      	mov	r1, r9
 8008b04:	9a16      	ldr	r2, [sp, #88]	@ 0x58
 8008b06:	9805      	ldr	r0, [sp, #20]
 8008b08:	f002 ff06 	bl	800b918 <__pow5mult>
 8008b0c:	4681      	mov	r9, r0
 8008b0e:	b9e0      	cbnz	r0, 8008b4a <_strtod_l+0x78a>
 8008b10:	f04f 0900 	mov.w	r9, #0
 8008b14:	e677      	b.n	8008806 <_strtod_l+0x446>
 8008b16:	f1c5 457f 	rsb	r5, r5, #4278190080	@ 0xff000000
 8008b1a:	f505 057f 	add.w	r5, r5, #16711680	@ 0xff0000
 8008b1e:	f505 457b 	add.w	r5, r5, #64256	@ 0xfb00
 8008b22:	35e2      	adds	r5, #226	@ 0xe2
 8008b24:	fa01 f305 	lsl.w	r3, r1, r5
 8008b28:	9310      	str	r3, [sp, #64]	@ 0x40
 8008b2a:	9113      	str	r1, [sp, #76]	@ 0x4c
 8008b2c:	e7ba      	b.n	8008aa4 <_strtod_l+0x6e4>
 8008b2e:	2300      	movs	r3, #0
 8008b30:	9310      	str	r3, [sp, #64]	@ 0x40
 8008b32:	2301      	movs	r3, #1
 8008b34:	9313      	str	r3, [sp, #76]	@ 0x4c
 8008b36:	e7b5      	b.n	8008aa4 <_strtod_l+0x6e4>
 8008b38:	991a      	ldr	r1, [sp, #104]	@ 0x68
 8008b3a:	9805      	ldr	r0, [sp, #20]
 8008b3c:	462a      	mov	r2, r5
 8008b3e:	f002 ff45 	bl	800b9cc <__lshift>
 8008b42:	901a      	str	r0, [sp, #104]	@ 0x68
 8008b44:	2800      	cmp	r0, #0
 8008b46:	d1d9      	bne.n	8008afc <_strtod_l+0x73c>
 8008b48:	e65d      	b.n	8008806 <_strtod_l+0x446>
 8008b4a:	2e00      	cmp	r6, #0
 8008b4c:	dd07      	ble.n	8008b5e <_strtod_l+0x79e>
 8008b4e:	4649      	mov	r1, r9
 8008b50:	9805      	ldr	r0, [sp, #20]
 8008b52:	4632      	mov	r2, r6
 8008b54:	f002 ff3a 	bl	800b9cc <__lshift>
 8008b58:	4681      	mov	r9, r0
 8008b5a:	2800      	cmp	r0, #0
 8008b5c:	d0d8      	beq.n	8008b10 <_strtod_l+0x750>
 8008b5e:	2f00      	cmp	r7, #0
 8008b60:	dd08      	ble.n	8008b74 <_strtod_l+0x7b4>
 8008b62:	4641      	mov	r1, r8
 8008b64:	9805      	ldr	r0, [sp, #20]
 8008b66:	463a      	mov	r2, r7
 8008b68:	f002 ff30 	bl	800b9cc <__lshift>
 8008b6c:	4680      	mov	r8, r0
 8008b6e:	2800      	cmp	r0, #0
 8008b70:	f43f ae49 	beq.w	8008806 <_strtod_l+0x446>
 8008b74:	991a      	ldr	r1, [sp, #104]	@ 0x68
 8008b76:	9805      	ldr	r0, [sp, #20]
 8008b78:	464a      	mov	r2, r9
 8008b7a:	f002 ffaf 	bl	800badc <__mdiff>
 8008b7e:	4604      	mov	r4, r0
 8008b80:	2800      	cmp	r0, #0
 8008b82:	f43f ae40 	beq.w	8008806 <_strtod_l+0x446>
 8008b86:	68c3      	ldr	r3, [r0, #12]
 8008b88:	930f      	str	r3, [sp, #60]	@ 0x3c
 8008b8a:	2300      	movs	r3, #0
 8008b8c:	60c3      	str	r3, [r0, #12]
 8008b8e:	4641      	mov	r1, r8
 8008b90:	f002 ff88 	bl	800baa4 <__mcmp>
 8008b94:	2800      	cmp	r0, #0
 8008b96:	da45      	bge.n	8008c24 <_strtod_l+0x864>
 8008b98:	9b0f      	ldr	r3, [sp, #60]	@ 0x3c
 8008b9a:	ea53 030a 	orrs.w	r3, r3, sl
 8008b9e:	d16b      	bne.n	8008c78 <_strtod_l+0x8b8>
 8008ba0:	f3cb 0313 	ubfx	r3, fp, #0, #20
 8008ba4:	2b00      	cmp	r3, #0
 8008ba6:	d167      	bne.n	8008c78 <_strtod_l+0x8b8>
 8008ba8:	f02b 4300 	bic.w	r3, fp, #2147483648	@ 0x80000000
 8008bac:	0d1b      	lsrs	r3, r3, #20
 8008bae:	051b      	lsls	r3, r3, #20
 8008bb0:	f1b3 6fd6 	cmp.w	r3, #112197632	@ 0x6b00000
 8008bb4:	d960      	bls.n	8008c78 <_strtod_l+0x8b8>
 8008bb6:	6963      	ldr	r3, [r4, #20]
 8008bb8:	b913      	cbnz	r3, 8008bc0 <_strtod_l+0x800>
 8008bba:	6923      	ldr	r3, [r4, #16]
 8008bbc:	2b01      	cmp	r3, #1
 8008bbe:	dd5b      	ble.n	8008c78 <_strtod_l+0x8b8>
 8008bc0:	4621      	mov	r1, r4
 8008bc2:	2201      	movs	r2, #1
 8008bc4:	9805      	ldr	r0, [sp, #20]
 8008bc6:	f002 ff01 	bl	800b9cc <__lshift>
 8008bca:	4641      	mov	r1, r8
 8008bcc:	4604      	mov	r4, r0
 8008bce:	f002 ff69 	bl	800baa4 <__mcmp>
 8008bd2:	2800      	cmp	r0, #0
 8008bd4:	dd50      	ble.n	8008c78 <_strtod_l+0x8b8>
 8008bd6:	f02b 4300 	bic.w	r3, fp, #2147483648	@ 0x80000000
 8008bda:	9a08      	ldr	r2, [sp, #32]
 8008bdc:	0d1b      	lsrs	r3, r3, #20
 8008bde:	051b      	lsls	r3, r3, #20
 8008be0:	2a00      	cmp	r2, #0
 8008be2:	d06a      	beq.n	8008cba <_strtod_l+0x8fa>
 8008be4:	f1b3 6fd6 	cmp.w	r3, #112197632	@ 0x6b00000
 8008be8:	d867      	bhi.n	8008cba <_strtod_l+0x8fa>
 8008bea:	f1b3 7f5c 	cmp.w	r3, #57671680	@ 0x3700000
 8008bee:	f67f ae9d 	bls.w	800892c <_strtod_l+0x56c>
 8008bf2:	4b0a      	ldr	r3, [pc, #40]	@ (8008c1c <_strtod_l+0x85c>)
 8008bf4:	4650      	mov	r0, sl
 8008bf6:	4659      	mov	r1, fp
 8008bf8:	2200      	movs	r2, #0
 8008bfa:	f7f7 fcfd 	bl	80005f8 <__aeabi_dmul>
 8008bfe:	4b08      	ldr	r3, [pc, #32]	@ (8008c20 <_strtod_l+0x860>)
 8008c00:	400b      	ands	r3, r1
 8008c02:	4682      	mov	sl, r0
 8008c04:	468b      	mov	fp, r1
 8008c06:	2b00      	cmp	r3, #0
 8008c08:	f47f ae08 	bne.w	800881c <_strtod_l+0x45c>
 8008c0c:	9a05      	ldr	r2, [sp, #20]
 8008c0e:	2322      	movs	r3, #34	@ 0x22
 8008c10:	6013      	str	r3, [r2, #0]
 8008c12:	e603      	b.n	800881c <_strtod_l+0x45c>
 8008c14:	0800cdc0 	.word	0x0800cdc0
 8008c18:	fffffc02 	.word	0xfffffc02
 8008c1c:	39500000 	.word	0x39500000
 8008c20:	7ff00000 	.word	0x7ff00000
 8008c24:	f8cd b028 	str.w	fp, [sp, #40]	@ 0x28
 8008c28:	d165      	bne.n	8008cf6 <_strtod_l+0x936>
 8008c2a:	9a0f      	ldr	r2, [sp, #60]	@ 0x3c
 8008c2c:	f3cb 0313 	ubfx	r3, fp, #0, #20
 8008c30:	b35a      	cbz	r2, 8008c8a <_strtod_l+0x8ca>
 8008c32:	4a9f      	ldr	r2, [pc, #636]	@ (8008eb0 <_strtod_l+0xaf0>)
 8008c34:	4293      	cmp	r3, r2
 8008c36:	d12b      	bne.n	8008c90 <_strtod_l+0x8d0>
 8008c38:	9b08      	ldr	r3, [sp, #32]
 8008c3a:	4651      	mov	r1, sl
 8008c3c:	b303      	cbz	r3, 8008c80 <_strtod_l+0x8c0>
 8008c3e:	4b9d      	ldr	r3, [pc, #628]	@ (8008eb4 <_strtod_l+0xaf4>)
 8008c40:	465a      	mov	r2, fp
 8008c42:	4013      	ands	r3, r2
 8008c44:	f1b3 6fd4 	cmp.w	r3, #111149056	@ 0x6a00000
 8008c48:	f04f 32ff 	mov.w	r2, #4294967295
 8008c4c:	d81b      	bhi.n	8008c86 <_strtod_l+0x8c6>
 8008c4e:	0d1b      	lsrs	r3, r3, #20
 8008c50:	f1c3 036b 	rsb	r3, r3, #107	@ 0x6b
 8008c54:	fa02 f303 	lsl.w	r3, r2, r3
 8008c58:	4299      	cmp	r1, r3
 8008c5a:	d119      	bne.n	8008c90 <_strtod_l+0x8d0>
 8008c5c:	4b96      	ldr	r3, [pc, #600]	@ (8008eb8 <_strtod_l+0xaf8>)
 8008c5e:	9a0a      	ldr	r2, [sp, #40]	@ 0x28
 8008c60:	429a      	cmp	r2, r3
 8008c62:	d102      	bne.n	8008c6a <_strtod_l+0x8aa>
 8008c64:	3101      	adds	r1, #1
 8008c66:	f43f adce 	beq.w	8008806 <_strtod_l+0x446>
 8008c6a:	4b92      	ldr	r3, [pc, #584]	@ (8008eb4 <_strtod_l+0xaf4>)
 8008c6c:	9a0a      	ldr	r2, [sp, #40]	@ 0x28
 8008c6e:	401a      	ands	r2, r3
 8008c70:	f502 1b80 	add.w	fp, r2, #1048576	@ 0x100000
 8008c74:	f04f 0a00 	mov.w	sl, #0
 8008c78:	9b08      	ldr	r3, [sp, #32]
 8008c7a:	2b00      	cmp	r3, #0
 8008c7c:	d1b9      	bne.n	8008bf2 <_strtod_l+0x832>
 8008c7e:	e5cd      	b.n	800881c <_strtod_l+0x45c>
 8008c80:	f04f 33ff 	mov.w	r3, #4294967295
 8008c84:	e7e8      	b.n	8008c58 <_strtod_l+0x898>
 8008c86:	4613      	mov	r3, r2
 8008c88:	e7e6      	b.n	8008c58 <_strtod_l+0x898>
 8008c8a:	ea53 030a 	orrs.w	r3, r3, sl
 8008c8e:	d0a2      	beq.n	8008bd6 <_strtod_l+0x816>
 8008c90:	9b10      	ldr	r3, [sp, #64]	@ 0x40
 8008c92:	b1db      	cbz	r3, 8008ccc <_strtod_l+0x90c>
 8008c94:	9a0a      	ldr	r2, [sp, #40]	@ 0x28
 8008c96:	4213      	tst	r3, r2
 8008c98:	d0ee      	beq.n	8008c78 <_strtod_l+0x8b8>
 8008c9a:	9b0f      	ldr	r3, [sp, #60]	@ 0x3c
 8008c9c:	9a08      	ldr	r2, [sp, #32]
 8008c9e:	4650      	mov	r0, sl
 8008ca0:	4659      	mov	r1, fp
 8008ca2:	b1bb      	cbz	r3, 8008cd4 <_strtod_l+0x914>
 8008ca4:	f7ff fb6e 	bl	8008384 <sulp>
 8008ca8:	e9dd 010c 	ldrd	r0, r1, [sp, #48]	@ 0x30
 8008cac:	ec53 2b10 	vmov	r2, r3, d0
 8008cb0:	f7f7 faec 	bl	800028c <__adddf3>
 8008cb4:	4682      	mov	sl, r0
 8008cb6:	468b      	mov	fp, r1
 8008cb8:	e7de      	b.n	8008c78 <_strtod_l+0x8b8>
 8008cba:	f5a3 1380 	sub.w	r3, r3, #1048576	@ 0x100000
 8008cbe:	ea6f 5b13 	mvn.w	fp, r3, lsr #20
 8008cc2:	ea6f 5b0b 	mvn.w	fp, fp, lsl #20
 8008cc6:	f04f 3aff 	mov.w	sl, #4294967295
 8008cca:	e7d5      	b.n	8008c78 <_strtod_l+0x8b8>
 8008ccc:	9b13      	ldr	r3, [sp, #76]	@ 0x4c
 8008cce:	ea13 0f0a 	tst.w	r3, sl
 8008cd2:	e7e1      	b.n	8008c98 <_strtod_l+0x8d8>
 8008cd4:	f7ff fb56 	bl	8008384 <sulp>
 8008cd8:	e9dd 010c 	ldrd	r0, r1, [sp, #48]	@ 0x30
 8008cdc:	ec53 2b10 	vmov	r2, r3, d0
 8008ce0:	f7f7 fad2 	bl	8000288 <__aeabi_dsub>
 8008ce4:	2200      	movs	r2, #0
 8008ce6:	2300      	movs	r3, #0
 8008ce8:	4682      	mov	sl, r0
 8008cea:	468b      	mov	fp, r1
 8008cec:	f7f7 feec 	bl	8000ac8 <__aeabi_dcmpeq>
 8008cf0:	2800      	cmp	r0, #0
 8008cf2:	d0c1      	beq.n	8008c78 <_strtod_l+0x8b8>
 8008cf4:	e61a      	b.n	800892c <_strtod_l+0x56c>
 8008cf6:	4641      	mov	r1, r8
 8008cf8:	4620      	mov	r0, r4
 8008cfa:	f003 f84b 	bl	800bd94 <__ratio>
 8008cfe:	ec57 6b10 	vmov	r6, r7, d0
 8008d02:	2200      	movs	r2, #0
 8008d04:	f04f 4380 	mov.w	r3, #1073741824	@ 0x40000000
 8008d08:	4630      	mov	r0, r6
 8008d0a:	4639      	mov	r1, r7
 8008d0c:	f7f7 fef0 	bl	8000af0 <__aeabi_dcmple>
 8008d10:	2800      	cmp	r0, #0
 8008d12:	d06f      	beq.n	8008df4 <_strtod_l+0xa34>
 8008d14:	9b0f      	ldr	r3, [sp, #60]	@ 0x3c
 8008d16:	2b00      	cmp	r3, #0
 8008d18:	d17a      	bne.n	8008e10 <_strtod_l+0xa50>
 8008d1a:	f1ba 0f00 	cmp.w	sl, #0
 8008d1e:	d158      	bne.n	8008dd2 <_strtod_l+0xa12>
 8008d20:	9b0a      	ldr	r3, [sp, #40]	@ 0x28
 8008d22:	f3c3 0313 	ubfx	r3, r3, #0, #20
 8008d26:	2b00      	cmp	r3, #0
 8008d28:	d15a      	bne.n	8008de0 <_strtod_l+0xa20>
 8008d2a:	4b64      	ldr	r3, [pc, #400]	@ (8008ebc <_strtod_l+0xafc>)
 8008d2c:	2200      	movs	r2, #0
 8008d2e:	4630      	mov	r0, r6
 8008d30:	4639      	mov	r1, r7
 8008d32:	f7f7 fed3 	bl	8000adc <__aeabi_dcmplt>
 8008d36:	2800      	cmp	r0, #0
 8008d38:	d159      	bne.n	8008dee <_strtod_l+0xa2e>
 8008d3a:	4630      	mov	r0, r6
 8008d3c:	4639      	mov	r1, r7
 8008d3e:	4b60      	ldr	r3, [pc, #384]	@ (8008ec0 <_strtod_l+0xb00>)
 8008d40:	2200      	movs	r2, #0
 8008d42:	f7f7 fc59 	bl	80005f8 <__aeabi_dmul>
 8008d46:	4606      	mov	r6, r0
 8008d48:	460f      	mov	r7, r1
 8008d4a:	f107 4300 	add.w	r3, r7, #2147483648	@ 0x80000000
 8008d4e:	9606      	str	r6, [sp, #24]
 8008d50:	9307      	str	r3, [sp, #28]
 8008d52:	e9dd 2306 	ldrd	r2, r3, [sp, #24]
 8008d56:	4d57      	ldr	r5, [pc, #348]	@ (8008eb4 <_strtod_l+0xaf4>)
 8008d58:	e9cd 2310 	strd	r2, r3, [sp, #64]	@ 0x40
 8008d5c:	9b0a      	ldr	r3, [sp, #40]	@ 0x28
 8008d5e:	401d      	ands	r5, r3
 8008d60:	4b58      	ldr	r3, [pc, #352]	@ (8008ec4 <_strtod_l+0xb04>)
 8008d62:	429d      	cmp	r5, r3
 8008d64:	f040 80b2 	bne.w	8008ecc <_strtod_l+0xb0c>
 8008d68:	9b0a      	ldr	r3, [sp, #40]	@ 0x28
 8008d6a:	f1a3 7b54 	sub.w	fp, r3, #55574528	@ 0x3500000
 8008d6e:	ec4b ab10 	vmov	d0, sl, fp
 8008d72:	f002 ff47 	bl	800bc04 <__ulp>
 8008d76:	e9dd 2306 	ldrd	r2, r3, [sp, #24]
 8008d7a:	ec51 0b10 	vmov	r0, r1, d0
 8008d7e:	f7f7 fc3b 	bl	80005f8 <__aeabi_dmul>
 8008d82:	4652      	mov	r2, sl
 8008d84:	465b      	mov	r3, fp
 8008d86:	f7f7 fa81 	bl	800028c <__adddf3>
 8008d8a:	460b      	mov	r3, r1
 8008d8c:	4949      	ldr	r1, [pc, #292]	@ (8008eb4 <_strtod_l+0xaf4>)
 8008d8e:	4a4e      	ldr	r2, [pc, #312]	@ (8008ec8 <_strtod_l+0xb08>)
 8008d90:	4019      	ands	r1, r3
 8008d92:	4291      	cmp	r1, r2
 8008d94:	4682      	mov	sl, r0
 8008d96:	d942      	bls.n	8008e1e <_strtod_l+0xa5e>
 8008d98:	9a0d      	ldr	r2, [sp, #52]	@ 0x34
 8008d9a:	4b47      	ldr	r3, [pc, #284]	@ (8008eb8 <_strtod_l+0xaf8>)
 8008d9c:	429a      	cmp	r2, r3
 8008d9e:	d103      	bne.n	8008da8 <_strtod_l+0x9e8>
 8008da0:	9b0c      	ldr	r3, [sp, #48]	@ 0x30
 8008da2:	3301      	adds	r3, #1
 8008da4:	f43f ad2f 	beq.w	8008806 <_strtod_l+0x446>
 8008da8:	f8df b10c 	ldr.w	fp, [pc, #268]	@ 8008eb8 <_strtod_l+0xaf8>
 8008dac:	f04f 3aff 	mov.w	sl, #4294967295
 8008db0:	991a      	ldr	r1, [sp, #104]	@ 0x68
 8008db2:	9805      	ldr	r0, [sp, #20]
 8008db4:	f002 fbfa 	bl	800b5ac <_Bfree>
 8008db8:	9805      	ldr	r0, [sp, #20]
 8008dba:	4649      	mov	r1, r9
 8008dbc:	f002 fbf6 	bl	800b5ac <_Bfree>
 8008dc0:	9805      	ldr	r0, [sp, #20]
 8008dc2:	4641      	mov	r1, r8
 8008dc4:	f002 fbf2 	bl	800b5ac <_Bfree>
 8008dc8:	9805      	ldr	r0, [sp, #20]
 8008dca:	4621      	mov	r1, r4
 8008dcc:	f002 fbee 	bl	800b5ac <_Bfree>
 8008dd0:	e619      	b.n	8008a06 <_strtod_l+0x646>
 8008dd2:	f1ba 0f01 	cmp.w	sl, #1
 8008dd6:	d103      	bne.n	8008de0 <_strtod_l+0xa20>
 8008dd8:	9b0a      	ldr	r3, [sp, #40]	@ 0x28
 8008dda:	2b00      	cmp	r3, #0
 8008ddc:	f43f ada6 	beq.w	800892c <_strtod_l+0x56c>
 8008de0:	ed9f 7b2b 	vldr	d7, [pc, #172]	@ 8008e90 <_strtod_l+0xad0>
 8008de4:	4f35      	ldr	r7, [pc, #212]	@ (8008ebc <_strtod_l+0xafc>)
 8008de6:	ed8d 7b06 	vstr	d7, [sp, #24]
 8008dea:	2600      	movs	r6, #0
 8008dec:	e7b1      	b.n	8008d52 <_strtod_l+0x992>
 8008dee:	4f34      	ldr	r7, [pc, #208]	@ (8008ec0 <_strtod_l+0xb00>)
 8008df0:	2600      	movs	r6, #0
 8008df2:	e7aa      	b.n	8008d4a <_strtod_l+0x98a>
 8008df4:	4b32      	ldr	r3, [pc, #200]	@ (8008ec0 <_strtod_l+0xb00>)
 8008df6:	4630      	mov	r0, r6
 8008df8:	4639      	mov	r1, r7
 8008dfa:	2200      	movs	r2, #0
 8008dfc:	f7f7 fbfc 	bl	80005f8 <__aeabi_dmul>
 8008e00:	9b0f      	ldr	r3, [sp, #60]	@ 0x3c
 8008e02:	4606      	mov	r6, r0
 8008e04:	460f      	mov	r7, r1
 8008e06:	2b00      	cmp	r3, #0
 8008e08:	d09f      	beq.n	8008d4a <_strtod_l+0x98a>
 8008e0a:	e9cd 6706 	strd	r6, r7, [sp, #24]
 8008e0e:	e7a0      	b.n	8008d52 <_strtod_l+0x992>
 8008e10:	ed9f 7b21 	vldr	d7, [pc, #132]	@ 8008e98 <_strtod_l+0xad8>
 8008e14:	ed8d 7b06 	vstr	d7, [sp, #24]
 8008e18:	ec57 6b17 	vmov	r6, r7, d7
 8008e1c:	e799      	b.n	8008d52 <_strtod_l+0x992>
 8008e1e:	f103 7b54 	add.w	fp, r3, #55574528	@ 0x3500000
 8008e22:	9b08      	ldr	r3, [sp, #32]
 8008e24:	f8cd b028 	str.w	fp, [sp, #40]	@ 0x28
 8008e28:	2b00      	cmp	r3, #0
 8008e2a:	d1c1      	bne.n	8008db0 <_strtod_l+0x9f0>
 8008e2c:	f02b 4300 	bic.w	r3, fp, #2147483648	@ 0x80000000
 8008e30:	0d1b      	lsrs	r3, r3, #20
 8008e32:	051b      	lsls	r3, r3, #20
 8008e34:	429d      	cmp	r5, r3
 8008e36:	d1bb      	bne.n	8008db0 <_strtod_l+0x9f0>
 8008e38:	4630      	mov	r0, r6
 8008e3a:	4639      	mov	r1, r7
 8008e3c:	f7f7 ff24 	bl	8000c88 <__aeabi_d2lz>
 8008e40:	f7f7 fbac 	bl	800059c <__aeabi_l2d>
 8008e44:	4602      	mov	r2, r0
 8008e46:	460b      	mov	r3, r1
 8008e48:	4630      	mov	r0, r6
 8008e4a:	4639      	mov	r1, r7
 8008e4c:	f7f7 fa1c 	bl	8000288 <__aeabi_dsub>
 8008e50:	460b      	mov	r3, r1
 8008e52:	4602      	mov	r2, r0
 8008e54:	e9cd 230c 	strd	r2, r3, [sp, #48]	@ 0x30
 8008e58:	f3cb 0613 	ubfx	r6, fp, #0, #20
 8008e5c:	9b0f      	ldr	r3, [sp, #60]	@ 0x3c
 8008e5e:	ea46 060a 	orr.w	r6, r6, sl
 8008e62:	431e      	orrs	r6, r3
 8008e64:	d06f      	beq.n	8008f46 <_strtod_l+0xb86>
 8008e66:	a30e      	add	r3, pc, #56	@ (adr r3, 8008ea0 <_strtod_l+0xae0>)
 8008e68:	e9d3 2300 	ldrd	r2, r3, [r3]
 8008e6c:	f7f7 fe36 	bl	8000adc <__aeabi_dcmplt>
 8008e70:	2800      	cmp	r0, #0
 8008e72:	f47f acd3 	bne.w	800881c <_strtod_l+0x45c>
 8008e76:	a30c      	add	r3, pc, #48	@ (adr r3, 8008ea8 <_strtod_l+0xae8>)
 8008e78:	e9d3 2300 	ldrd	r2, r3, [r3]
 8008e7c:	e9dd 010c 	ldrd	r0, r1, [sp, #48]	@ 0x30
 8008e80:	f7f7 fe4a 	bl	8000b18 <__aeabi_dcmpgt>
 8008e84:	2800      	cmp	r0, #0
 8008e86:	d093      	beq.n	8008db0 <_strtod_l+0x9f0>
 8008e88:	e4c8      	b.n	800881c <_strtod_l+0x45c>
 8008e8a:	bf00      	nop
 8008e8c:	f3af 8000 	nop.w
 8008e90:	00000000 	.word	0x00000000
 8008e94:	bff00000 	.word	0xbff00000
 8008e98:	00000000 	.word	0x00000000
 8008e9c:	3ff00000 	.word	0x3ff00000
 8008ea0:	94a03595 	.word	0x94a03595
 8008ea4:	3fdfffff 	.word	0x3fdfffff
 8008ea8:	35afe535 	.word	0x35afe535
 8008eac:	3fe00000 	.word	0x3fe00000
 8008eb0:	000fffff 	.word	0x000fffff
 8008eb4:	7ff00000 	.word	0x7ff00000
 8008eb8:	7fefffff 	.word	0x7fefffff
 8008ebc:	3ff00000 	.word	0x3ff00000
 8008ec0:	3fe00000 	.word	0x3fe00000
 8008ec4:	7fe00000 	.word	0x7fe00000
 8008ec8:	7c9fffff 	.word	0x7c9fffff
 8008ecc:	9b08      	ldr	r3, [sp, #32]
 8008ece:	b323      	cbz	r3, 8008f1a <_strtod_l+0xb5a>
 8008ed0:	f1b5 6fd4 	cmp.w	r5, #111149056	@ 0x6a00000
 8008ed4:	d821      	bhi.n	8008f1a <_strtod_l+0xb5a>
 8008ed6:	a328      	add	r3, pc, #160	@ (adr r3, 8008f78 <_strtod_l+0xbb8>)
 8008ed8:	e9d3 2300 	ldrd	r2, r3, [r3]
 8008edc:	4630      	mov	r0, r6
 8008ede:	4639      	mov	r1, r7
 8008ee0:	f7f7 fe06 	bl	8000af0 <__aeabi_dcmple>
 8008ee4:	b1a0      	cbz	r0, 8008f10 <_strtod_l+0xb50>
 8008ee6:	4639      	mov	r1, r7
 8008ee8:	4630      	mov	r0, r6
 8008eea:	f7f7 fe5d 	bl	8000ba8 <__aeabi_d2uiz>
 8008eee:	2801      	cmp	r0, #1
 8008ef0:	bf38      	it	cc
 8008ef2:	2001      	movcc	r0, #1
 8008ef4:	f7f7 fb06 	bl	8000504 <__aeabi_ui2d>
 8008ef8:	9b0f      	ldr	r3, [sp, #60]	@ 0x3c
 8008efa:	4606      	mov	r6, r0
 8008efc:	460f      	mov	r7, r1
 8008efe:	b9fb      	cbnz	r3, 8008f40 <_strtod_l+0xb80>
 8008f00:	f101 4300 	add.w	r3, r1, #2147483648	@ 0x80000000
 8008f04:	9014      	str	r0, [sp, #80]	@ 0x50
 8008f06:	9315      	str	r3, [sp, #84]	@ 0x54
 8008f08:	e9dd 2314 	ldrd	r2, r3, [sp, #80]	@ 0x50
 8008f0c:	e9cd 2310 	strd	r2, r3, [sp, #64]	@ 0x40
 8008f10:	9b11      	ldr	r3, [sp, #68]	@ 0x44
 8008f12:	f103 63d6 	add.w	r3, r3, #112197632	@ 0x6b00000
 8008f16:	1b5b      	subs	r3, r3, r5
 8008f18:	9311      	str	r3, [sp, #68]	@ 0x44
 8008f1a:	ed9d 0b0c 	vldr	d0, [sp, #48]	@ 0x30
 8008f1e:	e9dd ab10 	ldrd	sl, fp, [sp, #64]	@ 0x40
 8008f22:	f002 fe6f 	bl	800bc04 <__ulp>
 8008f26:	4650      	mov	r0, sl
 8008f28:	ec53 2b10 	vmov	r2, r3, d0
 8008f2c:	4659      	mov	r1, fp
 8008f2e:	f7f7 fb63 	bl	80005f8 <__aeabi_dmul>
 8008f32:	e9dd 230c 	ldrd	r2, r3, [sp, #48]	@ 0x30
 8008f36:	f7f7 f9a9 	bl	800028c <__adddf3>
 8008f3a:	4682      	mov	sl, r0
 8008f3c:	468b      	mov	fp, r1
 8008f3e:	e770      	b.n	8008e22 <_strtod_l+0xa62>
 8008f40:	e9cd 6714 	strd	r6, r7, [sp, #80]	@ 0x50
 8008f44:	e7e0      	b.n	8008f08 <_strtod_l+0xb48>
 8008f46:	a30e      	add	r3, pc, #56	@ (adr r3, 8008f80 <_strtod_l+0xbc0>)
 8008f48:	e9d3 2300 	ldrd	r2, r3, [r3]
 8008f4c:	f7f7 fdc6 	bl	8000adc <__aeabi_dcmplt>
 8008f50:	e798      	b.n	8008e84 <_strtod_l+0xac4>
 8008f52:	2300      	movs	r3, #0
 8008f54:	930e      	str	r3, [sp, #56]	@ 0x38
 8008f56:	9a17      	ldr	r2, [sp, #92]	@ 0x5c
 8008f58:	9b19      	ldr	r3, [sp, #100]	@ 0x64
 8008f5a:	6013      	str	r3, [r2, #0]
 8008f5c:	f7ff ba6d 	b.w	800843a <_strtod_l+0x7a>
 8008f60:	2a65      	cmp	r2, #101	@ 0x65
 8008f62:	f43f ab68 	beq.w	8008636 <_strtod_l+0x276>
 8008f66:	2a45      	cmp	r2, #69	@ 0x45
 8008f68:	f43f ab65 	beq.w	8008636 <_strtod_l+0x276>
 8008f6c:	2301      	movs	r3, #1
 8008f6e:	f7ff bba0 	b.w	80086b2 <_strtod_l+0x2f2>
 8008f72:	bf00      	nop
 8008f74:	f3af 8000 	nop.w
 8008f78:	ffc00000 	.word	0xffc00000
 8008f7c:	41dfffff 	.word	0x41dfffff
 8008f80:	94a03595 	.word	0x94a03595
 8008f84:	3fcfffff 	.word	0x3fcfffff

08008f88 <_strtod_r>:
 8008f88:	4b01      	ldr	r3, [pc, #4]	@ (8008f90 <_strtod_r+0x8>)
 8008f8a:	f7ff ba19 	b.w	80083c0 <_strtod_l>
 8008f8e:	bf00      	nop
 8008f90:	200000c0 	.word	0x200000c0

08008f94 <_strtol_l.isra.0>:
 8008f94:	2b24      	cmp	r3, #36	@ 0x24
 8008f96:	e92d 47f0 	stmdb	sp!, {r4, r5, r6, r7, r8, r9, sl, lr}
 8008f9a:	4686      	mov	lr, r0
 8008f9c:	4690      	mov	r8, r2
 8008f9e:	d801      	bhi.n	8008fa4 <_strtol_l.isra.0+0x10>
 8008fa0:	2b01      	cmp	r3, #1
 8008fa2:	d106      	bne.n	8008fb2 <_strtol_l.isra.0+0x1e>
 8008fa4:	f001 f872 	bl	800a08c <__errno>
 8008fa8:	2316      	movs	r3, #22
 8008faa:	6003      	str	r3, [r0, #0]
 8008fac:	2000      	movs	r0, #0
 8008fae:	e8bd 87f0 	ldmia.w	sp!, {r4, r5, r6, r7, r8, r9, sl, pc}
 8008fb2:	4834      	ldr	r0, [pc, #208]	@ (8009084 <_strtol_l.isra.0+0xf0>)
 8008fb4:	460d      	mov	r5, r1
 8008fb6:	462a      	mov	r2, r5
 8008fb8:	f815 4b01 	ldrb.w	r4, [r5], #1
 8008fbc:	5d06      	ldrb	r6, [r0, r4]
 8008fbe:	f016 0608 	ands.w	r6, r6, #8
 8008fc2:	d1f8      	bne.n	8008fb6 <_strtol_l.isra.0+0x22>
 8008fc4:	2c2d      	cmp	r4, #45	@ 0x2d
 8008fc6:	d110      	bne.n	8008fea <_strtol_l.isra.0+0x56>
 8008fc8:	782c      	ldrb	r4, [r5, #0]
 8008fca:	2601      	movs	r6, #1
 8008fcc:	1c95      	adds	r5, r2, #2
 8008fce:	f033 0210 	bics.w	r2, r3, #16
 8008fd2:	d115      	bne.n	8009000 <_strtol_l.isra.0+0x6c>
 8008fd4:	2c30      	cmp	r4, #48	@ 0x30
 8008fd6:	d10d      	bne.n	8008ff4 <_strtol_l.isra.0+0x60>
 8008fd8:	782a      	ldrb	r2, [r5, #0]
 8008fda:	f002 02df 	and.w	r2, r2, #223	@ 0xdf
 8008fde:	2a58      	cmp	r2, #88	@ 0x58
 8008fe0:	d108      	bne.n	8008ff4 <_strtol_l.isra.0+0x60>
 8008fe2:	786c      	ldrb	r4, [r5, #1]
 8008fe4:	3502      	adds	r5, #2
 8008fe6:	2310      	movs	r3, #16
 8008fe8:	e00a      	b.n	8009000 <_strtol_l.isra.0+0x6c>
 8008fea:	2c2b      	cmp	r4, #43	@ 0x2b
 8008fec:	bf04      	itt	eq
 8008fee:	782c      	ldrbeq	r4, [r5, #0]
 8008ff0:	1c95      	addeq	r5, r2, #2
 8008ff2:	e7ec      	b.n	8008fce <_strtol_l.isra.0+0x3a>
 8008ff4:	2b00      	cmp	r3, #0
 8008ff6:	d1f6      	bne.n	8008fe6 <_strtol_l.isra.0+0x52>
 8008ff8:	2c30      	cmp	r4, #48	@ 0x30
 8008ffa:	bf14      	ite	ne
 8008ffc:	230a      	movne	r3, #10
 8008ffe:	2308      	moveq	r3, #8
 8009000:	f106 4c00 	add.w	ip, r6, #2147483648	@ 0x80000000
 8009004:	f10c 3cff 	add.w	ip, ip, #4294967295
 8009008:	2200      	movs	r2, #0
 800900a:	fbbc f9f3 	udiv	r9, ip, r3
 800900e:	4610      	mov	r0, r2
 8009010:	fb03 ca19 	mls	sl, r3, r9, ip
 8009014:	f1a4 0730 	sub.w	r7, r4, #48	@ 0x30
 8009018:	2f09      	cmp	r7, #9
 800901a:	d80f      	bhi.n	800903c <_strtol_l.isra.0+0xa8>
 800901c:	463c      	mov	r4, r7
 800901e:	42a3      	cmp	r3, r4
 8009020:	dd1b      	ble.n	800905a <_strtol_l.isra.0+0xc6>
 8009022:	1c57      	adds	r7, r2, #1
 8009024:	d007      	beq.n	8009036 <_strtol_l.isra.0+0xa2>
 8009026:	4581      	cmp	r9, r0
 8009028:	d314      	bcc.n	8009054 <_strtol_l.isra.0+0xc0>
 800902a:	d101      	bne.n	8009030 <_strtol_l.isra.0+0x9c>
 800902c:	45a2      	cmp	sl, r4
 800902e:	db11      	blt.n	8009054 <_strtol_l.isra.0+0xc0>
 8009030:	fb00 4003 	mla	r0, r0, r3, r4
 8009034:	2201      	movs	r2, #1
 8009036:	f815 4b01 	ldrb.w	r4, [r5], #1
 800903a:	e7eb      	b.n	8009014 <_strtol_l.isra.0+0x80>
 800903c:	f1a4 0741 	sub.w	r7, r4, #65	@ 0x41
 8009040:	2f19      	cmp	r7, #25
 8009042:	d801      	bhi.n	8009048 <_strtol_l.isra.0+0xb4>
 8009044:	3c37      	subs	r4, #55	@ 0x37
 8009046:	e7ea      	b.n	800901e <_strtol_l.isra.0+0x8a>
 8009048:	f1a4 0761 	sub.w	r7, r4, #97	@ 0x61
 800904c:	2f19      	cmp	r7, #25
 800904e:	d804      	bhi.n	800905a <_strtol_l.isra.0+0xc6>
 8009050:	3c57      	subs	r4, #87	@ 0x57
 8009052:	e7e4      	b.n	800901e <_strtol_l.isra.0+0x8a>
 8009054:	f04f 32ff 	mov.w	r2, #4294967295
 8009058:	e7ed      	b.n	8009036 <_strtol_l.isra.0+0xa2>
 800905a:	1c53      	adds	r3, r2, #1
 800905c:	d108      	bne.n	8009070 <_strtol_l.isra.0+0xdc>
 800905e:	2322      	movs	r3, #34	@ 0x22
 8009060:	f8ce 3000 	str.w	r3, [lr]
 8009064:	4660      	mov	r0, ip
 8009066:	f1b8 0f00 	cmp.w	r8, #0
 800906a:	d0a0      	beq.n	8008fae <_strtol_l.isra.0+0x1a>
 800906c:	1e69      	subs	r1, r5, #1
 800906e:	e006      	b.n	800907e <_strtol_l.isra.0+0xea>
 8009070:	b106      	cbz	r6, 8009074 <_strtol_l.isra.0+0xe0>
 8009072:	4240      	negs	r0, r0
 8009074:	f1b8 0f00 	cmp.w	r8, #0
 8009078:	d099      	beq.n	8008fae <_strtol_l.isra.0+0x1a>
 800907a:	2a00      	cmp	r2, #0
 800907c:	d1f6      	bne.n	800906c <_strtol_l.isra.0+0xd8>
 800907e:	f8c8 1000 	str.w	r1, [r8]
 8009082:	e794      	b.n	8008fae <_strtol_l.isra.0+0x1a>
 8009084:	0800cde9 	.word	0x0800cde9

08009088 <_strtol_r>:
 8009088:	f7ff bf84 	b.w	8008f94 <_strtol_l.isra.0>

0800908c <__cvt>:
 800908c:	e92d 47ff 	stmdb	sp!, {r0, r1, r2, r3, r4, r5, r6, r7, r8, r9, sl, lr}
 8009090:	ec57 6b10 	vmov	r6, r7, d0
 8009094:	2f00      	cmp	r7, #0
 8009096:	460c      	mov	r4, r1
 8009098:	4619      	mov	r1, r3
 800909a:	463b      	mov	r3, r7
 800909c:	bfbb      	ittet	lt
 800909e:	f107 4300 	addlt.w	r3, r7, #2147483648	@ 0x80000000
 80090a2:	461f      	movlt	r7, r3
 80090a4:	2300      	movge	r3, #0
 80090a6:	232d      	movlt	r3, #45	@ 0x2d
 80090a8:	700b      	strb	r3, [r1, #0]
 80090aa:	9b0d      	ldr	r3, [sp, #52]	@ 0x34
 80090ac:	f8dd a030 	ldr.w	sl, [sp, #48]	@ 0x30
 80090b0:	4691      	mov	r9, r2
 80090b2:	f023 0820 	bic.w	r8, r3, #32
 80090b6:	bfbc      	itt	lt
 80090b8:	4632      	movlt	r2, r6
 80090ba:	4616      	movlt	r6, r2
 80090bc:	f1b8 0f46 	cmp.w	r8, #70	@ 0x46
 80090c0:	d005      	beq.n	80090ce <__cvt+0x42>
 80090c2:	f1b8 0f45 	cmp.w	r8, #69	@ 0x45
 80090c6:	d100      	bne.n	80090ca <__cvt+0x3e>
 80090c8:	3401      	adds	r4, #1
 80090ca:	2102      	movs	r1, #2
 80090cc:	e000      	b.n	80090d0 <__cvt+0x44>
 80090ce:	2103      	movs	r1, #3
 80090d0:	ab03      	add	r3, sp, #12
 80090d2:	9301      	str	r3, [sp, #4]
 80090d4:	ab02      	add	r3, sp, #8
 80090d6:	9300      	str	r3, [sp, #0]
 80090d8:	ec47 6b10 	vmov	d0, r6, r7
 80090dc:	4653      	mov	r3, sl
 80090de:	4622      	mov	r2, r4
 80090e0:	f001 f8be 	bl	800a260 <_dtoa_r>
 80090e4:	f1b8 0f47 	cmp.w	r8, #71	@ 0x47
 80090e8:	4605      	mov	r5, r0
 80090ea:	d119      	bne.n	8009120 <__cvt+0x94>
 80090ec:	f019 0f01 	tst.w	r9, #1
 80090f0:	d00e      	beq.n	8009110 <__cvt+0x84>
 80090f2:	eb00 0904 	add.w	r9, r0, r4
 80090f6:	2200      	movs	r2, #0
 80090f8:	2300      	movs	r3, #0
 80090fa:	4630      	mov	r0, r6
 80090fc:	4639      	mov	r1, r7
 80090fe:	f7f7 fce3 	bl	8000ac8 <__aeabi_dcmpeq>
 8009102:	b108      	cbz	r0, 8009108 <__cvt+0x7c>
 8009104:	f8cd 900c 	str.w	r9, [sp, #12]
 8009108:	2230      	movs	r2, #48	@ 0x30
 800910a:	9b03      	ldr	r3, [sp, #12]
 800910c:	454b      	cmp	r3, r9
 800910e:	d31e      	bcc.n	800914e <__cvt+0xc2>
 8009110:	9b03      	ldr	r3, [sp, #12]
 8009112:	9a0e      	ldr	r2, [sp, #56]	@ 0x38
 8009114:	1b5b      	subs	r3, r3, r5
 8009116:	4628      	mov	r0, r5
 8009118:	6013      	str	r3, [r2, #0]
 800911a:	b004      	add	sp, #16
 800911c:	e8bd 87f0 	ldmia.w	sp!, {r4, r5, r6, r7, r8, r9, sl, pc}
 8009120:	f1b8 0f46 	cmp.w	r8, #70	@ 0x46
 8009124:	eb00 0904 	add.w	r9, r0, r4
 8009128:	d1e5      	bne.n	80090f6 <__cvt+0x6a>
 800912a:	7803      	ldrb	r3, [r0, #0]
 800912c:	2b30      	cmp	r3, #48	@ 0x30
 800912e:	d10a      	bne.n	8009146 <__cvt+0xba>
 8009130:	2200      	movs	r2, #0
 8009132:	2300      	movs	r3, #0
 8009134:	4630      	mov	r0, r6
 8009136:	4639      	mov	r1, r7
 8009138:	f7f7 fcc6 	bl	8000ac8 <__aeabi_dcmpeq>
 800913c:	b918      	cbnz	r0, 8009146 <__cvt+0xba>
 800913e:	f1c4 0401 	rsb	r4, r4, #1
 8009142:	f8ca 4000 	str.w	r4, [sl]
 8009146:	f8da 3000 	ldr.w	r3, [sl]
 800914a:	4499      	add	r9, r3
 800914c:	e7d3      	b.n	80090f6 <__cvt+0x6a>
 800914e:	1c59      	adds	r1, r3, #1
 8009150:	9103      	str	r1, [sp, #12]
 8009152:	701a      	strb	r2, [r3, #0]
 8009154:	e7d9      	b.n	800910a <__cvt+0x7e>

08009156 <__exponent>:
 8009156:	b5f7      	push	{r0, r1, r2, r4, r5, r6, r7, lr}
 8009158:	2900      	cmp	r1, #0
 800915a:	bfba      	itte	lt
 800915c:	4249      	neglt	r1, r1
 800915e:	232d      	movlt	r3, #45	@ 0x2d
 8009160:	232b      	movge	r3, #43	@ 0x2b
 8009162:	2909      	cmp	r1, #9
 8009164:	7002      	strb	r2, [r0, #0]
 8009166:	7043      	strb	r3, [r0, #1]
 8009168:	dd29      	ble.n	80091be <__exponent+0x68>
 800916a:	f10d 0307 	add.w	r3, sp, #7
 800916e:	461d      	mov	r5, r3
 8009170:	270a      	movs	r7, #10
 8009172:	461a      	mov	r2, r3
 8009174:	fbb1 f6f7 	udiv	r6, r1, r7
 8009178:	fb07 1416 	mls	r4, r7, r6, r1
 800917c:	3430      	adds	r4, #48	@ 0x30
 800917e:	f802 4c01 	strb.w	r4, [r2, #-1]
 8009182:	460c      	mov	r4, r1
 8009184:	2c63      	cmp	r4, #99	@ 0x63
 8009186:	f103 33ff 	add.w	r3, r3, #4294967295
 800918a:	4631      	mov	r1, r6
 800918c:	dcf1      	bgt.n	8009172 <__exponent+0x1c>
 800918e:	3130      	adds	r1, #48	@ 0x30
 8009190:	1e94      	subs	r4, r2, #2
 8009192:	f803 1c01 	strb.w	r1, [r3, #-1]
 8009196:	1c41      	adds	r1, r0, #1
 8009198:	4623      	mov	r3, r4
 800919a:	42ab      	cmp	r3, r5
 800919c:	d30a      	bcc.n	80091b4 <__exponent+0x5e>
 800919e:	f10d 0309 	add.w	r3, sp, #9
 80091a2:	1a9b      	subs	r3, r3, r2
 80091a4:	42ac      	cmp	r4, r5
 80091a6:	bf88      	it	hi
 80091a8:	2300      	movhi	r3, #0
 80091aa:	3302      	adds	r3, #2
 80091ac:	4403      	add	r3, r0
 80091ae:	1a18      	subs	r0, r3, r0
 80091b0:	b003      	add	sp, #12
 80091b2:	bdf0      	pop	{r4, r5, r6, r7, pc}
 80091b4:	f813 6b01 	ldrb.w	r6, [r3], #1
 80091b8:	f801 6f01 	strb.w	r6, [r1, #1]!
 80091bc:	e7ed      	b.n	800919a <__exponent+0x44>
 80091be:	2330      	movs	r3, #48	@ 0x30
 80091c0:	3130      	adds	r1, #48	@ 0x30
 80091c2:	7083      	strb	r3, [r0, #2]
 80091c4:	70c1      	strb	r1, [r0, #3]
 80091c6:	1d03      	adds	r3, r0, #4
 80091c8:	e7f1      	b.n	80091ae <__exponent+0x58>
	...

080091cc <_printf_float>:
 80091cc:	e92d 4ff0 	stmdb	sp!, {r4, r5, r6, r7, r8, r9, sl, fp, lr}
 80091d0:	b08d      	sub	sp, #52	@ 0x34
 80091d2:	460c      	mov	r4, r1
 80091d4:	f8dd 8058 	ldr.w	r8, [sp, #88]	@ 0x58
 80091d8:	4616      	mov	r6, r2
 80091da:	461f      	mov	r7, r3
 80091dc:	4605      	mov	r5, r0
 80091de:	f000 fefb 	bl	8009fd8 <_localeconv_r>
 80091e2:	6803      	ldr	r3, [r0, #0]
 80091e4:	9304      	str	r3, [sp, #16]
 80091e6:	4618      	mov	r0, r3
 80091e8:	f7f7 f842 	bl	8000270 <strlen>
 80091ec:	2300      	movs	r3, #0
 80091ee:	930a      	str	r3, [sp, #40]	@ 0x28
 80091f0:	f8d8 3000 	ldr.w	r3, [r8]
 80091f4:	9005      	str	r0, [sp, #20]
 80091f6:	3307      	adds	r3, #7
 80091f8:	f023 0307 	bic.w	r3, r3, #7
 80091fc:	f103 0208 	add.w	r2, r3, #8
 8009200:	f894 a018 	ldrb.w	sl, [r4, #24]
 8009204:	f8d4 b000 	ldr.w	fp, [r4]
 8009208:	f8c8 2000 	str.w	r2, [r8]
 800920c:	e9d3 8900 	ldrd	r8, r9, [r3]
 8009210:	f029 4300 	bic.w	r3, r9, #2147483648	@ 0x80000000
 8009214:	9307      	str	r3, [sp, #28]
 8009216:	f8cd 8018 	str.w	r8, [sp, #24]
 800921a:	e9c4 8912 	strd	r8, r9, [r4, #72]	@ 0x48
 800921e:	e9dd 0106 	ldrd	r0, r1, [sp, #24]
 8009222:	4b9c      	ldr	r3, [pc, #624]	@ (8009494 <_printf_float+0x2c8>)
 8009224:	f04f 32ff 	mov.w	r2, #4294967295
 8009228:	f7f7 fc80 	bl	8000b2c <__aeabi_dcmpun>
 800922c:	bb70      	cbnz	r0, 800928c <_printf_float+0xc0>
 800922e:	e9dd 0106 	ldrd	r0, r1, [sp, #24]
 8009232:	4b98      	ldr	r3, [pc, #608]	@ (8009494 <_printf_float+0x2c8>)
 8009234:	f04f 32ff 	mov.w	r2, #4294967295
 8009238:	f7f7 fc5a 	bl	8000af0 <__aeabi_dcmple>
 800923c:	bb30      	cbnz	r0, 800928c <_printf_float+0xc0>
 800923e:	2200      	movs	r2, #0
 8009240:	2300      	movs	r3, #0
 8009242:	4640      	mov	r0, r8
 8009244:	4649      	mov	r1, r9
 8009246:	f7f7 fc49 	bl	8000adc <__aeabi_dcmplt>
 800924a:	b110      	cbz	r0, 8009252 <_printf_float+0x86>
 800924c:	232d      	movs	r3, #45	@ 0x2d
 800924e:	f884 3043 	strb.w	r3, [r4, #67]	@ 0x43
 8009252:	4a91      	ldr	r2, [pc, #580]	@ (8009498 <_printf_float+0x2cc>)
 8009254:	4b91      	ldr	r3, [pc, #580]	@ (800949c <_printf_float+0x2d0>)
 8009256:	f1ba 0f47 	cmp.w	sl, #71	@ 0x47
 800925a:	bf8c      	ite	hi
 800925c:	4690      	movhi	r8, r2
 800925e:	4698      	movls	r8, r3
 8009260:	2303      	movs	r3, #3
 8009262:	6123      	str	r3, [r4, #16]
 8009264:	f02b 0304 	bic.w	r3, fp, #4
 8009268:	6023      	str	r3, [r4, #0]
 800926a:	f04f 0900 	mov.w	r9, #0
 800926e:	9700      	str	r7, [sp, #0]
 8009270:	4633      	mov	r3, r6
 8009272:	aa0b      	add	r2, sp, #44	@ 0x2c
 8009274:	4621      	mov	r1, r4
 8009276:	4628      	mov	r0, r5
 8009278:	f000 f9d2 	bl	8009620 <_printf_common>
 800927c:	3001      	adds	r0, #1
 800927e:	f040 808d 	bne.w	800939c <_printf_float+0x1d0>
 8009282:	f04f 30ff 	mov.w	r0, #4294967295
 8009286:	b00d      	add	sp, #52	@ 0x34
 8009288:	e8bd 8ff0 	ldmia.w	sp!, {r4, r5, r6, r7, r8, r9, sl, fp, pc}
 800928c:	4642      	mov	r2, r8
 800928e:	464b      	mov	r3, r9
 8009290:	4640      	mov	r0, r8
 8009292:	4649      	mov	r1, r9
 8009294:	f7f7 fc4a 	bl	8000b2c <__aeabi_dcmpun>
 8009298:	b140      	cbz	r0, 80092ac <_printf_float+0xe0>
 800929a:	464b      	mov	r3, r9
 800929c:	2b00      	cmp	r3, #0
 800929e:	bfbc      	itt	lt
 80092a0:	232d      	movlt	r3, #45	@ 0x2d
 80092a2:	f884 3043 	strblt.w	r3, [r4, #67]	@ 0x43
 80092a6:	4a7e      	ldr	r2, [pc, #504]	@ (80094a0 <_printf_float+0x2d4>)
 80092a8:	4b7e      	ldr	r3, [pc, #504]	@ (80094a4 <_printf_float+0x2d8>)
 80092aa:	e7d4      	b.n	8009256 <_printf_float+0x8a>
 80092ac:	6863      	ldr	r3, [r4, #4]
 80092ae:	f00a 02df 	and.w	r2, sl, #223	@ 0xdf
 80092b2:	9206      	str	r2, [sp, #24]
 80092b4:	1c5a      	adds	r2, r3, #1
 80092b6:	d13b      	bne.n	8009330 <_printf_float+0x164>
 80092b8:	2306      	movs	r3, #6
 80092ba:	6063      	str	r3, [r4, #4]
 80092bc:	f44b 6280 	orr.w	r2, fp, #1024	@ 0x400
 80092c0:	2300      	movs	r3, #0
 80092c2:	6022      	str	r2, [r4, #0]
 80092c4:	9303      	str	r3, [sp, #12]
 80092c6:	ab0a      	add	r3, sp, #40	@ 0x28
 80092c8:	e9cd a301 	strd	sl, r3, [sp, #4]
 80092cc:	ab09      	add	r3, sp, #36	@ 0x24
 80092ce:	9300      	str	r3, [sp, #0]
 80092d0:	6861      	ldr	r1, [r4, #4]
 80092d2:	ec49 8b10 	vmov	d0, r8, r9
 80092d6:	f10d 0323 	add.w	r3, sp, #35	@ 0x23
 80092da:	4628      	mov	r0, r5
 80092dc:	f7ff fed6 	bl	800908c <__cvt>
 80092e0:	9b06      	ldr	r3, [sp, #24]
 80092e2:	9909      	ldr	r1, [sp, #36]	@ 0x24
 80092e4:	2b47      	cmp	r3, #71	@ 0x47
 80092e6:	4680      	mov	r8, r0
 80092e8:	d129      	bne.n	800933e <_printf_float+0x172>
 80092ea:	1cc8      	adds	r0, r1, #3
 80092ec:	db02      	blt.n	80092f4 <_printf_float+0x128>
 80092ee:	6863      	ldr	r3, [r4, #4]
 80092f0:	4299      	cmp	r1, r3
 80092f2:	dd41      	ble.n	8009378 <_printf_float+0x1ac>
 80092f4:	f1aa 0a02 	sub.w	sl, sl, #2
 80092f8:	fa5f fa8a 	uxtb.w	sl, sl
 80092fc:	3901      	subs	r1, #1
 80092fe:	4652      	mov	r2, sl
 8009300:	f104 0050 	add.w	r0, r4, #80	@ 0x50
 8009304:	9109      	str	r1, [sp, #36]	@ 0x24
 8009306:	f7ff ff26 	bl	8009156 <__exponent>
 800930a:	9a0a      	ldr	r2, [sp, #40]	@ 0x28
 800930c:	1813      	adds	r3, r2, r0
 800930e:	2a01      	cmp	r2, #1
 8009310:	4681      	mov	r9, r0
 8009312:	6123      	str	r3, [r4, #16]
 8009314:	dc02      	bgt.n	800931c <_printf_float+0x150>
 8009316:	6822      	ldr	r2, [r4, #0]
 8009318:	07d2      	lsls	r2, r2, #31
 800931a:	d501      	bpl.n	8009320 <_printf_float+0x154>
 800931c:	3301      	adds	r3, #1
 800931e:	6123      	str	r3, [r4, #16]
 8009320:	f89d 3023 	ldrb.w	r3, [sp, #35]	@ 0x23
 8009324:	2b00      	cmp	r3, #0
 8009326:	d0a2      	beq.n	800926e <_printf_float+0xa2>
 8009328:	232d      	movs	r3, #45	@ 0x2d
 800932a:	f884 3043 	strb.w	r3, [r4, #67]	@ 0x43
 800932e:	e79e      	b.n	800926e <_printf_float+0xa2>
 8009330:	9a06      	ldr	r2, [sp, #24]
 8009332:	2a47      	cmp	r2, #71	@ 0x47
 8009334:	d1c2      	bne.n	80092bc <_printf_float+0xf0>
 8009336:	2b00      	cmp	r3, #0
 8009338:	d1c0      	bne.n	80092bc <_printf_float+0xf0>
 800933a:	2301      	movs	r3, #1
 800933c:	e7bd      	b.n	80092ba <_printf_float+0xee>
 800933e:	f1ba 0f65 	cmp.w	sl, #101	@ 0x65
 8009342:	d9db      	bls.n	80092fc <_printf_float+0x130>
 8009344:	f1ba 0f66 	cmp.w	sl, #102	@ 0x66
 8009348:	d118      	bne.n	800937c <_printf_float+0x1b0>
 800934a:	2900      	cmp	r1, #0
 800934c:	6863      	ldr	r3, [r4, #4]
 800934e:	dd0b      	ble.n	8009368 <_printf_float+0x19c>
 8009350:	6121      	str	r1, [r4, #16]
 8009352:	b913      	cbnz	r3, 800935a <_printf_float+0x18e>
 8009354:	6822      	ldr	r2, [r4, #0]
 8009356:	07d0      	lsls	r0, r2, #31
 8009358:	d502      	bpl.n	8009360 <_printf_float+0x194>
 800935a:	3301      	adds	r3, #1
 800935c:	440b      	add	r3, r1
 800935e:	6123      	str	r3, [r4, #16]
 8009360:	65a1      	str	r1, [r4, #88]	@ 0x58
 8009362:	f04f 0900 	mov.w	r9, #0
 8009366:	e7db      	b.n	8009320 <_printf_float+0x154>
 8009368:	b913      	cbnz	r3, 8009370 <_printf_float+0x1a4>
 800936a:	6822      	ldr	r2, [r4, #0]
 800936c:	07d2      	lsls	r2, r2, #31
 800936e:	d501      	bpl.n	8009374 <_printf_float+0x1a8>
 8009370:	3302      	adds	r3, #2
 8009372:	e7f4      	b.n	800935e <_printf_float+0x192>
 8009374:	2301      	movs	r3, #1
 8009376:	e7f2      	b.n	800935e <_printf_float+0x192>
 8009378:	f04f 0a67 	mov.w	sl, #103	@ 0x67
 800937c:	9b0a      	ldr	r3, [sp, #40]	@ 0x28
 800937e:	4299      	cmp	r1, r3
 8009380:	db05      	blt.n	800938e <_printf_float+0x1c2>
 8009382:	6823      	ldr	r3, [r4, #0]
 8009384:	6121      	str	r1, [r4, #16]
 8009386:	07d8      	lsls	r0, r3, #31
 8009388:	d5ea      	bpl.n	8009360 <_printf_float+0x194>
 800938a:	1c4b      	adds	r3, r1, #1
 800938c:	e7e7      	b.n	800935e <_printf_float+0x192>
 800938e:	2900      	cmp	r1, #0
 8009390:	bfd4      	ite	le
 8009392:	f1c1 0202 	rsble	r2, r1, #2
 8009396:	2201      	movgt	r2, #1
 8009398:	4413      	add	r3, r2
 800939a:	e7e0      	b.n	800935e <_printf_float+0x192>
 800939c:	6823      	ldr	r3, [r4, #0]
 800939e:	055a      	lsls	r2, r3, #21
 80093a0:	d407      	bmi.n	80093b2 <_printf_float+0x1e6>
 80093a2:	6923      	ldr	r3, [r4, #16]
 80093a4:	4642      	mov	r2, r8
 80093a6:	4631      	mov	r1, r6
 80093a8:	4628      	mov	r0, r5
 80093aa:	47b8      	blx	r7
 80093ac:	3001      	adds	r0, #1
 80093ae:	d12b      	bne.n	8009408 <_printf_float+0x23c>
 80093b0:	e767      	b.n	8009282 <_printf_float+0xb6>
 80093b2:	f1ba 0f65 	cmp.w	sl, #101	@ 0x65
 80093b6:	f240 80dd 	bls.w	8009574 <_printf_float+0x3a8>
 80093ba:	e9d4 0112 	ldrd	r0, r1, [r4, #72]	@ 0x48
 80093be:	2200      	movs	r2, #0
 80093c0:	2300      	movs	r3, #0
 80093c2:	f7f7 fb81 	bl	8000ac8 <__aeabi_dcmpeq>
 80093c6:	2800      	cmp	r0, #0
 80093c8:	d033      	beq.n	8009432 <_printf_float+0x266>
 80093ca:	4a37      	ldr	r2, [pc, #220]	@ (80094a8 <_printf_float+0x2dc>)
 80093cc:	2301      	movs	r3, #1
 80093ce:	4631      	mov	r1, r6
 80093d0:	4628      	mov	r0, r5
 80093d2:	47b8      	blx	r7
 80093d4:	3001      	adds	r0, #1
 80093d6:	f43f af54 	beq.w	8009282 <_printf_float+0xb6>
 80093da:	e9dd 3809 	ldrd	r3, r8, [sp, #36]	@ 0x24
 80093de:	4543      	cmp	r3, r8
 80093e0:	db02      	blt.n	80093e8 <_printf_float+0x21c>
 80093e2:	6823      	ldr	r3, [r4, #0]
 80093e4:	07d8      	lsls	r0, r3, #31
 80093e6:	d50f      	bpl.n	8009408 <_printf_float+0x23c>
 80093e8:	e9dd 2304 	ldrd	r2, r3, [sp, #16]
 80093ec:	4631      	mov	r1, r6
 80093ee:	4628      	mov	r0, r5
 80093f0:	47b8      	blx	r7
 80093f2:	3001      	adds	r0, #1
 80093f4:	f43f af45 	beq.w	8009282 <_printf_float+0xb6>
 80093f8:	f04f 0900 	mov.w	r9, #0
 80093fc:	f108 38ff 	add.w	r8, r8, #4294967295
 8009400:	f104 0a1a 	add.w	sl, r4, #26
 8009404:	45c8      	cmp	r8, r9
 8009406:	dc09      	bgt.n	800941c <_printf_float+0x250>
 8009408:	6823      	ldr	r3, [r4, #0]
 800940a:	079b      	lsls	r3, r3, #30
 800940c:	f100 8103 	bmi.w	8009616 <_printf_float+0x44a>
 8009410:	68e0      	ldr	r0, [r4, #12]
 8009412:	9b0b      	ldr	r3, [sp, #44]	@ 0x2c
 8009414:	4298      	cmp	r0, r3
 8009416:	bfb8      	it	lt
 8009418:	4618      	movlt	r0, r3
 800941a:	e734      	b.n	8009286 <_printf_float+0xba>
 800941c:	2301      	movs	r3, #1
 800941e:	4652      	mov	r2, sl
 8009420:	4631      	mov	r1, r6
 8009422:	4628      	mov	r0, r5
 8009424:	47b8      	blx	r7
 8009426:	3001      	adds	r0, #1
 8009428:	f43f af2b 	beq.w	8009282 <_printf_float+0xb6>
 800942c:	f109 0901 	add.w	r9, r9, #1
 8009430:	e7e8      	b.n	8009404 <_printf_float+0x238>
 8009432:	9b09      	ldr	r3, [sp, #36]	@ 0x24
 8009434:	2b00      	cmp	r3, #0
 8009436:	dc39      	bgt.n	80094ac <_printf_float+0x2e0>
 8009438:	4a1b      	ldr	r2, [pc, #108]	@ (80094a8 <_printf_float+0x2dc>)
 800943a:	2301      	movs	r3, #1
 800943c:	4631      	mov	r1, r6
 800943e:	4628      	mov	r0, r5
 8009440:	47b8      	blx	r7
 8009442:	3001      	adds	r0, #1
 8009444:	f43f af1d 	beq.w	8009282 <_printf_float+0xb6>
 8009448:	e9dd 3909 	ldrd	r3, r9, [sp, #36]	@ 0x24
 800944c:	ea59 0303 	orrs.w	r3, r9, r3
 8009450:	d102      	bne.n	8009458 <_printf_float+0x28c>
 8009452:	6823      	ldr	r3, [r4, #0]
 8009454:	07d9      	lsls	r1, r3, #31
 8009456:	d5d7      	bpl.n	8009408 <_printf_float+0x23c>
 8009458:	e9dd 2304 	ldrd	r2, r3, [sp, #16]
 800945c:	4631      	mov	r1, r6
 800945e:	4628      	mov	r0, r5
 8009460:	47b8      	blx	r7
 8009462:	3001      	adds	r0, #1
 8009464:	f43f af0d 	beq.w	8009282 <_printf_float+0xb6>
 8009468:	f04f 0a00 	mov.w	sl, #0
 800946c:	f104 0b1a 	add.w	fp, r4, #26
 8009470:	9b09      	ldr	r3, [sp, #36]	@ 0x24
 8009472:	425b      	negs	r3, r3
 8009474:	4553      	cmp	r3, sl
 8009476:	dc01      	bgt.n	800947c <_printf_float+0x2b0>
 8009478:	464b      	mov	r3, r9
 800947a:	e793      	b.n	80093a4 <_printf_float+0x1d8>
 800947c:	2301      	movs	r3, #1
 800947e:	465a      	mov	r2, fp
 8009480:	4631      	mov	r1, r6
 8009482:	4628      	mov	r0, r5
 8009484:	47b8      	blx	r7
 8009486:	3001      	adds	r0, #1
 8009488:	f43f aefb 	beq.w	8009282 <_printf_float+0xb6>
 800948c:	f10a 0a01 	add.w	sl, sl, #1
 8009490:	e7ee      	b.n	8009470 <_printf_float+0x2a4>
 8009492:	bf00      	nop
 8009494:	7fefffff 	.word	0x7fefffff
 8009498:	0800c939 	.word	0x0800c939
 800949c:	0800c935 	.word	0x0800c935
 80094a0:	0800c941 	.word	0x0800c941
 80094a4:	0800c93d 	.word	0x0800c93d
 80094a8:	0800c945 	.word	0x0800c945
 80094ac:	6da3      	ldr	r3, [r4, #88]	@ 0x58
 80094ae:	f8dd a028 	ldr.w	sl, [sp, #40]	@ 0x28
 80094b2:	4553      	cmp	r3, sl
 80094b4:	bfa8      	it	ge
 80094b6:	4653      	movge	r3, sl
 80094b8:	2b00      	cmp	r3, #0
 80094ba:	4699      	mov	r9, r3
 80094bc:	dc36      	bgt.n	800952c <_printf_float+0x360>
 80094be:	f04f 0b00 	mov.w	fp, #0
 80094c2:	ea29 79e9 	bic.w	r9, r9, r9, asr #31
 80094c6:	f104 021a 	add.w	r2, r4, #26
 80094ca:	6da3      	ldr	r3, [r4, #88]	@ 0x58
 80094cc:	9306      	str	r3, [sp, #24]
 80094ce:	eba3 0309 	sub.w	r3, r3, r9
 80094d2:	455b      	cmp	r3, fp
 80094d4:	dc31      	bgt.n	800953a <_printf_float+0x36e>
 80094d6:	9b09      	ldr	r3, [sp, #36]	@ 0x24
 80094d8:	459a      	cmp	sl, r3
 80094da:	dc3a      	bgt.n	8009552 <_printf_float+0x386>
 80094dc:	6823      	ldr	r3, [r4, #0]
 80094de:	07da      	lsls	r2, r3, #31
 80094e0:	d437      	bmi.n	8009552 <_printf_float+0x386>
 80094e2:	9b09      	ldr	r3, [sp, #36]	@ 0x24
 80094e4:	ebaa 0903 	sub.w	r9, sl, r3
 80094e8:	9b06      	ldr	r3, [sp, #24]
 80094ea:	ebaa 0303 	sub.w	r3, sl, r3
 80094ee:	4599      	cmp	r9, r3
 80094f0:	bfa8      	it	ge
 80094f2:	4699      	movge	r9, r3
 80094f4:	f1b9 0f00 	cmp.w	r9, #0
 80094f8:	dc33      	bgt.n	8009562 <_printf_float+0x396>
 80094fa:	f04f 0800 	mov.w	r8, #0
 80094fe:	ea29 79e9 	bic.w	r9, r9, r9, asr #31
 8009502:	f104 0b1a 	add.w	fp, r4, #26
 8009506:	9b09      	ldr	r3, [sp, #36]	@ 0x24
 8009508:	ebaa 0303 	sub.w	r3, sl, r3
 800950c:	eba3 0309 	sub.w	r3, r3, r9
 8009510:	4543      	cmp	r3, r8
 8009512:	f77f af79 	ble.w	8009408 <_printf_float+0x23c>
 8009516:	2301      	movs	r3, #1
 8009518:	465a      	mov	r2, fp
 800951a:	4631      	mov	r1, r6
 800951c:	4628      	mov	r0, r5
 800951e:	47b8      	blx	r7
 8009520:	3001      	adds	r0, #1
 8009522:	f43f aeae 	beq.w	8009282 <_printf_float+0xb6>
 8009526:	f108 0801 	add.w	r8, r8, #1
 800952a:	e7ec      	b.n	8009506 <_printf_float+0x33a>
 800952c:	4642      	mov	r2, r8
 800952e:	4631      	mov	r1, r6
 8009530:	4628      	mov	r0, r5
 8009532:	47b8      	blx	r7
 8009534:	3001      	adds	r0, #1
 8009536:	d1c2      	bne.n	80094be <_printf_float+0x2f2>
 8009538:	e6a3      	b.n	8009282 <_printf_float+0xb6>
 800953a:	2301      	movs	r3, #1
 800953c:	4631      	mov	r1, r6
 800953e:	4628      	mov	r0, r5
 8009540:	9206      	str	r2, [sp, #24]
 8009542:	47b8      	blx	r7
 8009544:	3001      	adds	r0, #1
 8009546:	f43f ae9c 	beq.w	8009282 <_printf_float+0xb6>
 800954a:	9a06      	ldr	r2, [sp, #24]
 800954c:	f10b 0b01 	add.w	fp, fp, #1
 8009550:	e7bb      	b.n	80094ca <_printf_float+0x2fe>
 8009552:	e9dd 2304 	ldrd	r2, r3, [sp, #16]
 8009556:	4631      	mov	r1, r6
 8009558:	4628      	mov	r0, r5
 800955a:	47b8      	blx	r7
 800955c:	3001      	adds	r0, #1
 800955e:	d1c0      	bne.n	80094e2 <_printf_float+0x316>
 8009560:	e68f      	b.n	8009282 <_printf_float+0xb6>
 8009562:	9a06      	ldr	r2, [sp, #24]
 8009564:	464b      	mov	r3, r9
 8009566:	4442      	add	r2, r8
 8009568:	4631      	mov	r1, r6
 800956a:	4628      	mov	r0, r5
 800956c:	47b8      	blx	r7
 800956e:	3001      	adds	r0, #1
 8009570:	d1c3      	bne.n	80094fa <_printf_float+0x32e>
 8009572:	e686      	b.n	8009282 <_printf_float+0xb6>
 8009574:	f8dd a028 	ldr.w	sl, [sp, #40]	@ 0x28
 8009578:	f1ba 0f01 	cmp.w	sl, #1
 800957c:	dc01      	bgt.n	8009582 <_printf_float+0x3b6>
 800957e:	07db      	lsls	r3, r3, #31
 8009580:	d536      	bpl.n	80095f0 <_printf_float+0x424>
 8009582:	2301      	movs	r3, #1
 8009584:	4642      	mov	r2, r8
 8009586:	4631      	mov	r1, r6
 8009588:	4628      	mov	r0, r5
 800958a:	47b8      	blx	r7
 800958c:	3001      	adds	r0, #1
 800958e:	f43f ae78 	beq.w	8009282 <_printf_float+0xb6>
 8009592:	e9dd 2304 	ldrd	r2, r3, [sp, #16]
 8009596:	4631      	mov	r1, r6
 8009598:	4628      	mov	r0, r5
 800959a:	47b8      	blx	r7
 800959c:	3001      	adds	r0, #1
 800959e:	f43f ae70 	beq.w	8009282 <_printf_float+0xb6>
 80095a2:	e9d4 0112 	ldrd	r0, r1, [r4, #72]	@ 0x48
 80095a6:	2200      	movs	r2, #0
 80095a8:	2300      	movs	r3, #0
 80095aa:	f10a 3aff 	add.w	sl, sl, #4294967295
 80095ae:	f7f7 fa8b 	bl	8000ac8 <__aeabi_dcmpeq>
 80095b2:	b9c0      	cbnz	r0, 80095e6 <_printf_float+0x41a>
 80095b4:	4653      	mov	r3, sl
 80095b6:	f108 0201 	add.w	r2, r8, #1
 80095ba:	4631      	mov	r1, r6
 80095bc:	4628      	mov	r0, r5
 80095be:	47b8      	blx	r7
 80095c0:	3001      	adds	r0, #1
 80095c2:	d10c      	bne.n	80095de <_printf_float+0x412>
 80095c4:	e65d      	b.n	8009282 <_printf_float+0xb6>
 80095c6:	2301      	movs	r3, #1
 80095c8:	465a      	mov	r2, fp
 80095ca:	4631      	mov	r1, r6
 80095cc:	4628      	mov	r0, r5
 80095ce:	47b8      	blx	r7
 80095d0:	3001      	adds	r0, #1
 80095d2:	f43f ae56 	beq.w	8009282 <_printf_float+0xb6>
 80095d6:	f108 0801 	add.w	r8, r8, #1
 80095da:	45d0      	cmp	r8, sl
 80095dc:	dbf3      	blt.n	80095c6 <_printf_float+0x3fa>
 80095de:	464b      	mov	r3, r9
 80095e0:	f104 0250 	add.w	r2, r4, #80	@ 0x50
 80095e4:	e6df      	b.n	80093a6 <_printf_float+0x1da>
 80095e6:	f04f 0800 	mov.w	r8, #0
 80095ea:	f104 0b1a 	add.w	fp, r4, #26
 80095ee:	e7f4      	b.n	80095da <_printf_float+0x40e>
 80095f0:	2301      	movs	r3, #1
 80095f2:	4642      	mov	r2, r8
 80095f4:	e7e1      	b.n	80095ba <_printf_float+0x3ee>
 80095f6:	2301      	movs	r3, #1
 80095f8:	464a      	mov	r2, r9
 80095fa:	4631      	mov	r1, r6
 80095fc:	4628      	mov	r0, r5
 80095fe:	47b8      	blx	r7
 8009600:	3001      	adds	r0, #1
 8009602:	f43f ae3e 	beq.w	8009282 <_printf_float+0xb6>
 8009606:	f108 0801 	add.w	r8, r8, #1
 800960a:	68e3      	ldr	r3, [r4, #12]
 800960c:	990b      	ldr	r1, [sp, #44]	@ 0x2c
 800960e:	1a5b      	subs	r3, r3, r1
 8009610:	4543      	cmp	r3, r8
 8009612:	dcf0      	bgt.n	80095f6 <_printf_float+0x42a>
 8009614:	e6fc      	b.n	8009410 <_printf_float+0x244>
 8009616:	f04f 0800 	mov.w	r8, #0
 800961a:	f104 0919 	add.w	r9, r4, #25
 800961e:	e7f4      	b.n	800960a <_printf_float+0x43e>

08009620 <_printf_common>:
 8009620:	e92d 47f0 	stmdb	sp!, {r4, r5, r6, r7, r8, r9, sl, lr}
 8009624:	4616      	mov	r6, r2
 8009626:	4698      	mov	r8, r3
 8009628:	688a      	ldr	r2, [r1, #8]
 800962a:	690b      	ldr	r3, [r1, #16]
 800962c:	f8dd 9020 	ldr.w	r9, [sp, #32]
 8009630:	4293      	cmp	r3, r2
 8009632:	bfb8      	it	lt
 8009634:	4613      	movlt	r3, r2
 8009636:	6033      	str	r3, [r6, #0]
 8009638:	f891 2043 	ldrb.w	r2, [r1, #67]	@ 0x43
 800963c:	4607      	mov	r7, r0
 800963e:	460c      	mov	r4, r1
 8009640:	b10a      	cbz	r2, 8009646 <_printf_common+0x26>
 8009642:	3301      	adds	r3, #1
 8009644:	6033      	str	r3, [r6, #0]
 8009646:	6823      	ldr	r3, [r4, #0]
 8009648:	0699      	lsls	r1, r3, #26
 800964a:	bf42      	ittt	mi
 800964c:	6833      	ldrmi	r3, [r6, #0]
 800964e:	3302      	addmi	r3, #2
 8009650:	6033      	strmi	r3, [r6, #0]
 8009652:	6825      	ldr	r5, [r4, #0]
 8009654:	f015 0506 	ands.w	r5, r5, #6
 8009658:	d106      	bne.n	8009668 <_printf_common+0x48>
 800965a:	f104 0a19 	add.w	sl, r4, #25
 800965e:	68e3      	ldr	r3, [r4, #12]
 8009660:	6832      	ldr	r2, [r6, #0]
 8009662:	1a9b      	subs	r3, r3, r2
 8009664:	42ab      	cmp	r3, r5
 8009666:	dc26      	bgt.n	80096b6 <_printf_common+0x96>
 8009668:	f894 3043 	ldrb.w	r3, [r4, #67]	@ 0x43
 800966c:	6822      	ldr	r2, [r4, #0]
 800966e:	3b00      	subs	r3, #0
 8009670:	bf18      	it	ne
 8009672:	2301      	movne	r3, #1
 8009674:	0692      	lsls	r2, r2, #26
 8009676:	d42b      	bmi.n	80096d0 <_printf_common+0xb0>
 8009678:	f104 0243 	add.w	r2, r4, #67	@ 0x43
 800967c:	4641      	mov	r1, r8
 800967e:	4638      	mov	r0, r7
 8009680:	47c8      	blx	r9
 8009682:	3001      	adds	r0, #1
 8009684:	d01e      	beq.n	80096c4 <_printf_common+0xa4>
 8009686:	6823      	ldr	r3, [r4, #0]
 8009688:	6922      	ldr	r2, [r4, #16]
 800968a:	f003 0306 	and.w	r3, r3, #6
 800968e:	2b04      	cmp	r3, #4
 8009690:	bf02      	ittt	eq
 8009692:	68e5      	ldreq	r5, [r4, #12]
 8009694:	6833      	ldreq	r3, [r6, #0]
 8009696:	1aed      	subeq	r5, r5, r3
 8009698:	68a3      	ldr	r3, [r4, #8]
 800969a:	bf0c      	ite	eq
 800969c:	ea25 75e5 	biceq.w	r5, r5, r5, asr #31
 80096a0:	2500      	movne	r5, #0
 80096a2:	4293      	cmp	r3, r2
 80096a4:	bfc4      	itt	gt
 80096a6:	1a9b      	subgt	r3, r3, r2
 80096a8:	18ed      	addgt	r5, r5, r3
 80096aa:	2600      	movs	r6, #0
 80096ac:	341a      	adds	r4, #26
 80096ae:	42b5      	cmp	r5, r6
 80096b0:	d11a      	bne.n	80096e8 <_printf_common+0xc8>
 80096b2:	2000      	movs	r0, #0
 80096b4:	e008      	b.n	80096c8 <_printf_common+0xa8>
 80096b6:	2301      	movs	r3, #1
 80096b8:	4652      	mov	r2, sl
 80096ba:	4641      	mov	r1, r8
 80096bc:	4638      	mov	r0, r7
 80096be:	47c8      	blx	r9
 80096c0:	3001      	adds	r0, #1
 80096c2:	d103      	bne.n	80096cc <_printf_common+0xac>
 80096c4:	f04f 30ff 	mov.w	r0, #4294967295
 80096c8:	e8bd 87f0 	ldmia.w	sp!, {r4, r5, r6, r7, r8, r9, sl, pc}
 80096cc:	3501      	adds	r5, #1
 80096ce:	e7c6      	b.n	800965e <_printf_common+0x3e>
 80096d0:	18e1      	adds	r1, r4, r3
 80096d2:	1c5a      	adds	r2, r3, #1
 80096d4:	2030      	movs	r0, #48	@ 0x30
 80096d6:	f881 0043 	strb.w	r0, [r1, #67]	@ 0x43
 80096da:	4422      	add	r2, r4
 80096dc:	f894 1045 	ldrb.w	r1, [r4, #69]	@ 0x45
 80096e0:	f882 1043 	strb.w	r1, [r2, #67]	@ 0x43
 80096e4:	3302      	adds	r3, #2
 80096e6:	e7c7      	b.n	8009678 <_printf_common+0x58>
 80096e8:	2301      	movs	r3, #1
 80096ea:	4622      	mov	r2, r4
 80096ec:	4641      	mov	r1, r8
 80096ee:	4638      	mov	r0, r7
 80096f0:	47c8      	blx	r9
 80096f2:	3001      	adds	r0, #1
 80096f4:	d0e6      	beq.n	80096c4 <_printf_common+0xa4>
 80096f6:	3601      	adds	r6, #1
 80096f8:	e7d9      	b.n	80096ae <_printf_common+0x8e>
	...

080096fc <_printf_i>:
 80096fc:	e92d 47ff 	stmdb	sp!, {r0, r1, r2, r3, r4, r5, r6, r7, r8, r9, sl, lr}
 8009700:	7e0f      	ldrb	r7, [r1, #24]
 8009702:	9e0c      	ldr	r6, [sp, #48]	@ 0x30
 8009704:	2f78      	cmp	r7, #120	@ 0x78
 8009706:	4691      	mov	r9, r2
 8009708:	4680      	mov	r8, r0
 800970a:	460c      	mov	r4, r1
 800970c:	469a      	mov	sl, r3
 800970e:	f101 0243 	add.w	r2, r1, #67	@ 0x43
 8009712:	d807      	bhi.n	8009724 <_printf_i+0x28>
 8009714:	2f62      	cmp	r7, #98	@ 0x62
 8009716:	d80a      	bhi.n	800972e <_printf_i+0x32>
 8009718:	2f00      	cmp	r7, #0
 800971a:	f000 80d1 	beq.w	80098c0 <_printf_i+0x1c4>
 800971e:	2f58      	cmp	r7, #88	@ 0x58
 8009720:	f000 80b8 	beq.w	8009894 <_printf_i+0x198>
 8009724:	f104 0642 	add.w	r6, r4, #66	@ 0x42
 8009728:	f884 7042 	strb.w	r7, [r4, #66]	@ 0x42
 800972c:	e03a      	b.n	80097a4 <_printf_i+0xa8>
 800972e:	f1a7 0363 	sub.w	r3, r7, #99	@ 0x63
 8009732:	2b15      	cmp	r3, #21
 8009734:	d8f6      	bhi.n	8009724 <_printf_i+0x28>
 8009736:	a101      	add	r1, pc, #4	@ (adr r1, 800973c <_printf_i+0x40>)
 8009738:	f851 f023 	ldr.w	pc, [r1, r3, lsl #2]
 800973c:	08009795 	.word	0x08009795
 8009740:	080097a9 	.word	0x080097a9
 8009744:	08009725 	.word	0x08009725
 8009748:	08009725 	.word	0x08009725
 800974c:	08009725 	.word	0x08009725
 8009750:	08009725 	.word	0x08009725
 8009754:	080097a9 	.word	0x080097a9
 8009758:	08009725 	.word	0x08009725
 800975c:	08009725 	.word	0x08009725
 8009760:	08009725 	.word	0x08009725
 8009764:	08009725 	.word	0x08009725
 8009768:	080098a7 	.word	0x080098a7
 800976c:	080097d3 	.word	0x080097d3
 8009770:	08009861 	.word	0x08009861
 8009774:	08009725 	.word	0x08009725
 8009778:	08009725 	.word	0x08009725
 800977c:	080098c9 	.word	0x080098c9
 8009780:	08009725 	.word	0x08009725
 8009784:	080097d3 	.word	0x080097d3
 8009788:	08009725 	.word	0x08009725
 800978c:	08009725 	.word	0x08009725
 8009790:	08009869 	.word	0x08009869
 8009794:	6833      	ldr	r3, [r6, #0]
 8009796:	1d1a      	adds	r2, r3, #4
 8009798:	681b      	ldr	r3, [r3, #0]
 800979a:	6032      	str	r2, [r6, #0]
 800979c:	f104 0642 	add.w	r6, r4, #66	@ 0x42
 80097a0:	f884 3042 	strb.w	r3, [r4, #66]	@ 0x42
 80097a4:	2301      	movs	r3, #1
 80097a6:	e09c      	b.n	80098e2 <_printf_i+0x1e6>
 80097a8:	6833      	ldr	r3, [r6, #0]
 80097aa:	6820      	ldr	r0, [r4, #0]
 80097ac:	1d19      	adds	r1, r3, #4
 80097ae:	6031      	str	r1, [r6, #0]
 80097b0:	0606      	lsls	r6, r0, #24
 80097b2:	d501      	bpl.n	80097b8 <_printf_i+0xbc>
 80097b4:	681d      	ldr	r5, [r3, #0]
 80097b6:	e003      	b.n	80097c0 <_printf_i+0xc4>
 80097b8:	0645      	lsls	r5, r0, #25
 80097ba:	d5fb      	bpl.n	80097b4 <_printf_i+0xb8>
 80097bc:	f9b3 5000 	ldrsh.w	r5, [r3]
 80097c0:	2d00      	cmp	r5, #0
 80097c2:	da03      	bge.n	80097cc <_printf_i+0xd0>
 80097c4:	232d      	movs	r3, #45	@ 0x2d
 80097c6:	426d      	negs	r5, r5
 80097c8:	f884 3043 	strb.w	r3, [r4, #67]	@ 0x43
 80097cc:	4858      	ldr	r0, [pc, #352]	@ (8009930 <_printf_i+0x234>)
 80097ce:	230a      	movs	r3, #10
 80097d0:	e011      	b.n	80097f6 <_printf_i+0xfa>
 80097d2:	6821      	ldr	r1, [r4, #0]
 80097d4:	6833      	ldr	r3, [r6, #0]
 80097d6:	0608      	lsls	r0, r1, #24
 80097d8:	f853 5b04 	ldr.w	r5, [r3], #4
 80097dc:	d402      	bmi.n	80097e4 <_printf_i+0xe8>
 80097de:	0649      	lsls	r1, r1, #25
 80097e0:	bf48      	it	mi
 80097e2:	b2ad      	uxthmi	r5, r5
 80097e4:	2f6f      	cmp	r7, #111	@ 0x6f
 80097e6:	4852      	ldr	r0, [pc, #328]	@ (8009930 <_printf_i+0x234>)
 80097e8:	6033      	str	r3, [r6, #0]
 80097ea:	bf14      	ite	ne
 80097ec:	230a      	movne	r3, #10
 80097ee:	2308      	moveq	r3, #8
 80097f0:	2100      	movs	r1, #0
 80097f2:	f884 1043 	strb.w	r1, [r4, #67]	@ 0x43
 80097f6:	6866      	ldr	r6, [r4, #4]
 80097f8:	60a6      	str	r6, [r4, #8]
 80097fa:	2e00      	cmp	r6, #0
 80097fc:	db05      	blt.n	800980a <_printf_i+0x10e>
 80097fe:	6821      	ldr	r1, [r4, #0]
 8009800:	432e      	orrs	r6, r5
 8009802:	f021 0104 	bic.w	r1, r1, #4
 8009806:	6021      	str	r1, [r4, #0]
 8009808:	d04b      	beq.n	80098a2 <_printf_i+0x1a6>
 800980a:	4616      	mov	r6, r2
 800980c:	fbb5 f1f3 	udiv	r1, r5, r3
 8009810:	fb03 5711 	mls	r7, r3, r1, r5
 8009814:	5dc7      	ldrb	r7, [r0, r7]
 8009816:	f806 7d01 	strb.w	r7, [r6, #-1]!
 800981a:	462f      	mov	r7, r5
 800981c:	42bb      	cmp	r3, r7
 800981e:	460d      	mov	r5, r1
 8009820:	d9f4      	bls.n	800980c <_printf_i+0x110>
 8009822:	2b08      	cmp	r3, #8
 8009824:	d10b      	bne.n	800983e <_printf_i+0x142>
 8009826:	6823      	ldr	r3, [r4, #0]
 8009828:	07df      	lsls	r7, r3, #31
 800982a:	d508      	bpl.n	800983e <_printf_i+0x142>
 800982c:	6923      	ldr	r3, [r4, #16]
 800982e:	6861      	ldr	r1, [r4, #4]
 8009830:	4299      	cmp	r1, r3
 8009832:	bfde      	ittt	le
 8009834:	2330      	movle	r3, #48	@ 0x30
 8009836:	f806 3c01 	strble.w	r3, [r6, #-1]
 800983a:	f106 36ff 	addle.w	r6, r6, #4294967295
 800983e:	1b92      	subs	r2, r2, r6
 8009840:	6122      	str	r2, [r4, #16]
 8009842:	f8cd a000 	str.w	sl, [sp]
 8009846:	464b      	mov	r3, r9
 8009848:	aa03      	add	r2, sp, #12
 800984a:	4621      	mov	r1, r4
 800984c:	4640      	mov	r0, r8
 800984e:	f7ff fee7 	bl	8009620 <_printf_common>
 8009852:	3001      	adds	r0, #1
 8009854:	d14a      	bne.n	80098ec <_printf_i+0x1f0>
 8009856:	f04f 30ff 	mov.w	r0, #4294967295
 800985a:	b004      	add	sp, #16
 800985c:	e8bd 87f0 	ldmia.w	sp!, {r4, r5, r6, r7, r8, r9, sl, pc}
 8009860:	6823      	ldr	r3, [r4, #0]
 8009862:	f043 0320 	orr.w	r3, r3, #32
 8009866:	6023      	str	r3, [r4, #0]
 8009868:	4832      	ldr	r0, [pc, #200]	@ (8009934 <_printf_i+0x238>)
 800986a:	2778      	movs	r7, #120	@ 0x78
 800986c:	f884 7045 	strb.w	r7, [r4, #69]	@ 0x45
 8009870:	6823      	ldr	r3, [r4, #0]
 8009872:	6831      	ldr	r1, [r6, #0]
 8009874:	061f      	lsls	r7, r3, #24
 8009876:	f851 5b04 	ldr.w	r5, [r1], #4
 800987a:	d402      	bmi.n	8009882 <_printf_i+0x186>
 800987c:	065f      	lsls	r7, r3, #25
 800987e:	bf48      	it	mi
 8009880:	b2ad      	uxthmi	r5, r5
 8009882:	6031      	str	r1, [r6, #0]
 8009884:	07d9      	lsls	r1, r3, #31
 8009886:	bf44      	itt	mi
 8009888:	f043 0320 	orrmi.w	r3, r3, #32
 800988c:	6023      	strmi	r3, [r4, #0]
 800988e:	b11d      	cbz	r5, 8009898 <_printf_i+0x19c>
 8009890:	2310      	movs	r3, #16
 8009892:	e7ad      	b.n	80097f0 <_printf_i+0xf4>
 8009894:	4826      	ldr	r0, [pc, #152]	@ (8009930 <_printf_i+0x234>)
 8009896:	e7e9      	b.n	800986c <_printf_i+0x170>
 8009898:	6823      	ldr	r3, [r4, #0]
 800989a:	f023 0320 	bic.w	r3, r3, #32
 800989e:	6023      	str	r3, [r4, #0]
 80098a0:	e7f6      	b.n	8009890 <_printf_i+0x194>
 80098a2:	4616      	mov	r6, r2
 80098a4:	e7bd      	b.n	8009822 <_printf_i+0x126>
 80098a6:	6833      	ldr	r3, [r6, #0]
 80098a8:	6825      	ldr	r5, [r4, #0]
 80098aa:	6961      	ldr	r1, [r4, #20]
 80098ac:	1d18      	adds	r0, r3, #4
 80098ae:	6030      	str	r0, [r6, #0]
 80098b0:	062e      	lsls	r6, r5, #24
 80098b2:	681b      	ldr	r3, [r3, #0]
 80098b4:	d501      	bpl.n	80098ba <_printf_i+0x1be>
 80098b6:	6019      	str	r1, [r3, #0]
 80098b8:	e002      	b.n	80098c0 <_printf_i+0x1c4>
 80098ba:	0668      	lsls	r0, r5, #25
 80098bc:	d5fb      	bpl.n	80098b6 <_printf_i+0x1ba>
 80098be:	8019      	strh	r1, [r3, #0]
 80098c0:	2300      	movs	r3, #0
 80098c2:	6123      	str	r3, [r4, #16]
 80098c4:	4616      	mov	r6, r2
 80098c6:	e7bc      	b.n	8009842 <_printf_i+0x146>
 80098c8:	6833      	ldr	r3, [r6, #0]
 80098ca:	1d1a      	adds	r2, r3, #4
 80098cc:	6032      	str	r2, [r6, #0]
 80098ce:	681e      	ldr	r6, [r3, #0]
 80098d0:	6862      	ldr	r2, [r4, #4]
 80098d2:	2100      	movs	r1, #0
 80098d4:	4630      	mov	r0, r6
 80098d6:	f7f6 fc7b 	bl	80001d0 <memchr>
 80098da:	b108      	cbz	r0, 80098e0 <_printf_i+0x1e4>
 80098dc:	1b80      	subs	r0, r0, r6
 80098de:	6060      	str	r0, [r4, #4]
 80098e0:	6863      	ldr	r3, [r4, #4]
 80098e2:	6123      	str	r3, [r4, #16]
 80098e4:	2300      	movs	r3, #0
 80098e6:	f884 3043 	strb.w	r3, [r4, #67]	@ 0x43
 80098ea:	e7aa      	b.n	8009842 <_printf_i+0x146>
 80098ec:	6923      	ldr	r3, [r4, #16]
 80098ee:	4632      	mov	r2, r6
 80098f0:	4649      	mov	r1, r9
 80098f2:	4640      	mov	r0, r8
 80098f4:	47d0      	blx	sl
 80098f6:	3001      	adds	r0, #1
 80098f8:	d0ad      	beq.n	8009856 <_printf_i+0x15a>
 80098fa:	6823      	ldr	r3, [r4, #0]
 80098fc:	079b      	lsls	r3, r3, #30
 80098fe:	d413      	bmi.n	8009928 <_printf_i+0x22c>
 8009900:	68e0      	ldr	r0, [r4, #12]
 8009902:	9b03      	ldr	r3, [sp, #12]
 8009904:	4298      	cmp	r0, r3
 8009906:	bfb8      	it	lt
 8009908:	4618      	movlt	r0, r3
 800990a:	e7a6      	b.n	800985a <_printf_i+0x15e>
 800990c:	2301      	movs	r3, #1
 800990e:	4632      	mov	r2, r6
 8009910:	4649      	mov	r1, r9
 8009912:	4640      	mov	r0, r8
 8009914:	47d0      	blx	sl
 8009916:	3001      	adds	r0, #1
 8009918:	d09d      	beq.n	8009856 <_printf_i+0x15a>
 800991a:	3501      	adds	r5, #1
 800991c:	68e3      	ldr	r3, [r4, #12]
 800991e:	9903      	ldr	r1, [sp, #12]
 8009920:	1a5b      	subs	r3, r3, r1
 8009922:	42ab      	cmp	r3, r5
 8009924:	dcf2      	bgt.n	800990c <_printf_i+0x210>
 8009926:	e7eb      	b.n	8009900 <_printf_i+0x204>
 8009928:	2500      	movs	r5, #0
 800992a:	f104 0619 	add.w	r6, r4, #25
 800992e:	e7f5      	b.n	800991c <_printf_i+0x220>
 8009930:	0800c947 	.word	0x0800c947
 8009934:	0800c958 	.word	0x0800c958

08009938 <_scanf_float>:
 8009938:	e92d 4ff0 	stmdb	sp!, {r4, r5, r6, r7, r8, r9, sl, fp, lr}
 800993c:	b087      	sub	sp, #28
 800993e:	4691      	mov	r9, r2
 8009940:	9303      	str	r3, [sp, #12]
 8009942:	688b      	ldr	r3, [r1, #8]
 8009944:	1e5a      	subs	r2, r3, #1
 8009946:	f5b2 7fae 	cmp.w	r2, #348	@ 0x15c
 800994a:	bf81      	itttt	hi
 800994c:	f46f 75ae 	mvnhi.w	r5, #348	@ 0x15c
 8009950:	eb03 0b05 	addhi.w	fp, r3, r5
 8009954:	f240 135d 	movwhi	r3, #349	@ 0x15d
 8009958:	608b      	strhi	r3, [r1, #8]
 800995a:	680b      	ldr	r3, [r1, #0]
 800995c:	460a      	mov	r2, r1
 800995e:	f04f 0500 	mov.w	r5, #0
 8009962:	f443 63f0 	orr.w	r3, r3, #1920	@ 0x780
 8009966:	f842 3b1c 	str.w	r3, [r2], #28
 800996a:	e9cd 5504 	strd	r5, r5, [sp, #16]
 800996e:	4680      	mov	r8, r0
 8009970:	460c      	mov	r4, r1
 8009972:	bf98      	it	ls
 8009974:	f04f 0b00 	movls.w	fp, #0
 8009978:	9201      	str	r2, [sp, #4]
 800997a:	4616      	mov	r6, r2
 800997c:	46aa      	mov	sl, r5
 800997e:	462f      	mov	r7, r5
 8009980:	9502      	str	r5, [sp, #8]
 8009982:	68a2      	ldr	r2, [r4, #8]
 8009984:	b15a      	cbz	r2, 800999e <_scanf_float+0x66>
 8009986:	f8d9 3000 	ldr.w	r3, [r9]
 800998a:	781b      	ldrb	r3, [r3, #0]
 800998c:	2b4e      	cmp	r3, #78	@ 0x4e
 800998e:	d863      	bhi.n	8009a58 <_scanf_float+0x120>
 8009990:	2b40      	cmp	r3, #64	@ 0x40
 8009992:	d83b      	bhi.n	8009a0c <_scanf_float+0xd4>
 8009994:	f1a3 012b 	sub.w	r1, r3, #43	@ 0x2b
 8009998:	b2c8      	uxtb	r0, r1
 800999a:	280e      	cmp	r0, #14
 800999c:	d939      	bls.n	8009a12 <_scanf_float+0xda>
 800999e:	b11f      	cbz	r7, 80099a8 <_scanf_float+0x70>
 80099a0:	6823      	ldr	r3, [r4, #0]
 80099a2:	f423 7380 	bic.w	r3, r3, #256	@ 0x100
 80099a6:	6023      	str	r3, [r4, #0]
 80099a8:	f10a 3aff 	add.w	sl, sl, #4294967295
 80099ac:	f1ba 0f01 	cmp.w	sl, #1
 80099b0:	f200 8114 	bhi.w	8009bdc <_scanf_float+0x2a4>
 80099b4:	9b01      	ldr	r3, [sp, #4]
 80099b6:	429e      	cmp	r6, r3
 80099b8:	f200 8105 	bhi.w	8009bc6 <_scanf_float+0x28e>
 80099bc:	2001      	movs	r0, #1
 80099be:	b007      	add	sp, #28
 80099c0:	e8bd 8ff0 	ldmia.w	sp!, {r4, r5, r6, r7, r8, r9, sl, fp, pc}
 80099c4:	f1a3 0261 	sub.w	r2, r3, #97	@ 0x61
 80099c8:	2a0d      	cmp	r2, #13
 80099ca:	d8e8      	bhi.n	800999e <_scanf_float+0x66>
 80099cc:	a101      	add	r1, pc, #4	@ (adr r1, 80099d4 <_scanf_float+0x9c>)
 80099ce:	f851 f022 	ldr.w	pc, [r1, r2, lsl #2]
 80099d2:	bf00      	nop
 80099d4:	08009b1d 	.word	0x08009b1d
 80099d8:	0800999f 	.word	0x0800999f
 80099dc:	0800999f 	.word	0x0800999f
 80099e0:	0800999f 	.word	0x0800999f
 80099e4:	08009b79 	.word	0x08009b79
 80099e8:	08009b53 	.word	0x08009b53
 80099ec:	0800999f 	.word	0x0800999f
 80099f0:	0800999f 	.word	0x0800999f
 80099f4:	08009b2b 	.word	0x08009b2b
 80099f8:	0800999f 	.word	0x0800999f
 80099fc:	0800999f 	.word	0x0800999f
 8009a00:	0800999f 	.word	0x0800999f
 8009a04:	0800999f 	.word	0x0800999f
 8009a08:	08009ae7 	.word	0x08009ae7
 8009a0c:	f1a3 0241 	sub.w	r2, r3, #65	@ 0x41
 8009a10:	e7da      	b.n	80099c8 <_scanf_float+0x90>
 8009a12:	290e      	cmp	r1, #14
 8009a14:	d8c3      	bhi.n	800999e <_scanf_float+0x66>
 8009a16:	a001      	add	r0, pc, #4	@ (adr r0, 8009a1c <_scanf_float+0xe4>)
 8009a18:	f850 f021 	ldr.w	pc, [r0, r1, lsl #2]
 8009a1c:	08009ad7 	.word	0x08009ad7
 8009a20:	0800999f 	.word	0x0800999f
 8009a24:	08009ad7 	.word	0x08009ad7
 8009a28:	08009b67 	.word	0x08009b67
 8009a2c:	0800999f 	.word	0x0800999f
 8009a30:	08009a79 	.word	0x08009a79
 8009a34:	08009abd 	.word	0x08009abd
 8009a38:	08009abd 	.word	0x08009abd
 8009a3c:	08009abd 	.word	0x08009abd
 8009a40:	08009abd 	.word	0x08009abd
 8009a44:	08009abd 	.word	0x08009abd
 8009a48:	08009abd 	.word	0x08009abd
 8009a4c:	08009abd 	.word	0x08009abd
 8009a50:	08009abd 	.word	0x08009abd
 8009a54:	08009abd 	.word	0x08009abd
 8009a58:	2b6e      	cmp	r3, #110	@ 0x6e
 8009a5a:	d809      	bhi.n	8009a70 <_scanf_float+0x138>
 8009a5c:	2b60      	cmp	r3, #96	@ 0x60
 8009a5e:	d8b1      	bhi.n	80099c4 <_scanf_float+0x8c>
 8009a60:	2b54      	cmp	r3, #84	@ 0x54
 8009a62:	d07b      	beq.n	8009b5c <_scanf_float+0x224>
 8009a64:	2b59      	cmp	r3, #89	@ 0x59
 8009a66:	d19a      	bne.n	800999e <_scanf_float+0x66>
 8009a68:	2d07      	cmp	r5, #7
 8009a6a:	d198      	bne.n	800999e <_scanf_float+0x66>
 8009a6c:	2508      	movs	r5, #8
 8009a6e:	e02f      	b.n	8009ad0 <_scanf_float+0x198>
 8009a70:	2b74      	cmp	r3, #116	@ 0x74
 8009a72:	d073      	beq.n	8009b5c <_scanf_float+0x224>
 8009a74:	2b79      	cmp	r3, #121	@ 0x79
 8009a76:	e7f6      	b.n	8009a66 <_scanf_float+0x12e>
 8009a78:	6821      	ldr	r1, [r4, #0]
 8009a7a:	05c8      	lsls	r0, r1, #23
 8009a7c:	d51e      	bpl.n	8009abc <_scanf_float+0x184>
 8009a7e:	f021 0180 	bic.w	r1, r1, #128	@ 0x80
 8009a82:	6021      	str	r1, [r4, #0]
 8009a84:	3701      	adds	r7, #1
 8009a86:	f1bb 0f00 	cmp.w	fp, #0
 8009a8a:	d003      	beq.n	8009a94 <_scanf_float+0x15c>
 8009a8c:	3201      	adds	r2, #1
 8009a8e:	f10b 3bff 	add.w	fp, fp, #4294967295
 8009a92:	60a2      	str	r2, [r4, #8]
 8009a94:	68a3      	ldr	r3, [r4, #8]
 8009a96:	3b01      	subs	r3, #1
 8009a98:	60a3      	str	r3, [r4, #8]
 8009a9a:	6923      	ldr	r3, [r4, #16]
 8009a9c:	3301      	adds	r3, #1
 8009a9e:	6123      	str	r3, [r4, #16]
 8009aa0:	f8d9 3004 	ldr.w	r3, [r9, #4]
 8009aa4:	3b01      	subs	r3, #1
 8009aa6:	2b00      	cmp	r3, #0
 8009aa8:	f8c9 3004 	str.w	r3, [r9, #4]
 8009aac:	f340 8082 	ble.w	8009bb4 <_scanf_float+0x27c>
 8009ab0:	f8d9 3000 	ldr.w	r3, [r9]
 8009ab4:	3301      	adds	r3, #1
 8009ab6:	f8c9 3000 	str.w	r3, [r9]
 8009aba:	e762      	b.n	8009982 <_scanf_float+0x4a>
 8009abc:	eb1a 0105 	adds.w	r1, sl, r5
 8009ac0:	f47f af6d 	bne.w	800999e <_scanf_float+0x66>
 8009ac4:	6822      	ldr	r2, [r4, #0]
 8009ac6:	f422 72c0 	bic.w	r2, r2, #384	@ 0x180
 8009aca:	6022      	str	r2, [r4, #0]
 8009acc:	460d      	mov	r5, r1
 8009ace:	468a      	mov	sl, r1
 8009ad0:	f806 3b01 	strb.w	r3, [r6], #1
 8009ad4:	e7de      	b.n	8009a94 <_scanf_float+0x15c>
 8009ad6:	6822      	ldr	r2, [r4, #0]
 8009ad8:	0610      	lsls	r0, r2, #24
 8009ada:	f57f af60 	bpl.w	800999e <_scanf_float+0x66>
 8009ade:	f022 0280 	bic.w	r2, r2, #128	@ 0x80
 8009ae2:	6022      	str	r2, [r4, #0]
 8009ae4:	e7f4      	b.n	8009ad0 <_scanf_float+0x198>
 8009ae6:	f1ba 0f00 	cmp.w	sl, #0
 8009aea:	d10c      	bne.n	8009b06 <_scanf_float+0x1ce>
 8009aec:	b977      	cbnz	r7, 8009b0c <_scanf_float+0x1d4>
 8009aee:	6822      	ldr	r2, [r4, #0]
 8009af0:	f402 61e0 	and.w	r1, r2, #1792	@ 0x700
 8009af4:	f5b1 6fe0 	cmp.w	r1, #1792	@ 0x700
 8009af8:	d108      	bne.n	8009b0c <_scanf_float+0x1d4>
 8009afa:	f422 62f0 	bic.w	r2, r2, #1920	@ 0x780
 8009afe:	6022      	str	r2, [r4, #0]
 8009b00:	f04f 0a01 	mov.w	sl, #1
 8009b04:	e7e4      	b.n	8009ad0 <_scanf_float+0x198>
 8009b06:	f1ba 0f02 	cmp.w	sl, #2
 8009b0a:	d050      	beq.n	8009bae <_scanf_float+0x276>
 8009b0c:	2d01      	cmp	r5, #1
 8009b0e:	d002      	beq.n	8009b16 <_scanf_float+0x1de>
 8009b10:	2d04      	cmp	r5, #4
 8009b12:	f47f af44 	bne.w	800999e <_scanf_float+0x66>
 8009b16:	3501      	adds	r5, #1
 8009b18:	b2ed      	uxtb	r5, r5
 8009b1a:	e7d9      	b.n	8009ad0 <_scanf_float+0x198>
 8009b1c:	f1ba 0f01 	cmp.w	sl, #1
 8009b20:	f47f af3d 	bne.w	800999e <_scanf_float+0x66>
 8009b24:	f04f 0a02 	mov.w	sl, #2
 8009b28:	e7d2      	b.n	8009ad0 <_scanf_float+0x198>
 8009b2a:	b975      	cbnz	r5, 8009b4a <_scanf_float+0x212>
 8009b2c:	2f00      	cmp	r7, #0
 8009b2e:	f47f af37 	bne.w	80099a0 <_scanf_float+0x68>
 8009b32:	6822      	ldr	r2, [r4, #0]
 8009b34:	f402 61e0 	and.w	r1, r2, #1792	@ 0x700
 8009b38:	f5b1 6fe0 	cmp.w	r1, #1792	@ 0x700
 8009b3c:	f040 8103 	bne.w	8009d46 <_scanf_float+0x40e>
 8009b40:	f422 62f0 	bic.w	r2, r2, #1920	@ 0x780
 8009b44:	6022      	str	r2, [r4, #0]
 8009b46:	2501      	movs	r5, #1
 8009b48:	e7c2      	b.n	8009ad0 <_scanf_float+0x198>
 8009b4a:	2d03      	cmp	r5, #3
 8009b4c:	d0e3      	beq.n	8009b16 <_scanf_float+0x1de>
 8009b4e:	2d05      	cmp	r5, #5
 8009b50:	e7df      	b.n	8009b12 <_scanf_float+0x1da>
 8009b52:	2d02      	cmp	r5, #2
 8009b54:	f47f af23 	bne.w	800999e <_scanf_float+0x66>
 8009b58:	2503      	movs	r5, #3
 8009b5a:	e7b9      	b.n	8009ad0 <_scanf_float+0x198>
 8009b5c:	2d06      	cmp	r5, #6
 8009b5e:	f47f af1e 	bne.w	800999e <_scanf_float+0x66>
 8009b62:	2507      	movs	r5, #7
 8009b64:	e7b4      	b.n	8009ad0 <_scanf_float+0x198>
 8009b66:	6822      	ldr	r2, [r4, #0]
 8009b68:	0591      	lsls	r1, r2, #22
 8009b6a:	f57f af18 	bpl.w	800999e <_scanf_float+0x66>
 8009b6e:	f422 7220 	bic.w	r2, r2, #640	@ 0x280
 8009b72:	6022      	str	r2, [r4, #0]
 8009b74:	9702      	str	r7, [sp, #8]
 8009b76:	e7ab      	b.n	8009ad0 <_scanf_float+0x198>
 8009b78:	6822      	ldr	r2, [r4, #0]
 8009b7a:	f402 61a0 	and.w	r1, r2, #1280	@ 0x500
 8009b7e:	f5b1 6f80 	cmp.w	r1, #1024	@ 0x400
 8009b82:	d005      	beq.n	8009b90 <_scanf_float+0x258>
 8009b84:	0550      	lsls	r0, r2, #21
 8009b86:	f57f af0a 	bpl.w	800999e <_scanf_float+0x66>
 8009b8a:	2f00      	cmp	r7, #0
 8009b8c:	f000 80db 	beq.w	8009d46 <_scanf_float+0x40e>
 8009b90:	0591      	lsls	r1, r2, #22
 8009b92:	bf58      	it	pl
 8009b94:	9902      	ldrpl	r1, [sp, #8]
 8009b96:	f422 62f0 	bic.w	r2, r2, #1920	@ 0x780
 8009b9a:	bf58      	it	pl
 8009b9c:	1a79      	subpl	r1, r7, r1
 8009b9e:	f442 72c0 	orr.w	r2, r2, #384	@ 0x180
 8009ba2:	bf58      	it	pl
 8009ba4:	e9cd 1604 	strdpl	r1, r6, [sp, #16]
 8009ba8:	6022      	str	r2, [r4, #0]
 8009baa:	2700      	movs	r7, #0
 8009bac:	e790      	b.n	8009ad0 <_scanf_float+0x198>
 8009bae:	f04f 0a03 	mov.w	sl, #3
 8009bb2:	e78d      	b.n	8009ad0 <_scanf_float+0x198>
 8009bb4:	f8d4 3180 	ldr.w	r3, [r4, #384]	@ 0x180
 8009bb8:	4649      	mov	r1, r9
 8009bba:	4640      	mov	r0, r8
 8009bbc:	4798      	blx	r3
 8009bbe:	2800      	cmp	r0, #0
 8009bc0:	f43f aedf 	beq.w	8009982 <_scanf_float+0x4a>
 8009bc4:	e6eb      	b.n	800999e <_scanf_float+0x66>
 8009bc6:	f8d4 317c 	ldr.w	r3, [r4, #380]	@ 0x17c
 8009bca:	f816 1d01 	ldrb.w	r1, [r6, #-1]!
 8009bce:	464a      	mov	r2, r9
 8009bd0:	4640      	mov	r0, r8
 8009bd2:	4798      	blx	r3
 8009bd4:	6923      	ldr	r3, [r4, #16]
 8009bd6:	3b01      	subs	r3, #1
 8009bd8:	6123      	str	r3, [r4, #16]
 8009bda:	e6eb      	b.n	80099b4 <_scanf_float+0x7c>
 8009bdc:	1e6b      	subs	r3, r5, #1
 8009bde:	2b06      	cmp	r3, #6
 8009be0:	d824      	bhi.n	8009c2c <_scanf_float+0x2f4>
 8009be2:	2d02      	cmp	r5, #2
 8009be4:	d836      	bhi.n	8009c54 <_scanf_float+0x31c>
 8009be6:	9b01      	ldr	r3, [sp, #4]
 8009be8:	429e      	cmp	r6, r3
 8009bea:	f67f aee7 	bls.w	80099bc <_scanf_float+0x84>
 8009bee:	f8d4 317c 	ldr.w	r3, [r4, #380]	@ 0x17c
 8009bf2:	f816 1d01 	ldrb.w	r1, [r6, #-1]!
 8009bf6:	464a      	mov	r2, r9
 8009bf8:	4640      	mov	r0, r8
 8009bfa:	4798      	blx	r3
 8009bfc:	6923      	ldr	r3, [r4, #16]
 8009bfe:	3b01      	subs	r3, #1
 8009c00:	6123      	str	r3, [r4, #16]
 8009c02:	e7f0      	b.n	8009be6 <_scanf_float+0x2ae>
 8009c04:	f8d4 317c 	ldr.w	r3, [r4, #380]	@ 0x17c
 8009c08:	f81b 1d01 	ldrb.w	r1, [fp, #-1]!
 8009c0c:	464a      	mov	r2, r9
 8009c0e:	4640      	mov	r0, r8
 8009c10:	4798      	blx	r3
 8009c12:	6923      	ldr	r3, [r4, #16]
 8009c14:	3b01      	subs	r3, #1
 8009c16:	6123      	str	r3, [r4, #16]
 8009c18:	f10a 3aff 	add.w	sl, sl, #4294967295
 8009c1c:	fa5f fa8a 	uxtb.w	sl, sl
 8009c20:	f1ba 0f02 	cmp.w	sl, #2
 8009c24:	d1ee      	bne.n	8009c04 <_scanf_float+0x2cc>
 8009c26:	3d03      	subs	r5, #3
 8009c28:	b2ed      	uxtb	r5, r5
 8009c2a:	1b76      	subs	r6, r6, r5
 8009c2c:	6823      	ldr	r3, [r4, #0]
 8009c2e:	05da      	lsls	r2, r3, #23
 8009c30:	d530      	bpl.n	8009c94 <_scanf_float+0x35c>
 8009c32:	055b      	lsls	r3, r3, #21
 8009c34:	d511      	bpl.n	8009c5a <_scanf_float+0x322>
 8009c36:	9b01      	ldr	r3, [sp, #4]
 8009c38:	429e      	cmp	r6, r3
 8009c3a:	f67f aebf 	bls.w	80099bc <_scanf_float+0x84>
 8009c3e:	f8d4 317c 	ldr.w	r3, [r4, #380]	@ 0x17c
 8009c42:	f816 1d01 	ldrb.w	r1, [r6, #-1]!
 8009c46:	464a      	mov	r2, r9
 8009c48:	4640      	mov	r0, r8
 8009c4a:	4798      	blx	r3
 8009c4c:	6923      	ldr	r3, [r4, #16]
 8009c4e:	3b01      	subs	r3, #1
 8009c50:	6123      	str	r3, [r4, #16]
 8009c52:	e7f0      	b.n	8009c36 <_scanf_float+0x2fe>
 8009c54:	46aa      	mov	sl, r5
 8009c56:	46b3      	mov	fp, r6
 8009c58:	e7de      	b.n	8009c18 <_scanf_float+0x2e0>
 8009c5a:	f816 1c01 	ldrb.w	r1, [r6, #-1]
 8009c5e:	6923      	ldr	r3, [r4, #16]
 8009c60:	2965      	cmp	r1, #101	@ 0x65
 8009c62:	f103 33ff 	add.w	r3, r3, #4294967295
 8009c66:	f106 35ff 	add.w	r5, r6, #4294967295
 8009c6a:	6123      	str	r3, [r4, #16]
 8009c6c:	d00c      	beq.n	8009c88 <_scanf_float+0x350>
 8009c6e:	2945      	cmp	r1, #69	@ 0x45
 8009c70:	d00a      	beq.n	8009c88 <_scanf_float+0x350>
 8009c72:	f8d4 317c 	ldr.w	r3, [r4, #380]	@ 0x17c
 8009c76:	464a      	mov	r2, r9
 8009c78:	4640      	mov	r0, r8
 8009c7a:	4798      	blx	r3
 8009c7c:	6923      	ldr	r3, [r4, #16]
 8009c7e:	f816 1c02 	ldrb.w	r1, [r6, #-2]
 8009c82:	3b01      	subs	r3, #1
 8009c84:	1eb5      	subs	r5, r6, #2
 8009c86:	6123      	str	r3, [r4, #16]
 8009c88:	f8d4 317c 	ldr.w	r3, [r4, #380]	@ 0x17c
 8009c8c:	464a      	mov	r2, r9
 8009c8e:	4640      	mov	r0, r8
 8009c90:	4798      	blx	r3
 8009c92:	462e      	mov	r6, r5
 8009c94:	6822      	ldr	r2, [r4, #0]
 8009c96:	f012 0210 	ands.w	r2, r2, #16
 8009c9a:	d001      	beq.n	8009ca0 <_scanf_float+0x368>
 8009c9c:	2000      	movs	r0, #0
 8009c9e:	e68e      	b.n	80099be <_scanf_float+0x86>
 8009ca0:	7032      	strb	r2, [r6, #0]
 8009ca2:	6823      	ldr	r3, [r4, #0]
 8009ca4:	f403 63c0 	and.w	r3, r3, #1536	@ 0x600
 8009ca8:	f5b3 6f80 	cmp.w	r3, #1024	@ 0x400
 8009cac:	d125      	bne.n	8009cfa <_scanf_float+0x3c2>
 8009cae:	9b02      	ldr	r3, [sp, #8]
 8009cb0:	429f      	cmp	r7, r3
 8009cb2:	d00a      	beq.n	8009cca <_scanf_float+0x392>
 8009cb4:	1bda      	subs	r2, r3, r7
 8009cb6:	f204 136f 	addw	r3, r4, #367	@ 0x16f
 8009cba:	429e      	cmp	r6, r3
 8009cbc:	bf28      	it	cs
 8009cbe:	f504 76b7 	addcs.w	r6, r4, #366	@ 0x16e
 8009cc2:	4922      	ldr	r1, [pc, #136]	@ (8009d4c <_scanf_float+0x414>)
 8009cc4:	4630      	mov	r0, r6
 8009cc6:	f000 f907 	bl	8009ed8 <siprintf>
 8009cca:	9901      	ldr	r1, [sp, #4]
 8009ccc:	2200      	movs	r2, #0
 8009cce:	4640      	mov	r0, r8
 8009cd0:	f7ff f95a 	bl	8008f88 <_strtod_r>
 8009cd4:	9b03      	ldr	r3, [sp, #12]
 8009cd6:	6821      	ldr	r1, [r4, #0]
 8009cd8:	681b      	ldr	r3, [r3, #0]
 8009cda:	f011 0f02 	tst.w	r1, #2
 8009cde:	ec57 6b10 	vmov	r6, r7, d0
 8009ce2:	f103 0204 	add.w	r2, r3, #4
 8009ce6:	d015      	beq.n	8009d14 <_scanf_float+0x3dc>
 8009ce8:	9903      	ldr	r1, [sp, #12]
 8009cea:	600a      	str	r2, [r1, #0]
 8009cec:	681b      	ldr	r3, [r3, #0]
 8009cee:	e9c3 6700 	strd	r6, r7, [r3]
 8009cf2:	68e3      	ldr	r3, [r4, #12]
 8009cf4:	3301      	adds	r3, #1
 8009cf6:	60e3      	str	r3, [r4, #12]
 8009cf8:	e7d0      	b.n	8009c9c <_scanf_float+0x364>
 8009cfa:	9b04      	ldr	r3, [sp, #16]
 8009cfc:	2b00      	cmp	r3, #0
 8009cfe:	d0e4      	beq.n	8009cca <_scanf_float+0x392>
 8009d00:	9905      	ldr	r1, [sp, #20]
 8009d02:	230a      	movs	r3, #10
 8009d04:	3101      	adds	r1, #1
 8009d06:	4640      	mov	r0, r8
 8009d08:	f7ff f9be 	bl	8009088 <_strtol_r>
 8009d0c:	9b04      	ldr	r3, [sp, #16]
 8009d0e:	9e05      	ldr	r6, [sp, #20]
 8009d10:	1ac2      	subs	r2, r0, r3
 8009d12:	e7d0      	b.n	8009cb6 <_scanf_float+0x37e>
 8009d14:	f011 0f04 	tst.w	r1, #4
 8009d18:	9903      	ldr	r1, [sp, #12]
 8009d1a:	600a      	str	r2, [r1, #0]
 8009d1c:	d1e6      	bne.n	8009cec <_scanf_float+0x3b4>
 8009d1e:	681d      	ldr	r5, [r3, #0]
 8009d20:	4632      	mov	r2, r6
 8009d22:	463b      	mov	r3, r7
 8009d24:	4630      	mov	r0, r6
 8009d26:	4639      	mov	r1, r7
 8009d28:	f7f6 ff00 	bl	8000b2c <__aeabi_dcmpun>
 8009d2c:	b128      	cbz	r0, 8009d3a <_scanf_float+0x402>
 8009d2e:	4808      	ldr	r0, [pc, #32]	@ (8009d50 <_scanf_float+0x418>)
 8009d30:	f000 f9e8 	bl	800a104 <nanf>
 8009d34:	ed85 0a00 	vstr	s0, [r5]
 8009d38:	e7db      	b.n	8009cf2 <_scanf_float+0x3ba>
 8009d3a:	4630      	mov	r0, r6
 8009d3c:	4639      	mov	r1, r7
 8009d3e:	f7f6 ff53 	bl	8000be8 <__aeabi_d2f>
 8009d42:	6028      	str	r0, [r5, #0]
 8009d44:	e7d5      	b.n	8009cf2 <_scanf_float+0x3ba>
 8009d46:	2700      	movs	r7, #0
 8009d48:	e62e      	b.n	80099a8 <_scanf_float+0x70>
 8009d4a:	bf00      	nop
 8009d4c:	0800c969 	.word	0x0800c969
 8009d50:	0800c9b1 	.word	0x0800c9b1

08009d54 <std>:
 8009d54:	2300      	movs	r3, #0
 8009d56:	b510      	push	{r4, lr}
 8009d58:	4604      	mov	r4, r0
 8009d5a:	e9c0 3300 	strd	r3, r3, [r0]
 8009d5e:	e9c0 3304 	strd	r3, r3, [r0, #16]
 8009d62:	6083      	str	r3, [r0, #8]
 8009d64:	8181      	strh	r1, [r0, #12]
 8009d66:	6643      	str	r3, [r0, #100]	@ 0x64
 8009d68:	81c2      	strh	r2, [r0, #14]
 8009d6a:	6183      	str	r3, [r0, #24]
 8009d6c:	4619      	mov	r1, r3
 8009d6e:	2208      	movs	r2, #8
 8009d70:	305c      	adds	r0, #92	@ 0x5c
 8009d72:	f000 f916 	bl	8009fa2 <memset>
 8009d76:	4b0d      	ldr	r3, [pc, #52]	@ (8009dac <std+0x58>)
 8009d78:	6263      	str	r3, [r4, #36]	@ 0x24
 8009d7a:	4b0d      	ldr	r3, [pc, #52]	@ (8009db0 <std+0x5c>)
 8009d7c:	62a3      	str	r3, [r4, #40]	@ 0x28
 8009d7e:	4b0d      	ldr	r3, [pc, #52]	@ (8009db4 <std+0x60>)
 8009d80:	62e3      	str	r3, [r4, #44]	@ 0x2c
 8009d82:	4b0d      	ldr	r3, [pc, #52]	@ (8009db8 <std+0x64>)
 8009d84:	6323      	str	r3, [r4, #48]	@ 0x30
 8009d86:	4b0d      	ldr	r3, [pc, #52]	@ (8009dbc <std+0x68>)
 8009d88:	6224      	str	r4, [r4, #32]
 8009d8a:	429c      	cmp	r4, r3
 8009d8c:	d006      	beq.n	8009d9c <std+0x48>
 8009d8e:	f103 0268 	add.w	r2, r3, #104	@ 0x68
 8009d92:	4294      	cmp	r4, r2
 8009d94:	d002      	beq.n	8009d9c <std+0x48>
 8009d96:	33d0      	adds	r3, #208	@ 0xd0
 8009d98:	429c      	cmp	r4, r3
 8009d9a:	d105      	bne.n	8009da8 <std+0x54>
 8009d9c:	f104 0058 	add.w	r0, r4, #88	@ 0x58
 8009da0:	e8bd 4010 	ldmia.w	sp!, {r4, lr}
 8009da4:	f000 b99c 	b.w	800a0e0 <__retarget_lock_init_recursive>
 8009da8:	bd10      	pop	{r4, pc}
 8009daa:	bf00      	nop
 8009dac:	08009f1d 	.word	0x08009f1d
 8009db0:	08009f3f 	.word	0x08009f3f
 8009db4:	08009f77 	.word	0x08009f77
 8009db8:	08009f9b 	.word	0x08009f9b
 8009dbc:	20001650 	.word	0x20001650

08009dc0 <stdio_exit_handler>:
 8009dc0:	4a02      	ldr	r2, [pc, #8]	@ (8009dcc <stdio_exit_handler+0xc>)
 8009dc2:	4903      	ldr	r1, [pc, #12]	@ (8009dd0 <stdio_exit_handler+0x10>)
 8009dc4:	4803      	ldr	r0, [pc, #12]	@ (8009dd4 <stdio_exit_handler+0x14>)
 8009dc6:	f000 b869 	b.w	8009e9c <_fwalk_sglue>
 8009dca:	bf00      	nop
 8009dcc:	200000b4 	.word	0x200000b4
 8009dd0:	0800c251 	.word	0x0800c251
 8009dd4:	20000230 	.word	0x20000230

08009dd8 <cleanup_stdio>:
 8009dd8:	6841      	ldr	r1, [r0, #4]
 8009dda:	4b0c      	ldr	r3, [pc, #48]	@ (8009e0c <cleanup_stdio+0x34>)
 8009ddc:	4299      	cmp	r1, r3
 8009dde:	b510      	push	{r4, lr}
 8009de0:	4604      	mov	r4, r0
 8009de2:	d001      	beq.n	8009de8 <cleanup_stdio+0x10>
 8009de4:	f002 fa34 	bl	800c250 <_fflush_r>
 8009de8:	68a1      	ldr	r1, [r4, #8]
 8009dea:	4b09      	ldr	r3, [pc, #36]	@ (8009e10 <cleanup_stdio+0x38>)
 8009dec:	4299      	cmp	r1, r3
 8009dee:	d002      	beq.n	8009df6 <cleanup_stdio+0x1e>
 8009df0:	4620      	mov	r0, r4
 8009df2:	f002 fa2d 	bl	800c250 <_fflush_r>
 8009df6:	68e1      	ldr	r1, [r4, #12]
 8009df8:	4b06      	ldr	r3, [pc, #24]	@ (8009e14 <cleanup_stdio+0x3c>)
 8009dfa:	4299      	cmp	r1, r3
 8009dfc:	d004      	beq.n	8009e08 <cleanup_stdio+0x30>
 8009dfe:	4620      	mov	r0, r4
 8009e00:	e8bd 4010 	ldmia.w	sp!, {r4, lr}
 8009e04:	f002 ba24 	b.w	800c250 <_fflush_r>
 8009e08:	bd10      	pop	{r4, pc}
 8009e0a:	bf00      	nop
 8009e0c:	20001650 	.word	0x20001650
 8009e10:	200016b8 	.word	0x200016b8
 8009e14:	20001720 	.word	0x20001720

08009e18 <global_stdio_init.part.0>:
 8009e18:	b510      	push	{r4, lr}
 8009e1a:	4b0b      	ldr	r3, [pc, #44]	@ (8009e48 <global_stdio_init.part.0+0x30>)
 8009e1c:	4c0b      	ldr	r4, [pc, #44]	@ (8009e4c <global_stdio_init.part.0+0x34>)
 8009e1e:	4a0c      	ldr	r2, [pc, #48]	@ (8009e50 <global_stdio_init.part.0+0x38>)
 8009e20:	601a      	str	r2, [r3, #0]
 8009e22:	4620      	mov	r0, r4
 8009e24:	2200      	movs	r2, #0
 8009e26:	2104      	movs	r1, #4
 8009e28:	f7ff ff94 	bl	8009d54 <std>
 8009e2c:	f104 0068 	add.w	r0, r4, #104	@ 0x68
 8009e30:	2201      	movs	r2, #1
 8009e32:	2109      	movs	r1, #9
 8009e34:	f7ff ff8e 	bl	8009d54 <std>
 8009e38:	f104 00d0 	add.w	r0, r4, #208	@ 0xd0
 8009e3c:	2202      	movs	r2, #2
 8009e3e:	e8bd 4010 	ldmia.w	sp!, {r4, lr}
 8009e42:	2112      	movs	r1, #18
 8009e44:	f7ff bf86 	b.w	8009d54 <std>
 8009e48:	20001788 	.word	0x20001788
 8009e4c:	20001650 	.word	0x20001650
 8009e50:	08009dc1 	.word	0x08009dc1

08009e54 <__sfp_lock_acquire>:
 8009e54:	4801      	ldr	r0, [pc, #4]	@ (8009e5c <__sfp_lock_acquire+0x8>)
 8009e56:	f000 b944 	b.w	800a0e2 <__retarget_lock_acquire_recursive>
 8009e5a:	bf00      	nop
 8009e5c:	20001791 	.word	0x20001791

08009e60 <__sfp_lock_release>:
 8009e60:	4801      	ldr	r0, [pc, #4]	@ (8009e68 <__sfp_lock_release+0x8>)
 8009e62:	f000 b93f 	b.w	800a0e4 <__retarget_lock_release_recursive>
 8009e66:	bf00      	nop
 8009e68:	20001791 	.word	0x20001791

08009e6c <__sinit>:
 8009e6c:	b510      	push	{r4, lr}
 8009e6e:	4604      	mov	r4, r0
 8009e70:	f7ff fff0 	bl	8009e54 <__sfp_lock_acquire>
 8009e74:	6a23      	ldr	r3, [r4, #32]
 8009e76:	b11b      	cbz	r3, 8009e80 <__sinit+0x14>
 8009e78:	e8bd 4010 	ldmia.w	sp!, {r4, lr}
 8009e7c:	f7ff bff0 	b.w	8009e60 <__sfp_lock_release>
 8009e80:	4b04      	ldr	r3, [pc, #16]	@ (8009e94 <__sinit+0x28>)
 8009e82:	6223      	str	r3, [r4, #32]
 8009e84:	4b04      	ldr	r3, [pc, #16]	@ (8009e98 <__sinit+0x2c>)
 8009e86:	681b      	ldr	r3, [r3, #0]
 8009e88:	2b00      	cmp	r3, #0
 8009e8a:	d1f5      	bne.n	8009e78 <__sinit+0xc>
 8009e8c:	f7ff ffc4 	bl	8009e18 <global_stdio_init.part.0>
 8009e90:	e7f2      	b.n	8009e78 <__sinit+0xc>
 8009e92:	bf00      	nop
 8009e94:	08009dd9 	.word	0x08009dd9
 8009e98:	20001788 	.word	0x20001788

08009e9c <_fwalk_sglue>:
 8009e9c:	e92d 43f8 	stmdb	sp!, {r3, r4, r5, r6, r7, r8, r9, lr}
 8009ea0:	4607      	mov	r7, r0
 8009ea2:	4688      	mov	r8, r1
 8009ea4:	4614      	mov	r4, r2
 8009ea6:	2600      	movs	r6, #0
 8009ea8:	e9d4 9501 	ldrd	r9, r5, [r4, #4]
 8009eac:	f1b9 0901 	subs.w	r9, r9, #1
 8009eb0:	d505      	bpl.n	8009ebe <_fwalk_sglue+0x22>
 8009eb2:	6824      	ldr	r4, [r4, #0]
 8009eb4:	2c00      	cmp	r4, #0
 8009eb6:	d1f7      	bne.n	8009ea8 <_fwalk_sglue+0xc>
 8009eb8:	4630      	mov	r0, r6
 8009eba:	e8bd 83f8 	ldmia.w	sp!, {r3, r4, r5, r6, r7, r8, r9, pc}
 8009ebe:	89ab      	ldrh	r3, [r5, #12]
 8009ec0:	2b01      	cmp	r3, #1
 8009ec2:	d907      	bls.n	8009ed4 <_fwalk_sglue+0x38>
 8009ec4:	f9b5 300e 	ldrsh.w	r3, [r5, #14]
 8009ec8:	3301      	adds	r3, #1
 8009eca:	d003      	beq.n	8009ed4 <_fwalk_sglue+0x38>
 8009ecc:	4629      	mov	r1, r5
 8009ece:	4638      	mov	r0, r7
 8009ed0:	47c0      	blx	r8
 8009ed2:	4306      	orrs	r6, r0
 8009ed4:	3568      	adds	r5, #104	@ 0x68
 8009ed6:	e7e9      	b.n	8009eac <_fwalk_sglue+0x10>

08009ed8 <siprintf>:
 8009ed8:	b40e      	push	{r1, r2, r3}
 8009eda:	b510      	push	{r4, lr}
 8009edc:	b09d      	sub	sp, #116	@ 0x74
 8009ede:	ab1f      	add	r3, sp, #124	@ 0x7c
 8009ee0:	9002      	str	r0, [sp, #8]
 8009ee2:	9006      	str	r0, [sp, #24]
 8009ee4:	f06f 4100 	mvn.w	r1, #2147483648	@ 0x80000000
 8009ee8:	480a      	ldr	r0, [pc, #40]	@ (8009f14 <siprintf+0x3c>)
 8009eea:	9107      	str	r1, [sp, #28]
 8009eec:	9104      	str	r1, [sp, #16]
 8009eee:	490a      	ldr	r1, [pc, #40]	@ (8009f18 <siprintf+0x40>)
 8009ef0:	f853 2b04 	ldr.w	r2, [r3], #4
 8009ef4:	9105      	str	r1, [sp, #20]
 8009ef6:	2400      	movs	r4, #0
 8009ef8:	a902      	add	r1, sp, #8
 8009efa:	6800      	ldr	r0, [r0, #0]
 8009efc:	9301      	str	r3, [sp, #4]
 8009efe:	941b      	str	r4, [sp, #108]	@ 0x6c
 8009f00:	f002 f826 	bl	800bf50 <_svfiprintf_r>
 8009f04:	9b02      	ldr	r3, [sp, #8]
 8009f06:	701c      	strb	r4, [r3, #0]
 8009f08:	b01d      	add	sp, #116	@ 0x74
 8009f0a:	e8bd 4010 	ldmia.w	sp!, {r4, lr}
 8009f0e:	b003      	add	sp, #12
 8009f10:	4770      	bx	lr
 8009f12:	bf00      	nop
 8009f14:	2000022c 	.word	0x2000022c
 8009f18:	ffff0208 	.word	0xffff0208

08009f1c <__sread>:
 8009f1c:	b510      	push	{r4, lr}
 8009f1e:	460c      	mov	r4, r1
 8009f20:	f9b1 100e 	ldrsh.w	r1, [r1, #14]
 8009f24:	f000 f87e 	bl	800a024 <_read_r>
 8009f28:	2800      	cmp	r0, #0
 8009f2a:	bfab      	itete	ge
 8009f2c:	6d63      	ldrge	r3, [r4, #84]	@ 0x54
 8009f2e:	89a3      	ldrhlt	r3, [r4, #12]
 8009f30:	181b      	addge	r3, r3, r0
 8009f32:	f423 5380 	biclt.w	r3, r3, #4096	@ 0x1000
 8009f36:	bfac      	ite	ge
 8009f38:	6563      	strge	r3, [r4, #84]	@ 0x54
 8009f3a:	81a3      	strhlt	r3, [r4, #12]
 8009f3c:	bd10      	pop	{r4, pc}

08009f3e <__swrite>:
 8009f3e:	e92d 41f0 	stmdb	sp!, {r4, r5, r6, r7, r8, lr}
 8009f42:	461f      	mov	r7, r3
 8009f44:	898b      	ldrh	r3, [r1, #12]
 8009f46:	05db      	lsls	r3, r3, #23
 8009f48:	4605      	mov	r5, r0
 8009f4a:	460c      	mov	r4, r1
 8009f4c:	4616      	mov	r6, r2
 8009f4e:	d505      	bpl.n	8009f5c <__swrite+0x1e>
 8009f50:	f9b1 100e 	ldrsh.w	r1, [r1, #14]
 8009f54:	2302      	movs	r3, #2
 8009f56:	2200      	movs	r2, #0
 8009f58:	f000 f852 	bl	800a000 <_lseek_r>
 8009f5c:	89a3      	ldrh	r3, [r4, #12]
 8009f5e:	f9b4 100e 	ldrsh.w	r1, [r4, #14]
 8009f62:	f423 5380 	bic.w	r3, r3, #4096	@ 0x1000
 8009f66:	81a3      	strh	r3, [r4, #12]
 8009f68:	4632      	mov	r2, r6
 8009f6a:	463b      	mov	r3, r7
 8009f6c:	4628      	mov	r0, r5
 8009f6e:	e8bd 41f0 	ldmia.w	sp!, {r4, r5, r6, r7, r8, lr}
 8009f72:	f000 b879 	b.w	800a068 <_write_r>

08009f76 <__sseek>:
 8009f76:	b510      	push	{r4, lr}
 8009f78:	460c      	mov	r4, r1
 8009f7a:	f9b1 100e 	ldrsh.w	r1, [r1, #14]
 8009f7e:	f000 f83f 	bl	800a000 <_lseek_r>
 8009f82:	1c43      	adds	r3, r0, #1
 8009f84:	89a3      	ldrh	r3, [r4, #12]
 8009f86:	bf15      	itete	ne
 8009f88:	6560      	strne	r0, [r4, #84]	@ 0x54
 8009f8a:	f423 5380 	biceq.w	r3, r3, #4096	@ 0x1000
 8009f8e:	f443 5380 	orrne.w	r3, r3, #4096	@ 0x1000
 8009f92:	81a3      	strheq	r3, [r4, #12]
 8009f94:	bf18      	it	ne
 8009f96:	81a3      	strhne	r3, [r4, #12]
 8009f98:	bd10      	pop	{r4, pc}

08009f9a <__sclose>:
 8009f9a:	f9b1 100e 	ldrsh.w	r1, [r1, #14]
 8009f9e:	f000 b81f 	b.w	8009fe0 <_close_r>

08009fa2 <memset>:
 8009fa2:	4402      	add	r2, r0
 8009fa4:	4603      	mov	r3, r0
 8009fa6:	4293      	cmp	r3, r2
 8009fa8:	d100      	bne.n	8009fac <memset+0xa>
 8009faa:	4770      	bx	lr
 8009fac:	f803 1b01 	strb.w	r1, [r3], #1
 8009fb0:	e7f9      	b.n	8009fa6 <memset+0x4>

08009fb2 <strncmp>:
 8009fb2:	b510      	push	{r4, lr}
 8009fb4:	b16a      	cbz	r2, 8009fd2 <strncmp+0x20>
 8009fb6:	3901      	subs	r1, #1
 8009fb8:	1884      	adds	r4, r0, r2
 8009fba:	f810 2b01 	ldrb.w	r2, [r0], #1
 8009fbe:	f811 3f01 	ldrb.w	r3, [r1, #1]!
 8009fc2:	429a      	cmp	r2, r3
 8009fc4:	d103      	bne.n	8009fce <strncmp+0x1c>
 8009fc6:	42a0      	cmp	r0, r4
 8009fc8:	d001      	beq.n	8009fce <strncmp+0x1c>
 8009fca:	2a00      	cmp	r2, #0
 8009fcc:	d1f5      	bne.n	8009fba <strncmp+0x8>
 8009fce:	1ad0      	subs	r0, r2, r3
 8009fd0:	bd10      	pop	{r4, pc}
 8009fd2:	4610      	mov	r0, r2
 8009fd4:	e7fc      	b.n	8009fd0 <strncmp+0x1e>
	...

08009fd8 <_localeconv_r>:
 8009fd8:	4800      	ldr	r0, [pc, #0]	@ (8009fdc <_localeconv_r+0x4>)
 8009fda:	4770      	bx	lr
 8009fdc:	200001b0 	.word	0x200001b0

08009fe0 <_close_r>:
 8009fe0:	b538      	push	{r3, r4, r5, lr}
 8009fe2:	4d06      	ldr	r5, [pc, #24]	@ (8009ffc <_close_r+0x1c>)
 8009fe4:	2300      	movs	r3, #0
 8009fe6:	4604      	mov	r4, r0
 8009fe8:	4608      	mov	r0, r1
 8009fea:	602b      	str	r3, [r5, #0]
 8009fec:	f7f8 fb88 	bl	8002700 <_close>
 8009ff0:	1c43      	adds	r3, r0, #1
 8009ff2:	d102      	bne.n	8009ffa <_close_r+0x1a>
 8009ff4:	682b      	ldr	r3, [r5, #0]
 8009ff6:	b103      	cbz	r3, 8009ffa <_close_r+0x1a>
 8009ff8:	6023      	str	r3, [r4, #0]
 8009ffa:	bd38      	pop	{r3, r4, r5, pc}
 8009ffc:	2000178c 	.word	0x2000178c

0800a000 <_lseek_r>:
 800a000:	b538      	push	{r3, r4, r5, lr}
 800a002:	4d07      	ldr	r5, [pc, #28]	@ (800a020 <_lseek_r+0x20>)
 800a004:	4604      	mov	r4, r0
 800a006:	4608      	mov	r0, r1
 800a008:	4611      	mov	r1, r2
 800a00a:	2200      	movs	r2, #0
 800a00c:	602a      	str	r2, [r5, #0]
 800a00e:	461a      	mov	r2, r3
 800a010:	f7f8 fb80 	bl	8002714 <_lseek>
 800a014:	1c43      	adds	r3, r0, #1
 800a016:	d102      	bne.n	800a01e <_lseek_r+0x1e>
 800a018:	682b      	ldr	r3, [r5, #0]
 800a01a:	b103      	cbz	r3, 800a01e <_lseek_r+0x1e>
 800a01c:	6023      	str	r3, [r4, #0]
 800a01e:	bd38      	pop	{r3, r4, r5, pc}
 800a020:	2000178c 	.word	0x2000178c

0800a024 <_read_r>:
 800a024:	b538      	push	{r3, r4, r5, lr}
 800a026:	4d07      	ldr	r5, [pc, #28]	@ (800a044 <_read_r+0x20>)
 800a028:	4604      	mov	r4, r0
 800a02a:	4608      	mov	r0, r1
 800a02c:	4611      	mov	r1, r2
 800a02e:	2200      	movs	r2, #0
 800a030:	602a      	str	r2, [r5, #0]
 800a032:	461a      	mov	r2, r3
 800a034:	f7f8 fb48 	bl	80026c8 <_read>
 800a038:	1c43      	adds	r3, r0, #1
 800a03a:	d102      	bne.n	800a042 <_read_r+0x1e>
 800a03c:	682b      	ldr	r3, [r5, #0]
 800a03e:	b103      	cbz	r3, 800a042 <_read_r+0x1e>
 800a040:	6023      	str	r3, [r4, #0]
 800a042:	bd38      	pop	{r3, r4, r5, pc}
 800a044:	2000178c 	.word	0x2000178c

0800a048 <_sbrk_r>:
 800a048:	b538      	push	{r3, r4, r5, lr}
 800a04a:	4d06      	ldr	r5, [pc, #24]	@ (800a064 <_sbrk_r+0x1c>)
 800a04c:	2300      	movs	r3, #0
 800a04e:	4604      	mov	r4, r0
 800a050:	4608      	mov	r0, r1
 800a052:	602b      	str	r3, [r5, #0]
 800a054:	f7f8 fb60 	bl	8002718 <_sbrk>
 800a058:	1c43      	adds	r3, r0, #1
 800a05a:	d102      	bne.n	800a062 <_sbrk_r+0x1a>
 800a05c:	682b      	ldr	r3, [r5, #0]
 800a05e:	b103      	cbz	r3, 800a062 <_sbrk_r+0x1a>
 800a060:	6023      	str	r3, [r4, #0]
 800a062:	bd38      	pop	{r3, r4, r5, pc}
 800a064:	2000178c 	.word	0x2000178c

0800a068 <_write_r>:
 800a068:	b538      	push	{r3, r4, r5, lr}
 800a06a:	4d07      	ldr	r5, [pc, #28]	@ (800a088 <_write_r+0x20>)
 800a06c:	4604      	mov	r4, r0
 800a06e:	4608      	mov	r0, r1
 800a070:	4611      	mov	r1, r2
 800a072:	2200      	movs	r2, #0
 800a074:	602a      	str	r2, [r5, #0]
 800a076:	461a      	mov	r2, r3
 800a078:	f7f8 fb34 	bl	80026e4 <_write>
 800a07c:	1c43      	adds	r3, r0, #1
 800a07e:	d102      	bne.n	800a086 <_write_r+0x1e>
 800a080:	682b      	ldr	r3, [r5, #0]
 800a082:	b103      	cbz	r3, 800a086 <_write_r+0x1e>
 800a084:	6023      	str	r3, [r4, #0]
 800a086:	bd38      	pop	{r3, r4, r5, pc}
 800a088:	2000178c 	.word	0x2000178c

0800a08c <__errno>:
 800a08c:	4b01      	ldr	r3, [pc, #4]	@ (800a094 <__errno+0x8>)
 800a08e:	6818      	ldr	r0, [r3, #0]
 800a090:	4770      	bx	lr
 800a092:	bf00      	nop
 800a094:	2000022c 	.word	0x2000022c

0800a098 <__libc_init_array>:
 800a098:	b570      	push	{r4, r5, r6, lr}
 800a09a:	4d0d      	ldr	r5, [pc, #52]	@ (800a0d0 <__libc_init_array+0x38>)
 800a09c:	4c0d      	ldr	r4, [pc, #52]	@ (800a0d4 <__libc_init_array+0x3c>)
 800a09e:	1b64      	subs	r4, r4, r5
 800a0a0:	10a4      	asrs	r4, r4, #2
 800a0a2:	2600      	movs	r6, #0
 800a0a4:	42a6      	cmp	r6, r4
 800a0a6:	d109      	bne.n	800a0bc <__libc_init_array+0x24>
 800a0a8:	4d0b      	ldr	r5, [pc, #44]	@ (800a0d8 <__libc_init_array+0x40>)
 800a0aa:	4c0c      	ldr	r4, [pc, #48]	@ (800a0dc <__libc_init_array+0x44>)
 800a0ac:	f002 fc12 	bl	800c8d4 <_init>
 800a0b0:	1b64      	subs	r4, r4, r5
 800a0b2:	10a4      	asrs	r4, r4, #2
 800a0b4:	2600      	movs	r6, #0
 800a0b6:	42a6      	cmp	r6, r4
 800a0b8:	d105      	bne.n	800a0c6 <__libc_init_array+0x2e>
 800a0ba:	bd70      	pop	{r4, r5, r6, pc}
 800a0bc:	f855 3b04 	ldr.w	r3, [r5], #4
 800a0c0:	4798      	blx	r3
 800a0c2:	3601      	adds	r6, #1
 800a0c4:	e7ee      	b.n	800a0a4 <__libc_init_array+0xc>
 800a0c6:	f855 3b04 	ldr.w	r3, [r5], #4
 800a0ca:	4798      	blx	r3
 800a0cc:	3601      	adds	r6, #1
 800a0ce:	e7f2      	b.n	800a0b6 <__libc_init_array+0x1e>
 800a0d0:	0800cff0 	.word	0x0800cff0
 800a0d4:	0800cff0 	.word	0x0800cff0
 800a0d8:	0800cff0 	.word	0x0800cff0
 800a0dc:	0800cff4 	.word	0x0800cff4

0800a0e0 <__retarget_lock_init_recursive>:
 800a0e0:	4770      	bx	lr

0800a0e2 <__retarget_lock_acquire_recursive>:
 800a0e2:	4770      	bx	lr

0800a0e4 <__retarget_lock_release_recursive>:
 800a0e4:	4770      	bx	lr

0800a0e6 <memcpy>:
 800a0e6:	440a      	add	r2, r1
 800a0e8:	4291      	cmp	r1, r2
 800a0ea:	f100 33ff 	add.w	r3, r0, #4294967295
 800a0ee:	d100      	bne.n	800a0f2 <memcpy+0xc>
 800a0f0:	4770      	bx	lr
 800a0f2:	b510      	push	{r4, lr}
 800a0f4:	f811 4b01 	ldrb.w	r4, [r1], #1
 800a0f8:	f803 4f01 	strb.w	r4, [r3, #1]!
 800a0fc:	4291      	cmp	r1, r2
 800a0fe:	d1f9      	bne.n	800a0f4 <memcpy+0xe>
 800a100:	bd10      	pop	{r4, pc}
	...

0800a104 <nanf>:
 800a104:	ed9f 0a01 	vldr	s0, [pc, #4]	@ 800a10c <nanf+0x8>
 800a108:	4770      	bx	lr
 800a10a:	bf00      	nop
 800a10c:	7fc00000 	.word	0x7fc00000

0800a110 <__assert_func>:
 800a110:	b51f      	push	{r0, r1, r2, r3, r4, lr}
 800a112:	4614      	mov	r4, r2
 800a114:	461a      	mov	r2, r3
 800a116:	4b09      	ldr	r3, [pc, #36]	@ (800a13c <__assert_func+0x2c>)
 800a118:	681b      	ldr	r3, [r3, #0]
 800a11a:	4605      	mov	r5, r0
 800a11c:	68d8      	ldr	r0, [r3, #12]
 800a11e:	b14c      	cbz	r4, 800a134 <__assert_func+0x24>
 800a120:	4b07      	ldr	r3, [pc, #28]	@ (800a140 <__assert_func+0x30>)
 800a122:	9100      	str	r1, [sp, #0]
 800a124:	e9cd 3401 	strd	r3, r4, [sp, #4]
 800a128:	4906      	ldr	r1, [pc, #24]	@ (800a144 <__assert_func+0x34>)
 800a12a:	462b      	mov	r3, r5
 800a12c:	f002 f8b8 	bl	800c2a0 <fiprintf>
 800a130:	f002 f8e2 	bl	800c2f8 <abort>
 800a134:	4b04      	ldr	r3, [pc, #16]	@ (800a148 <__assert_func+0x38>)
 800a136:	461c      	mov	r4, r3
 800a138:	e7f3      	b.n	800a122 <__assert_func+0x12>
 800a13a:	bf00      	nop
 800a13c:	2000022c 	.word	0x2000022c
 800a140:	0800c976 	.word	0x0800c976
 800a144:	0800c983 	.word	0x0800c983
 800a148:	0800c9b1 	.word	0x0800c9b1

0800a14c <quorem>:
 800a14c:	e92d 4ff7 	stmdb	sp!, {r0, r1, r2, r4, r5, r6, r7, r8, r9, sl, fp, lr}
 800a150:	6903      	ldr	r3, [r0, #16]
 800a152:	690c      	ldr	r4, [r1, #16]
 800a154:	42a3      	cmp	r3, r4
 800a156:	4607      	mov	r7, r0
 800a158:	db7e      	blt.n	800a258 <quorem+0x10c>
 800a15a:	3c01      	subs	r4, #1
 800a15c:	f101 0814 	add.w	r8, r1, #20
 800a160:	00a3      	lsls	r3, r4, #2
 800a162:	f100 0514 	add.w	r5, r0, #20
 800a166:	9300      	str	r3, [sp, #0]
 800a168:	eb05 0384 	add.w	r3, r5, r4, lsl #2
 800a16c:	9301      	str	r3, [sp, #4]
 800a16e:	f858 3024 	ldr.w	r3, [r8, r4, lsl #2]
 800a172:	f855 2024 	ldr.w	r2, [r5, r4, lsl #2]
 800a176:	3301      	adds	r3, #1
 800a178:	429a      	cmp	r2, r3
 800a17a:	eb08 0984 	add.w	r9, r8, r4, lsl #2
 800a17e:	fbb2 f6f3 	udiv	r6, r2, r3
 800a182:	d32e      	bcc.n	800a1e2 <quorem+0x96>
 800a184:	f04f 0a00 	mov.w	sl, #0
 800a188:	46c4      	mov	ip, r8
 800a18a:	46ae      	mov	lr, r5
 800a18c:	46d3      	mov	fp, sl
 800a18e:	f85c 3b04 	ldr.w	r3, [ip], #4
 800a192:	b298      	uxth	r0, r3
 800a194:	fb06 a000 	mla	r0, r6, r0, sl
 800a198:	0c02      	lsrs	r2, r0, #16
 800a19a:	0c1b      	lsrs	r3, r3, #16
 800a19c:	fb06 2303 	mla	r3, r6, r3, r2
 800a1a0:	f8de 2000 	ldr.w	r2, [lr]
 800a1a4:	b280      	uxth	r0, r0
 800a1a6:	b292      	uxth	r2, r2
 800a1a8:	1a12      	subs	r2, r2, r0
 800a1aa:	445a      	add	r2, fp
 800a1ac:	f8de 0000 	ldr.w	r0, [lr]
 800a1b0:	ea4f 4a13 	mov.w	sl, r3, lsr #16
 800a1b4:	b29b      	uxth	r3, r3
 800a1b6:	ebc3 4322 	rsb	r3, r3, r2, asr #16
 800a1ba:	eb03 4310 	add.w	r3, r3, r0, lsr #16
 800a1be:	b292      	uxth	r2, r2
 800a1c0:	ea42 4203 	orr.w	r2, r2, r3, lsl #16
 800a1c4:	45e1      	cmp	r9, ip
 800a1c6:	f84e 2b04 	str.w	r2, [lr], #4
 800a1ca:	ea4f 4b23 	mov.w	fp, r3, asr #16
 800a1ce:	d2de      	bcs.n	800a18e <quorem+0x42>
 800a1d0:	9b00      	ldr	r3, [sp, #0]
 800a1d2:	58eb      	ldr	r3, [r5, r3]
 800a1d4:	b92b      	cbnz	r3, 800a1e2 <quorem+0x96>
 800a1d6:	9b01      	ldr	r3, [sp, #4]
 800a1d8:	3b04      	subs	r3, #4
 800a1da:	429d      	cmp	r5, r3
 800a1dc:	461a      	mov	r2, r3
 800a1de:	d32f      	bcc.n	800a240 <quorem+0xf4>
 800a1e0:	613c      	str	r4, [r7, #16]
 800a1e2:	4638      	mov	r0, r7
 800a1e4:	f001 fc5e 	bl	800baa4 <__mcmp>
 800a1e8:	2800      	cmp	r0, #0
 800a1ea:	db25      	blt.n	800a238 <quorem+0xec>
 800a1ec:	4629      	mov	r1, r5
 800a1ee:	2000      	movs	r0, #0
 800a1f0:	f858 2b04 	ldr.w	r2, [r8], #4
 800a1f4:	f8d1 c000 	ldr.w	ip, [r1]
 800a1f8:	fa1f fe82 	uxth.w	lr, r2
 800a1fc:	fa1f f38c 	uxth.w	r3, ip
 800a200:	eba3 030e 	sub.w	r3, r3, lr
 800a204:	4403      	add	r3, r0
 800a206:	0c12      	lsrs	r2, r2, #16
 800a208:	ebc2 4223 	rsb	r2, r2, r3, asr #16
 800a20c:	eb02 421c 	add.w	r2, r2, ip, lsr #16
 800a210:	b29b      	uxth	r3, r3
 800a212:	ea43 4302 	orr.w	r3, r3, r2, lsl #16
 800a216:	45c1      	cmp	r9, r8
 800a218:	f841 3b04 	str.w	r3, [r1], #4
 800a21c:	ea4f 4022 	mov.w	r0, r2, asr #16
 800a220:	d2e6      	bcs.n	800a1f0 <quorem+0xa4>
 800a222:	f855 2024 	ldr.w	r2, [r5, r4, lsl #2]
 800a226:	eb05 0384 	add.w	r3, r5, r4, lsl #2
 800a22a:	b922      	cbnz	r2, 800a236 <quorem+0xea>
 800a22c:	3b04      	subs	r3, #4
 800a22e:	429d      	cmp	r5, r3
 800a230:	461a      	mov	r2, r3
 800a232:	d30b      	bcc.n	800a24c <quorem+0x100>
 800a234:	613c      	str	r4, [r7, #16]
 800a236:	3601      	adds	r6, #1
 800a238:	4630      	mov	r0, r6
 800a23a:	b003      	add	sp, #12
 800a23c:	e8bd 8ff0 	ldmia.w	sp!, {r4, r5, r6, r7, r8, r9, sl, fp, pc}
 800a240:	6812      	ldr	r2, [r2, #0]
 800a242:	3b04      	subs	r3, #4
 800a244:	2a00      	cmp	r2, #0
 800a246:	d1cb      	bne.n	800a1e0 <quorem+0x94>
 800a248:	3c01      	subs	r4, #1
 800a24a:	e7c6      	b.n	800a1da <quorem+0x8e>
 800a24c:	6812      	ldr	r2, [r2, #0]
 800a24e:	3b04      	subs	r3, #4
 800a250:	2a00      	cmp	r2, #0
 800a252:	d1ef      	bne.n	800a234 <quorem+0xe8>
 800a254:	3c01      	subs	r4, #1
 800a256:	e7ea      	b.n	800a22e <quorem+0xe2>
 800a258:	2000      	movs	r0, #0
 800a25a:	e7ee      	b.n	800a23a <quorem+0xee>
 800a25c:	0000      	movs	r0, r0
	...

0800a260 <_dtoa_r>:
 800a260:	e92d 4ff0 	stmdb	sp!, {r4, r5, r6, r7, r8, r9, sl, fp, lr}
 800a264:	69c7      	ldr	r7, [r0, #28]
 800a266:	b097      	sub	sp, #92	@ 0x5c
 800a268:	ed8d 0b04 	vstr	d0, [sp, #16]
 800a26c:	ec55 4b10 	vmov	r4, r5, d0
 800a270:	9e20      	ldr	r6, [sp, #128]	@ 0x80
 800a272:	9107      	str	r1, [sp, #28]
 800a274:	4681      	mov	r9, r0
 800a276:	920c      	str	r2, [sp, #48]	@ 0x30
 800a278:	9311      	str	r3, [sp, #68]	@ 0x44
 800a27a:	b97f      	cbnz	r7, 800a29c <_dtoa_r+0x3c>
 800a27c:	2010      	movs	r0, #16
 800a27e:	f7fd ffcb 	bl	8008218 <malloc>
 800a282:	4602      	mov	r2, r0
 800a284:	f8c9 001c 	str.w	r0, [r9, #28]
 800a288:	b920      	cbnz	r0, 800a294 <_dtoa_r+0x34>
 800a28a:	4ba9      	ldr	r3, [pc, #676]	@ (800a530 <_dtoa_r+0x2d0>)
 800a28c:	21ef      	movs	r1, #239	@ 0xef
 800a28e:	48a9      	ldr	r0, [pc, #676]	@ (800a534 <_dtoa_r+0x2d4>)
 800a290:	f7ff ff3e 	bl	800a110 <__assert_func>
 800a294:	e9c0 7701 	strd	r7, r7, [r0, #4]
 800a298:	6007      	str	r7, [r0, #0]
 800a29a:	60c7      	str	r7, [r0, #12]
 800a29c:	f8d9 301c 	ldr.w	r3, [r9, #28]
 800a2a0:	6819      	ldr	r1, [r3, #0]
 800a2a2:	b159      	cbz	r1, 800a2bc <_dtoa_r+0x5c>
 800a2a4:	685a      	ldr	r2, [r3, #4]
 800a2a6:	604a      	str	r2, [r1, #4]
 800a2a8:	2301      	movs	r3, #1
 800a2aa:	4093      	lsls	r3, r2
 800a2ac:	608b      	str	r3, [r1, #8]
 800a2ae:	4648      	mov	r0, r9
 800a2b0:	f001 f97c 	bl	800b5ac <_Bfree>
 800a2b4:	f8d9 301c 	ldr.w	r3, [r9, #28]
 800a2b8:	2200      	movs	r2, #0
 800a2ba:	601a      	str	r2, [r3, #0]
 800a2bc:	1e2b      	subs	r3, r5, #0
 800a2be:	bfb9      	ittee	lt
 800a2c0:	f023 4300 	biclt.w	r3, r3, #2147483648	@ 0x80000000
 800a2c4:	9305      	strlt	r3, [sp, #20]
 800a2c6:	2300      	movge	r3, #0
 800a2c8:	6033      	strge	r3, [r6, #0]
 800a2ca:	9f05      	ldr	r7, [sp, #20]
 800a2cc:	4b9a      	ldr	r3, [pc, #616]	@ (800a538 <_dtoa_r+0x2d8>)
 800a2ce:	bfbc      	itt	lt
 800a2d0:	2201      	movlt	r2, #1
 800a2d2:	6032      	strlt	r2, [r6, #0]
 800a2d4:	43bb      	bics	r3, r7
 800a2d6:	d112      	bne.n	800a2fe <_dtoa_r+0x9e>
 800a2d8:	9a11      	ldr	r2, [sp, #68]	@ 0x44
 800a2da:	f242 730f 	movw	r3, #9999	@ 0x270f
 800a2de:	6013      	str	r3, [r2, #0]
 800a2e0:	f3c7 0313 	ubfx	r3, r7, #0, #20
 800a2e4:	4323      	orrs	r3, r4
 800a2e6:	f000 855a 	beq.w	800ad9e <_dtoa_r+0xb3e>
 800a2ea:	9b21      	ldr	r3, [sp, #132]	@ 0x84
 800a2ec:	f8df a25c 	ldr.w	sl, [pc, #604]	@ 800a54c <_dtoa_r+0x2ec>
 800a2f0:	2b00      	cmp	r3, #0
 800a2f2:	f000 855c 	beq.w	800adae <_dtoa_r+0xb4e>
 800a2f6:	f10a 0303 	add.w	r3, sl, #3
 800a2fa:	f000 bd56 	b.w	800adaa <_dtoa_r+0xb4a>
 800a2fe:	ed9d 7b04 	vldr	d7, [sp, #16]
 800a302:	2200      	movs	r2, #0
 800a304:	ec51 0b17 	vmov	r0, r1, d7
 800a308:	2300      	movs	r3, #0
 800a30a:	ed8d 7b0a 	vstr	d7, [sp, #40]	@ 0x28
 800a30e:	f7f6 fbdb 	bl	8000ac8 <__aeabi_dcmpeq>
 800a312:	4680      	mov	r8, r0
 800a314:	b158      	cbz	r0, 800a32e <_dtoa_r+0xce>
 800a316:	9a11      	ldr	r2, [sp, #68]	@ 0x44
 800a318:	2301      	movs	r3, #1
 800a31a:	6013      	str	r3, [r2, #0]
 800a31c:	9b21      	ldr	r3, [sp, #132]	@ 0x84
 800a31e:	b113      	cbz	r3, 800a326 <_dtoa_r+0xc6>
 800a320:	9a21      	ldr	r2, [sp, #132]	@ 0x84
 800a322:	4b86      	ldr	r3, [pc, #536]	@ (800a53c <_dtoa_r+0x2dc>)
 800a324:	6013      	str	r3, [r2, #0]
 800a326:	f8df a228 	ldr.w	sl, [pc, #552]	@ 800a550 <_dtoa_r+0x2f0>
 800a32a:	f000 bd40 	b.w	800adae <_dtoa_r+0xb4e>
 800a32e:	ed9d 0b0a 	vldr	d0, [sp, #40]	@ 0x28
 800a332:	aa14      	add	r2, sp, #80	@ 0x50
 800a334:	a915      	add	r1, sp, #84	@ 0x54
 800a336:	4648      	mov	r0, r9
 800a338:	f001 fcd4 	bl	800bce4 <__d2b>
 800a33c:	f3c7 560a 	ubfx	r6, r7, #20, #11
 800a340:	9002      	str	r0, [sp, #8]
 800a342:	2e00      	cmp	r6, #0
 800a344:	d078      	beq.n	800a438 <_dtoa_r+0x1d8>
 800a346:	9b0b      	ldr	r3, [sp, #44]	@ 0x2c
 800a348:	f8cd 8048 	str.w	r8, [sp, #72]	@ 0x48
 800a34c:	f3c3 0313 	ubfx	r3, r3, #0, #20
 800a350:	e9dd 010a 	ldrd	r0, r1, [sp, #40]	@ 0x28
 800a354:	f043 537f 	orr.w	r3, r3, #1069547520	@ 0x3fc00000
 800a358:	f443 1340 	orr.w	r3, r3, #3145728	@ 0x300000
 800a35c:	f2a6 36ff 	subw	r6, r6, #1023	@ 0x3ff
 800a360:	4619      	mov	r1, r3
 800a362:	2200      	movs	r2, #0
 800a364:	4b76      	ldr	r3, [pc, #472]	@ (800a540 <_dtoa_r+0x2e0>)
 800a366:	f7f5 ff8f 	bl	8000288 <__aeabi_dsub>
 800a36a:	a36b      	add	r3, pc, #428	@ (adr r3, 800a518 <_dtoa_r+0x2b8>)
 800a36c:	e9d3 2300 	ldrd	r2, r3, [r3]
 800a370:	f7f6 f942 	bl	80005f8 <__aeabi_dmul>
 800a374:	a36a      	add	r3, pc, #424	@ (adr r3, 800a520 <_dtoa_r+0x2c0>)
 800a376:	e9d3 2300 	ldrd	r2, r3, [r3]
 800a37a:	f7f5 ff87 	bl	800028c <__adddf3>
 800a37e:	4604      	mov	r4, r0
 800a380:	4630      	mov	r0, r6
 800a382:	460d      	mov	r5, r1
 800a384:	f7f6 f8ce 	bl	8000524 <__aeabi_i2d>
 800a388:	a367      	add	r3, pc, #412	@ (adr r3, 800a528 <_dtoa_r+0x2c8>)
 800a38a:	e9d3 2300 	ldrd	r2, r3, [r3]
 800a38e:	f7f6 f933 	bl	80005f8 <__aeabi_dmul>
 800a392:	4602      	mov	r2, r0
 800a394:	460b      	mov	r3, r1
 800a396:	4620      	mov	r0, r4
 800a398:	4629      	mov	r1, r5
 800a39a:	f7f5 ff77 	bl	800028c <__adddf3>
 800a39e:	4604      	mov	r4, r0
 800a3a0:	460d      	mov	r5, r1
 800a3a2:	f7f6 fbd9 	bl	8000b58 <__aeabi_d2iz>
 800a3a6:	2200      	movs	r2, #0
 800a3a8:	4607      	mov	r7, r0
 800a3aa:	2300      	movs	r3, #0
 800a3ac:	4620      	mov	r0, r4
 800a3ae:	4629      	mov	r1, r5
 800a3b0:	f7f6 fb94 	bl	8000adc <__aeabi_dcmplt>
 800a3b4:	b140      	cbz	r0, 800a3c8 <_dtoa_r+0x168>
 800a3b6:	4638      	mov	r0, r7
 800a3b8:	f7f6 f8b4 	bl	8000524 <__aeabi_i2d>
 800a3bc:	4622      	mov	r2, r4
 800a3be:	462b      	mov	r3, r5
 800a3c0:	f7f6 fb82 	bl	8000ac8 <__aeabi_dcmpeq>
 800a3c4:	b900      	cbnz	r0, 800a3c8 <_dtoa_r+0x168>
 800a3c6:	3f01      	subs	r7, #1
 800a3c8:	2f16      	cmp	r7, #22
 800a3ca:	d852      	bhi.n	800a472 <_dtoa_r+0x212>
 800a3cc:	4b5d      	ldr	r3, [pc, #372]	@ (800a544 <_dtoa_r+0x2e4>)
 800a3ce:	eb03 03c7 	add.w	r3, r3, r7, lsl #3
 800a3d2:	e9d3 2300 	ldrd	r2, r3, [r3]
 800a3d6:	e9dd 010a 	ldrd	r0, r1, [sp, #40]	@ 0x28
 800a3da:	f7f6 fb7f 	bl	8000adc <__aeabi_dcmplt>
 800a3de:	2800      	cmp	r0, #0
 800a3e0:	d049      	beq.n	800a476 <_dtoa_r+0x216>
 800a3e2:	3f01      	subs	r7, #1
 800a3e4:	2300      	movs	r3, #0
 800a3e6:	9310      	str	r3, [sp, #64]	@ 0x40
 800a3e8:	9b14      	ldr	r3, [sp, #80]	@ 0x50
 800a3ea:	1b9b      	subs	r3, r3, r6
 800a3ec:	1e5a      	subs	r2, r3, #1
 800a3ee:	bf45      	ittet	mi
 800a3f0:	f1c3 0301 	rsbmi	r3, r3, #1
 800a3f4:	9300      	strmi	r3, [sp, #0]
 800a3f6:	2300      	movpl	r3, #0
 800a3f8:	2300      	movmi	r3, #0
 800a3fa:	9206      	str	r2, [sp, #24]
 800a3fc:	bf54      	ite	pl
 800a3fe:	9300      	strpl	r3, [sp, #0]
 800a400:	9306      	strmi	r3, [sp, #24]
 800a402:	2f00      	cmp	r7, #0
 800a404:	db39      	blt.n	800a47a <_dtoa_r+0x21a>
 800a406:	9b06      	ldr	r3, [sp, #24]
 800a408:	970d      	str	r7, [sp, #52]	@ 0x34
 800a40a:	443b      	add	r3, r7
 800a40c:	9306      	str	r3, [sp, #24]
 800a40e:	2300      	movs	r3, #0
 800a410:	9308      	str	r3, [sp, #32]
 800a412:	9b07      	ldr	r3, [sp, #28]
 800a414:	2b09      	cmp	r3, #9
 800a416:	d863      	bhi.n	800a4e0 <_dtoa_r+0x280>
 800a418:	2b05      	cmp	r3, #5
 800a41a:	bfc4      	itt	gt
 800a41c:	3b04      	subgt	r3, #4
 800a41e:	9307      	strgt	r3, [sp, #28]
 800a420:	9b07      	ldr	r3, [sp, #28]
 800a422:	f1a3 0302 	sub.w	r3, r3, #2
 800a426:	bfcc      	ite	gt
 800a428:	2400      	movgt	r4, #0
 800a42a:	2401      	movle	r4, #1
 800a42c:	2b03      	cmp	r3, #3
 800a42e:	d863      	bhi.n	800a4f8 <_dtoa_r+0x298>
 800a430:	e8df f003 	tbb	[pc, r3]
 800a434:	2b375452 	.word	0x2b375452
 800a438:	e9dd 6314 	ldrd	r6, r3, [sp, #80]	@ 0x50
 800a43c:	441e      	add	r6, r3
 800a43e:	f206 4332 	addw	r3, r6, #1074	@ 0x432
 800a442:	2b20      	cmp	r3, #32
 800a444:	bfc1      	itttt	gt
 800a446:	f1c3 0340 	rsbgt	r3, r3, #64	@ 0x40
 800a44a:	409f      	lslgt	r7, r3
 800a44c:	f206 4312 	addwgt	r3, r6, #1042	@ 0x412
 800a450:	fa24 f303 	lsrgt.w	r3, r4, r3
 800a454:	bfd6      	itet	le
 800a456:	f1c3 0320 	rsble	r3, r3, #32
 800a45a:	ea47 0003 	orrgt.w	r0, r7, r3
 800a45e:	fa04 f003 	lslle.w	r0, r4, r3
 800a462:	f7f6 f84f 	bl	8000504 <__aeabi_ui2d>
 800a466:	2201      	movs	r2, #1
 800a468:	f1a1 73f8 	sub.w	r3, r1, #32505856	@ 0x1f00000
 800a46c:	3e01      	subs	r6, #1
 800a46e:	9212      	str	r2, [sp, #72]	@ 0x48
 800a470:	e776      	b.n	800a360 <_dtoa_r+0x100>
 800a472:	2301      	movs	r3, #1
 800a474:	e7b7      	b.n	800a3e6 <_dtoa_r+0x186>
 800a476:	9010      	str	r0, [sp, #64]	@ 0x40
 800a478:	e7b6      	b.n	800a3e8 <_dtoa_r+0x188>
 800a47a:	9b00      	ldr	r3, [sp, #0]
 800a47c:	1bdb      	subs	r3, r3, r7
 800a47e:	9300      	str	r3, [sp, #0]
 800a480:	427b      	negs	r3, r7
 800a482:	9308      	str	r3, [sp, #32]
 800a484:	2300      	movs	r3, #0
 800a486:	930d      	str	r3, [sp, #52]	@ 0x34
 800a488:	e7c3      	b.n	800a412 <_dtoa_r+0x1b2>
 800a48a:	2301      	movs	r3, #1
 800a48c:	9309      	str	r3, [sp, #36]	@ 0x24
 800a48e:	9b0c      	ldr	r3, [sp, #48]	@ 0x30
 800a490:	eb07 0b03 	add.w	fp, r7, r3
 800a494:	f10b 0301 	add.w	r3, fp, #1
 800a498:	2b01      	cmp	r3, #1
 800a49a:	9303      	str	r3, [sp, #12]
 800a49c:	bfb8      	it	lt
 800a49e:	2301      	movlt	r3, #1
 800a4a0:	e006      	b.n	800a4b0 <_dtoa_r+0x250>
 800a4a2:	2301      	movs	r3, #1
 800a4a4:	9309      	str	r3, [sp, #36]	@ 0x24
 800a4a6:	9b0c      	ldr	r3, [sp, #48]	@ 0x30
 800a4a8:	2b00      	cmp	r3, #0
 800a4aa:	dd28      	ble.n	800a4fe <_dtoa_r+0x29e>
 800a4ac:	469b      	mov	fp, r3
 800a4ae:	9303      	str	r3, [sp, #12]
 800a4b0:	f8d9 001c 	ldr.w	r0, [r9, #28]
 800a4b4:	2100      	movs	r1, #0
 800a4b6:	2204      	movs	r2, #4
 800a4b8:	f102 0514 	add.w	r5, r2, #20
 800a4bc:	429d      	cmp	r5, r3
 800a4be:	d926      	bls.n	800a50e <_dtoa_r+0x2ae>
 800a4c0:	6041      	str	r1, [r0, #4]
 800a4c2:	4648      	mov	r0, r9
 800a4c4:	f001 f832 	bl	800b52c <_Balloc>
 800a4c8:	4682      	mov	sl, r0
 800a4ca:	2800      	cmp	r0, #0
 800a4cc:	d142      	bne.n	800a554 <_dtoa_r+0x2f4>
 800a4ce:	4b1e      	ldr	r3, [pc, #120]	@ (800a548 <_dtoa_r+0x2e8>)
 800a4d0:	4602      	mov	r2, r0
 800a4d2:	f240 11af 	movw	r1, #431	@ 0x1af
 800a4d6:	e6da      	b.n	800a28e <_dtoa_r+0x2e>
 800a4d8:	2300      	movs	r3, #0
 800a4da:	e7e3      	b.n	800a4a4 <_dtoa_r+0x244>
 800a4dc:	2300      	movs	r3, #0
 800a4de:	e7d5      	b.n	800a48c <_dtoa_r+0x22c>
 800a4e0:	2401      	movs	r4, #1
 800a4e2:	2300      	movs	r3, #0
 800a4e4:	9307      	str	r3, [sp, #28]
 800a4e6:	9409      	str	r4, [sp, #36]	@ 0x24
 800a4e8:	f04f 3bff 	mov.w	fp, #4294967295
 800a4ec:	2200      	movs	r2, #0
 800a4ee:	f8cd b00c 	str.w	fp, [sp, #12]
 800a4f2:	2312      	movs	r3, #18
 800a4f4:	920c      	str	r2, [sp, #48]	@ 0x30
 800a4f6:	e7db      	b.n	800a4b0 <_dtoa_r+0x250>
 800a4f8:	2301      	movs	r3, #1
 800a4fa:	9309      	str	r3, [sp, #36]	@ 0x24
 800a4fc:	e7f4      	b.n	800a4e8 <_dtoa_r+0x288>
 800a4fe:	f04f 0b01 	mov.w	fp, #1
 800a502:	f8cd b00c 	str.w	fp, [sp, #12]
 800a506:	465b      	mov	r3, fp
 800a508:	f8cd b030 	str.w	fp, [sp, #48]	@ 0x30
 800a50c:	e7d0      	b.n	800a4b0 <_dtoa_r+0x250>
 800a50e:	3101      	adds	r1, #1
 800a510:	0052      	lsls	r2, r2, #1
 800a512:	e7d1      	b.n	800a4b8 <_dtoa_r+0x258>
 800a514:	f3af 8000 	nop.w
 800a518:	636f4361 	.word	0x636f4361
 800a51c:	3fd287a7 	.word	0x3fd287a7
 800a520:	8b60c8b3 	.word	0x8b60c8b3
 800a524:	3fc68a28 	.word	0x3fc68a28
 800a528:	509f79fb 	.word	0x509f79fb
 800a52c:	3fd34413 	.word	0x3fd34413
 800a530:	0800c9bf 	.word	0x0800c9bf
 800a534:	0800c9d6 	.word	0x0800c9d6
 800a538:	7ff00000 	.word	0x7ff00000
 800a53c:	0800c946 	.word	0x0800c946
 800a540:	3ff80000 	.word	0x3ff80000
 800a544:	0800cf20 	.word	0x0800cf20
 800a548:	0800ca2e 	.word	0x0800ca2e
 800a54c:	0800c9bb 	.word	0x0800c9bb
 800a550:	0800c945 	.word	0x0800c945
 800a554:	f8d9 301c 	ldr.w	r3, [r9, #28]
 800a558:	6018      	str	r0, [r3, #0]
 800a55a:	9b03      	ldr	r3, [sp, #12]
 800a55c:	2b0e      	cmp	r3, #14
 800a55e:	f200 80a1 	bhi.w	800a6a4 <_dtoa_r+0x444>
 800a562:	2c00      	cmp	r4, #0
 800a564:	f000 809e 	beq.w	800a6a4 <_dtoa_r+0x444>
 800a568:	2f00      	cmp	r7, #0
 800a56a:	dd33      	ble.n	800a5d4 <_dtoa_r+0x374>
 800a56c:	4b9c      	ldr	r3, [pc, #624]	@ (800a7e0 <_dtoa_r+0x580>)
 800a56e:	f007 020f 	and.w	r2, r7, #15
 800a572:	eb03 03c2 	add.w	r3, r3, r2, lsl #3
 800a576:	ed93 7b00 	vldr	d7, [r3]
 800a57a:	05f8      	lsls	r0, r7, #23
 800a57c:	ed8d 7b0e 	vstr	d7, [sp, #56]	@ 0x38
 800a580:	ea4f 1427 	mov.w	r4, r7, asr #4
 800a584:	d516      	bpl.n	800a5b4 <_dtoa_r+0x354>
 800a586:	4b97      	ldr	r3, [pc, #604]	@ (800a7e4 <_dtoa_r+0x584>)
 800a588:	e9dd 010a 	ldrd	r0, r1, [sp, #40]	@ 0x28
 800a58c:	e9d3 2308 	ldrd	r2, r3, [r3, #32]
 800a590:	f7f6 f95c 	bl	800084c <__aeabi_ddiv>
 800a594:	e9cd 0104 	strd	r0, r1, [sp, #16]
 800a598:	f004 040f 	and.w	r4, r4, #15
 800a59c:	2603      	movs	r6, #3
 800a59e:	4d91      	ldr	r5, [pc, #580]	@ (800a7e4 <_dtoa_r+0x584>)
 800a5a0:	b954      	cbnz	r4, 800a5b8 <_dtoa_r+0x358>
 800a5a2:	e9dd 230e 	ldrd	r2, r3, [sp, #56]	@ 0x38
 800a5a6:	e9dd 0104 	ldrd	r0, r1, [sp, #16]
 800a5aa:	f7f6 f94f 	bl	800084c <__aeabi_ddiv>
 800a5ae:	e9cd 0104 	strd	r0, r1, [sp, #16]
 800a5b2:	e028      	b.n	800a606 <_dtoa_r+0x3a6>
 800a5b4:	2602      	movs	r6, #2
 800a5b6:	e7f2      	b.n	800a59e <_dtoa_r+0x33e>
 800a5b8:	07e1      	lsls	r1, r4, #31
 800a5ba:	d508      	bpl.n	800a5ce <_dtoa_r+0x36e>
 800a5bc:	e9dd 010e 	ldrd	r0, r1, [sp, #56]	@ 0x38
 800a5c0:	e9d5 2300 	ldrd	r2, r3, [r5]
 800a5c4:	f7f6 f818 	bl	80005f8 <__aeabi_dmul>
 800a5c8:	e9cd 010e 	strd	r0, r1, [sp, #56]	@ 0x38
 800a5cc:	3601      	adds	r6, #1
 800a5ce:	1064      	asrs	r4, r4, #1
 800a5d0:	3508      	adds	r5, #8
 800a5d2:	e7e5      	b.n	800a5a0 <_dtoa_r+0x340>
 800a5d4:	f000 80af 	beq.w	800a736 <_dtoa_r+0x4d6>
 800a5d8:	427c      	negs	r4, r7
 800a5da:	4b81      	ldr	r3, [pc, #516]	@ (800a7e0 <_dtoa_r+0x580>)
 800a5dc:	4d81      	ldr	r5, [pc, #516]	@ (800a7e4 <_dtoa_r+0x584>)
 800a5de:	f004 020f 	and.w	r2, r4, #15
 800a5e2:	eb03 03c2 	add.w	r3, r3, r2, lsl #3
 800a5e6:	e9d3 2300 	ldrd	r2, r3, [r3]
 800a5ea:	e9dd 010a 	ldrd	r0, r1, [sp, #40]	@ 0x28
 800a5ee:	f7f6 f803 	bl	80005f8 <__aeabi_dmul>
 800a5f2:	e9cd 0104 	strd	r0, r1, [sp, #16]
 800a5f6:	1124      	asrs	r4, r4, #4
 800a5f8:	2300      	movs	r3, #0
 800a5fa:	2602      	movs	r6, #2
 800a5fc:	2c00      	cmp	r4, #0
 800a5fe:	f040 808f 	bne.w	800a720 <_dtoa_r+0x4c0>
 800a602:	2b00      	cmp	r3, #0
 800a604:	d1d3      	bne.n	800a5ae <_dtoa_r+0x34e>
 800a606:	9b10      	ldr	r3, [sp, #64]	@ 0x40
 800a608:	e9dd 4504 	ldrd	r4, r5, [sp, #16]
 800a60c:	2b00      	cmp	r3, #0
 800a60e:	f000 8094 	beq.w	800a73a <_dtoa_r+0x4da>
 800a612:	4b75      	ldr	r3, [pc, #468]	@ (800a7e8 <_dtoa_r+0x588>)
 800a614:	2200      	movs	r2, #0
 800a616:	4620      	mov	r0, r4
 800a618:	4629      	mov	r1, r5
 800a61a:	f7f6 fa5f 	bl	8000adc <__aeabi_dcmplt>
 800a61e:	2800      	cmp	r0, #0
 800a620:	f000 808b 	beq.w	800a73a <_dtoa_r+0x4da>
 800a624:	9b03      	ldr	r3, [sp, #12]
 800a626:	2b00      	cmp	r3, #0
 800a628:	f000 8087 	beq.w	800a73a <_dtoa_r+0x4da>
 800a62c:	f1bb 0f00 	cmp.w	fp, #0
 800a630:	dd34      	ble.n	800a69c <_dtoa_r+0x43c>
 800a632:	4620      	mov	r0, r4
 800a634:	4b6d      	ldr	r3, [pc, #436]	@ (800a7ec <_dtoa_r+0x58c>)
 800a636:	2200      	movs	r2, #0
 800a638:	4629      	mov	r1, r5
 800a63a:	f7f5 ffdd 	bl	80005f8 <__aeabi_dmul>
 800a63e:	e9cd 0104 	strd	r0, r1, [sp, #16]
 800a642:	f107 38ff 	add.w	r8, r7, #4294967295
 800a646:	3601      	adds	r6, #1
 800a648:	465c      	mov	r4, fp
 800a64a:	4630      	mov	r0, r6
 800a64c:	f7f5 ff6a 	bl	8000524 <__aeabi_i2d>
 800a650:	e9dd 2304 	ldrd	r2, r3, [sp, #16]
 800a654:	f7f5 ffd0 	bl	80005f8 <__aeabi_dmul>
 800a658:	4b65      	ldr	r3, [pc, #404]	@ (800a7f0 <_dtoa_r+0x590>)
 800a65a:	2200      	movs	r2, #0
 800a65c:	f7f5 fe16 	bl	800028c <__adddf3>
 800a660:	4605      	mov	r5, r0
 800a662:	f1a1 7650 	sub.w	r6, r1, #54525952	@ 0x3400000
 800a666:	2c00      	cmp	r4, #0
 800a668:	d16a      	bne.n	800a740 <_dtoa_r+0x4e0>
 800a66a:	e9dd 0104 	ldrd	r0, r1, [sp, #16]
 800a66e:	4b61      	ldr	r3, [pc, #388]	@ (800a7f4 <_dtoa_r+0x594>)
 800a670:	2200      	movs	r2, #0
 800a672:	f7f5 fe09 	bl	8000288 <__aeabi_dsub>
 800a676:	4602      	mov	r2, r0
 800a678:	460b      	mov	r3, r1
 800a67a:	e9cd 2304 	strd	r2, r3, [sp, #16]
 800a67e:	462a      	mov	r2, r5
 800a680:	4633      	mov	r3, r6
 800a682:	f7f6 fa49 	bl	8000b18 <__aeabi_dcmpgt>
 800a686:	2800      	cmp	r0, #0
 800a688:	f040 8298 	bne.w	800abbc <_dtoa_r+0x95c>
 800a68c:	e9dd 0104 	ldrd	r0, r1, [sp, #16]
 800a690:	462a      	mov	r2, r5
 800a692:	f106 4300 	add.w	r3, r6, #2147483648	@ 0x80000000
 800a696:	f7f6 fa21 	bl	8000adc <__aeabi_dcmplt>
 800a69a:	bb38      	cbnz	r0, 800a6ec <_dtoa_r+0x48c>
 800a69c:	e9dd 340a 	ldrd	r3, r4, [sp, #40]	@ 0x28
 800a6a0:	e9cd 3404 	strd	r3, r4, [sp, #16]
 800a6a4:	9b15      	ldr	r3, [sp, #84]	@ 0x54
 800a6a6:	2b00      	cmp	r3, #0
 800a6a8:	f2c0 8157 	blt.w	800a95a <_dtoa_r+0x6fa>
 800a6ac:	2f0e      	cmp	r7, #14
 800a6ae:	f300 8154 	bgt.w	800a95a <_dtoa_r+0x6fa>
 800a6b2:	4b4b      	ldr	r3, [pc, #300]	@ (800a7e0 <_dtoa_r+0x580>)
 800a6b4:	eb03 03c7 	add.w	r3, r3, r7, lsl #3
 800a6b8:	ed93 7b00 	vldr	d7, [r3]
 800a6bc:	9b0c      	ldr	r3, [sp, #48]	@ 0x30
 800a6be:	2b00      	cmp	r3, #0
 800a6c0:	ed8d 7b00 	vstr	d7, [sp]
 800a6c4:	f280 80e5 	bge.w	800a892 <_dtoa_r+0x632>
 800a6c8:	9b03      	ldr	r3, [sp, #12]
 800a6ca:	2b00      	cmp	r3, #0
 800a6cc:	f300 80e1 	bgt.w	800a892 <_dtoa_r+0x632>
 800a6d0:	d10c      	bne.n	800a6ec <_dtoa_r+0x48c>
 800a6d2:	4b48      	ldr	r3, [pc, #288]	@ (800a7f4 <_dtoa_r+0x594>)
 800a6d4:	2200      	movs	r2, #0
 800a6d6:	ec51 0b17 	vmov	r0, r1, d7
 800a6da:	f7f5 ff8d 	bl	80005f8 <__aeabi_dmul>
 800a6de:	e9dd 2304 	ldrd	r2, r3, [sp, #16]
 800a6e2:	f7f6 fa0f 	bl	8000b04 <__aeabi_dcmpge>
 800a6e6:	2800      	cmp	r0, #0
 800a6e8:	f000 8266 	beq.w	800abb8 <_dtoa_r+0x958>
 800a6ec:	2400      	movs	r4, #0
 800a6ee:	4625      	mov	r5, r4
 800a6f0:	9b0c      	ldr	r3, [sp, #48]	@ 0x30
 800a6f2:	4656      	mov	r6, sl
 800a6f4:	ea6f 0803 	mvn.w	r8, r3
 800a6f8:	2700      	movs	r7, #0
 800a6fa:	4621      	mov	r1, r4
 800a6fc:	4648      	mov	r0, r9
 800a6fe:	f000 ff55 	bl	800b5ac <_Bfree>
 800a702:	2d00      	cmp	r5, #0
 800a704:	f000 80bd 	beq.w	800a882 <_dtoa_r+0x622>
 800a708:	b12f      	cbz	r7, 800a716 <_dtoa_r+0x4b6>
 800a70a:	42af      	cmp	r7, r5
 800a70c:	d003      	beq.n	800a716 <_dtoa_r+0x4b6>
 800a70e:	4639      	mov	r1, r7
 800a710:	4648      	mov	r0, r9
 800a712:	f000 ff4b 	bl	800b5ac <_Bfree>
 800a716:	4629      	mov	r1, r5
 800a718:	4648      	mov	r0, r9
 800a71a:	f000 ff47 	bl	800b5ac <_Bfree>
 800a71e:	e0b0      	b.n	800a882 <_dtoa_r+0x622>
 800a720:	07e2      	lsls	r2, r4, #31
 800a722:	d505      	bpl.n	800a730 <_dtoa_r+0x4d0>
 800a724:	e9d5 2300 	ldrd	r2, r3, [r5]
 800a728:	f7f5 ff66 	bl	80005f8 <__aeabi_dmul>
 800a72c:	3601      	adds	r6, #1
 800a72e:	2301      	movs	r3, #1
 800a730:	1064      	asrs	r4, r4, #1
 800a732:	3508      	adds	r5, #8
 800a734:	e762      	b.n	800a5fc <_dtoa_r+0x39c>
 800a736:	2602      	movs	r6, #2
 800a738:	e765      	b.n	800a606 <_dtoa_r+0x3a6>
 800a73a:	9c03      	ldr	r4, [sp, #12]
 800a73c:	46b8      	mov	r8, r7
 800a73e:	e784      	b.n	800a64a <_dtoa_r+0x3ea>
 800a740:	4b27      	ldr	r3, [pc, #156]	@ (800a7e0 <_dtoa_r+0x580>)
 800a742:	9909      	ldr	r1, [sp, #36]	@ 0x24
 800a744:	eb03 03c4 	add.w	r3, r3, r4, lsl #3
 800a748:	e953 2302 	ldrd	r2, r3, [r3, #-8]
 800a74c:	4454      	add	r4, sl
 800a74e:	2900      	cmp	r1, #0
 800a750:	d054      	beq.n	800a7fc <_dtoa_r+0x59c>
 800a752:	4929      	ldr	r1, [pc, #164]	@ (800a7f8 <_dtoa_r+0x598>)
 800a754:	2000      	movs	r0, #0
 800a756:	f7f6 f879 	bl	800084c <__aeabi_ddiv>
 800a75a:	4633      	mov	r3, r6
 800a75c:	462a      	mov	r2, r5
 800a75e:	f7f5 fd93 	bl	8000288 <__aeabi_dsub>
 800a762:	e9cd 010e 	strd	r0, r1, [sp, #56]	@ 0x38
 800a766:	4656      	mov	r6, sl
 800a768:	e9dd 0104 	ldrd	r0, r1, [sp, #16]
 800a76c:	f7f6 f9f4 	bl	8000b58 <__aeabi_d2iz>
 800a770:	4605      	mov	r5, r0
 800a772:	f7f5 fed7 	bl	8000524 <__aeabi_i2d>
 800a776:	4602      	mov	r2, r0
 800a778:	460b      	mov	r3, r1
 800a77a:	e9dd 0104 	ldrd	r0, r1, [sp, #16]
 800a77e:	f7f5 fd83 	bl	8000288 <__aeabi_dsub>
 800a782:	3530      	adds	r5, #48	@ 0x30
 800a784:	4602      	mov	r2, r0
 800a786:	460b      	mov	r3, r1
 800a788:	e9cd 2304 	strd	r2, r3, [sp, #16]
 800a78c:	f806 5b01 	strb.w	r5, [r6], #1
 800a790:	e9dd 230e 	ldrd	r2, r3, [sp, #56]	@ 0x38
 800a794:	f7f6 f9a2 	bl	8000adc <__aeabi_dcmplt>
 800a798:	2800      	cmp	r0, #0
 800a79a:	d172      	bne.n	800a882 <_dtoa_r+0x622>
 800a79c:	e9dd 2304 	ldrd	r2, r3, [sp, #16]
 800a7a0:	4911      	ldr	r1, [pc, #68]	@ (800a7e8 <_dtoa_r+0x588>)
 800a7a2:	2000      	movs	r0, #0
 800a7a4:	f7f5 fd70 	bl	8000288 <__aeabi_dsub>
 800a7a8:	e9dd 230e 	ldrd	r2, r3, [sp, #56]	@ 0x38
 800a7ac:	f7f6 f996 	bl	8000adc <__aeabi_dcmplt>
 800a7b0:	2800      	cmp	r0, #0
 800a7b2:	f040 80b4 	bne.w	800a91e <_dtoa_r+0x6be>
 800a7b6:	42a6      	cmp	r6, r4
 800a7b8:	f43f af70 	beq.w	800a69c <_dtoa_r+0x43c>
 800a7bc:	e9dd 010e 	ldrd	r0, r1, [sp, #56]	@ 0x38
 800a7c0:	4b0a      	ldr	r3, [pc, #40]	@ (800a7ec <_dtoa_r+0x58c>)
 800a7c2:	2200      	movs	r2, #0
 800a7c4:	f7f5 ff18 	bl	80005f8 <__aeabi_dmul>
 800a7c8:	4b08      	ldr	r3, [pc, #32]	@ (800a7ec <_dtoa_r+0x58c>)
 800a7ca:	e9cd 010e 	strd	r0, r1, [sp, #56]	@ 0x38
 800a7ce:	2200      	movs	r2, #0
 800a7d0:	e9dd 0104 	ldrd	r0, r1, [sp, #16]
 800a7d4:	f7f5 ff10 	bl	80005f8 <__aeabi_dmul>
 800a7d8:	e9cd 0104 	strd	r0, r1, [sp, #16]
 800a7dc:	e7c4      	b.n	800a768 <_dtoa_r+0x508>
 800a7de:	bf00      	nop
 800a7e0:	0800cf20 	.word	0x0800cf20
 800a7e4:	0800cef8 	.word	0x0800cef8
 800a7e8:	3ff00000 	.word	0x3ff00000
 800a7ec:	40240000 	.word	0x40240000
 800a7f0:	401c0000 	.word	0x401c0000
 800a7f4:	40140000 	.word	0x40140000
 800a7f8:	3fe00000 	.word	0x3fe00000
 800a7fc:	4631      	mov	r1, r6
 800a7fe:	4628      	mov	r0, r5
 800a800:	f7f5 fefa 	bl	80005f8 <__aeabi_dmul>
 800a804:	e9cd 010e 	strd	r0, r1, [sp, #56]	@ 0x38
 800a808:	9413      	str	r4, [sp, #76]	@ 0x4c
 800a80a:	4656      	mov	r6, sl
 800a80c:	e9dd 0104 	ldrd	r0, r1, [sp, #16]
 800a810:	f7f6 f9a2 	bl	8000b58 <__aeabi_d2iz>
 800a814:	4605      	mov	r5, r0
 800a816:	f7f5 fe85 	bl	8000524 <__aeabi_i2d>
 800a81a:	4602      	mov	r2, r0
 800a81c:	460b      	mov	r3, r1
 800a81e:	e9dd 0104 	ldrd	r0, r1, [sp, #16]
 800a822:	f7f5 fd31 	bl	8000288 <__aeabi_dsub>
 800a826:	3530      	adds	r5, #48	@ 0x30
 800a828:	f806 5b01 	strb.w	r5, [r6], #1
 800a82c:	4602      	mov	r2, r0
 800a82e:	460b      	mov	r3, r1
 800a830:	42a6      	cmp	r6, r4
 800a832:	e9cd 2304 	strd	r2, r3, [sp, #16]
 800a836:	f04f 0200 	mov.w	r2, #0
 800a83a:	d124      	bne.n	800a886 <_dtoa_r+0x626>
 800a83c:	4baf      	ldr	r3, [pc, #700]	@ (800aafc <_dtoa_r+0x89c>)
 800a83e:	e9dd 010e 	ldrd	r0, r1, [sp, #56]	@ 0x38
 800a842:	f7f5 fd23 	bl	800028c <__adddf3>
 800a846:	4602      	mov	r2, r0
 800a848:	460b      	mov	r3, r1
 800a84a:	e9dd 0104 	ldrd	r0, r1, [sp, #16]
 800a84e:	f7f6 f963 	bl	8000b18 <__aeabi_dcmpgt>
 800a852:	2800      	cmp	r0, #0
 800a854:	d163      	bne.n	800a91e <_dtoa_r+0x6be>
 800a856:	e9dd 230e 	ldrd	r2, r3, [sp, #56]	@ 0x38
 800a85a:	49a8      	ldr	r1, [pc, #672]	@ (800aafc <_dtoa_r+0x89c>)
 800a85c:	2000      	movs	r0, #0
 800a85e:	f7f5 fd13 	bl	8000288 <__aeabi_dsub>
 800a862:	4602      	mov	r2, r0
 800a864:	460b      	mov	r3, r1
 800a866:	e9dd 0104 	ldrd	r0, r1, [sp, #16]
 800a86a:	f7f6 f937 	bl	8000adc <__aeabi_dcmplt>
 800a86e:	2800      	cmp	r0, #0
 800a870:	f43f af14 	beq.w	800a69c <_dtoa_r+0x43c>
 800a874:	9e13      	ldr	r6, [sp, #76]	@ 0x4c
 800a876:	1e73      	subs	r3, r6, #1
 800a878:	9313      	str	r3, [sp, #76]	@ 0x4c
 800a87a:	f816 3c01 	ldrb.w	r3, [r6, #-1]
 800a87e:	2b30      	cmp	r3, #48	@ 0x30
 800a880:	d0f8      	beq.n	800a874 <_dtoa_r+0x614>
 800a882:	4647      	mov	r7, r8
 800a884:	e03b      	b.n	800a8fe <_dtoa_r+0x69e>
 800a886:	4b9e      	ldr	r3, [pc, #632]	@ (800ab00 <_dtoa_r+0x8a0>)
 800a888:	f7f5 feb6 	bl	80005f8 <__aeabi_dmul>
 800a88c:	e9cd 0104 	strd	r0, r1, [sp, #16]
 800a890:	e7bc      	b.n	800a80c <_dtoa_r+0x5ac>
 800a892:	e9dd 4504 	ldrd	r4, r5, [sp, #16]
 800a896:	4656      	mov	r6, sl
 800a898:	e9dd 2300 	ldrd	r2, r3, [sp]
 800a89c:	4620      	mov	r0, r4
 800a89e:	4629      	mov	r1, r5
 800a8a0:	f7f5 ffd4 	bl	800084c <__aeabi_ddiv>
 800a8a4:	f7f6 f958 	bl	8000b58 <__aeabi_d2iz>
 800a8a8:	4680      	mov	r8, r0
 800a8aa:	f7f5 fe3b 	bl	8000524 <__aeabi_i2d>
 800a8ae:	e9dd 2300 	ldrd	r2, r3, [sp]
 800a8b2:	f7f5 fea1 	bl	80005f8 <__aeabi_dmul>
 800a8b6:	4602      	mov	r2, r0
 800a8b8:	460b      	mov	r3, r1
 800a8ba:	4620      	mov	r0, r4
 800a8bc:	4629      	mov	r1, r5
 800a8be:	f108 0430 	add.w	r4, r8, #48	@ 0x30
 800a8c2:	f7f5 fce1 	bl	8000288 <__aeabi_dsub>
 800a8c6:	f806 4b01 	strb.w	r4, [r6], #1
 800a8ca:	9d03      	ldr	r5, [sp, #12]
 800a8cc:	eba6 040a 	sub.w	r4, r6, sl
 800a8d0:	42a5      	cmp	r5, r4
 800a8d2:	4602      	mov	r2, r0
 800a8d4:	460b      	mov	r3, r1
 800a8d6:	d133      	bne.n	800a940 <_dtoa_r+0x6e0>
 800a8d8:	f7f5 fcd8 	bl	800028c <__adddf3>
 800a8dc:	e9dd 2300 	ldrd	r2, r3, [sp]
 800a8e0:	4604      	mov	r4, r0
 800a8e2:	460d      	mov	r5, r1
 800a8e4:	f7f6 f918 	bl	8000b18 <__aeabi_dcmpgt>
 800a8e8:	b9c0      	cbnz	r0, 800a91c <_dtoa_r+0x6bc>
 800a8ea:	e9dd 2300 	ldrd	r2, r3, [sp]
 800a8ee:	4620      	mov	r0, r4
 800a8f0:	4629      	mov	r1, r5
 800a8f2:	f7f6 f8e9 	bl	8000ac8 <__aeabi_dcmpeq>
 800a8f6:	b110      	cbz	r0, 800a8fe <_dtoa_r+0x69e>
 800a8f8:	f018 0f01 	tst.w	r8, #1
 800a8fc:	d10e      	bne.n	800a91c <_dtoa_r+0x6bc>
 800a8fe:	9902      	ldr	r1, [sp, #8]
 800a900:	4648      	mov	r0, r9
 800a902:	f000 fe53 	bl	800b5ac <_Bfree>
 800a906:	2300      	movs	r3, #0
 800a908:	7033      	strb	r3, [r6, #0]
 800a90a:	9b11      	ldr	r3, [sp, #68]	@ 0x44
 800a90c:	3701      	adds	r7, #1
 800a90e:	601f      	str	r7, [r3, #0]
 800a910:	9b21      	ldr	r3, [sp, #132]	@ 0x84
 800a912:	2b00      	cmp	r3, #0
 800a914:	f000 824b 	beq.w	800adae <_dtoa_r+0xb4e>
 800a918:	601e      	str	r6, [r3, #0]
 800a91a:	e248      	b.n	800adae <_dtoa_r+0xb4e>
 800a91c:	46b8      	mov	r8, r7
 800a91e:	4633      	mov	r3, r6
 800a920:	461e      	mov	r6, r3
 800a922:	f813 2d01 	ldrb.w	r2, [r3, #-1]!
 800a926:	2a39      	cmp	r2, #57	@ 0x39
 800a928:	d106      	bne.n	800a938 <_dtoa_r+0x6d8>
 800a92a:	459a      	cmp	sl, r3
 800a92c:	d1f8      	bne.n	800a920 <_dtoa_r+0x6c0>
 800a92e:	2230      	movs	r2, #48	@ 0x30
 800a930:	f108 0801 	add.w	r8, r8, #1
 800a934:	f88a 2000 	strb.w	r2, [sl]
 800a938:	781a      	ldrb	r2, [r3, #0]
 800a93a:	3201      	adds	r2, #1
 800a93c:	701a      	strb	r2, [r3, #0]
 800a93e:	e7a0      	b.n	800a882 <_dtoa_r+0x622>
 800a940:	4b6f      	ldr	r3, [pc, #444]	@ (800ab00 <_dtoa_r+0x8a0>)
 800a942:	2200      	movs	r2, #0
 800a944:	f7f5 fe58 	bl	80005f8 <__aeabi_dmul>
 800a948:	2200      	movs	r2, #0
 800a94a:	2300      	movs	r3, #0
 800a94c:	4604      	mov	r4, r0
 800a94e:	460d      	mov	r5, r1
 800a950:	f7f6 f8ba 	bl	8000ac8 <__aeabi_dcmpeq>
 800a954:	2800      	cmp	r0, #0
 800a956:	d09f      	beq.n	800a898 <_dtoa_r+0x638>
 800a958:	e7d1      	b.n	800a8fe <_dtoa_r+0x69e>
 800a95a:	9a09      	ldr	r2, [sp, #36]	@ 0x24
 800a95c:	2a00      	cmp	r2, #0
 800a95e:	f000 80ea 	beq.w	800ab36 <_dtoa_r+0x8d6>
 800a962:	9a07      	ldr	r2, [sp, #28]
 800a964:	2a01      	cmp	r2, #1
 800a966:	f300 80cd 	bgt.w	800ab04 <_dtoa_r+0x8a4>
 800a96a:	9a12      	ldr	r2, [sp, #72]	@ 0x48
 800a96c:	2a00      	cmp	r2, #0
 800a96e:	f000 80c1 	beq.w	800aaf4 <_dtoa_r+0x894>
 800a972:	f203 4333 	addw	r3, r3, #1075	@ 0x433
 800a976:	9c08      	ldr	r4, [sp, #32]
 800a978:	9e00      	ldr	r6, [sp, #0]
 800a97a:	9a00      	ldr	r2, [sp, #0]
 800a97c:	441a      	add	r2, r3
 800a97e:	9200      	str	r2, [sp, #0]
 800a980:	9a06      	ldr	r2, [sp, #24]
 800a982:	2101      	movs	r1, #1
 800a984:	441a      	add	r2, r3
 800a986:	4648      	mov	r0, r9
 800a988:	9206      	str	r2, [sp, #24]
 800a98a:	f000 ff0d 	bl	800b7a8 <__i2b>
 800a98e:	4605      	mov	r5, r0
 800a990:	b166      	cbz	r6, 800a9ac <_dtoa_r+0x74c>
 800a992:	9b06      	ldr	r3, [sp, #24]
 800a994:	2b00      	cmp	r3, #0
 800a996:	dd09      	ble.n	800a9ac <_dtoa_r+0x74c>
 800a998:	42b3      	cmp	r3, r6
 800a99a:	9a00      	ldr	r2, [sp, #0]
 800a99c:	bfa8      	it	ge
 800a99e:	4633      	movge	r3, r6
 800a9a0:	1ad2      	subs	r2, r2, r3
 800a9a2:	9200      	str	r2, [sp, #0]
 800a9a4:	9a06      	ldr	r2, [sp, #24]
 800a9a6:	1af6      	subs	r6, r6, r3
 800a9a8:	1ad3      	subs	r3, r2, r3
 800a9aa:	9306      	str	r3, [sp, #24]
 800a9ac:	9b08      	ldr	r3, [sp, #32]
 800a9ae:	b30b      	cbz	r3, 800a9f4 <_dtoa_r+0x794>
 800a9b0:	9b09      	ldr	r3, [sp, #36]	@ 0x24
 800a9b2:	2b00      	cmp	r3, #0
 800a9b4:	f000 80c6 	beq.w	800ab44 <_dtoa_r+0x8e4>
 800a9b8:	2c00      	cmp	r4, #0
 800a9ba:	f000 80c0 	beq.w	800ab3e <_dtoa_r+0x8de>
 800a9be:	4629      	mov	r1, r5
 800a9c0:	4622      	mov	r2, r4
 800a9c2:	4648      	mov	r0, r9
 800a9c4:	f000 ffa8 	bl	800b918 <__pow5mult>
 800a9c8:	9a02      	ldr	r2, [sp, #8]
 800a9ca:	4601      	mov	r1, r0
 800a9cc:	4605      	mov	r5, r0
 800a9ce:	4648      	mov	r0, r9
 800a9d0:	f000 ff00 	bl	800b7d4 <__multiply>
 800a9d4:	9902      	ldr	r1, [sp, #8]
 800a9d6:	4680      	mov	r8, r0
 800a9d8:	4648      	mov	r0, r9
 800a9da:	f000 fde7 	bl	800b5ac <_Bfree>
 800a9de:	9b08      	ldr	r3, [sp, #32]
 800a9e0:	1b1b      	subs	r3, r3, r4
 800a9e2:	9308      	str	r3, [sp, #32]
 800a9e4:	f000 80b1 	beq.w	800ab4a <_dtoa_r+0x8ea>
 800a9e8:	9a08      	ldr	r2, [sp, #32]
 800a9ea:	4641      	mov	r1, r8
 800a9ec:	4648      	mov	r0, r9
 800a9ee:	f000 ff93 	bl	800b918 <__pow5mult>
 800a9f2:	9002      	str	r0, [sp, #8]
 800a9f4:	2101      	movs	r1, #1
 800a9f6:	4648      	mov	r0, r9
 800a9f8:	f000 fed6 	bl	800b7a8 <__i2b>
 800a9fc:	9b0d      	ldr	r3, [sp, #52]	@ 0x34
 800a9fe:	4604      	mov	r4, r0
 800aa00:	2b00      	cmp	r3, #0
 800aa02:	f000 81d8 	beq.w	800adb6 <_dtoa_r+0xb56>
 800aa06:	461a      	mov	r2, r3
 800aa08:	4601      	mov	r1, r0
 800aa0a:	4648      	mov	r0, r9
 800aa0c:	f000 ff84 	bl	800b918 <__pow5mult>
 800aa10:	9b07      	ldr	r3, [sp, #28]
 800aa12:	2b01      	cmp	r3, #1
 800aa14:	4604      	mov	r4, r0
 800aa16:	f300 809f 	bgt.w	800ab58 <_dtoa_r+0x8f8>
 800aa1a:	9b04      	ldr	r3, [sp, #16]
 800aa1c:	2b00      	cmp	r3, #0
 800aa1e:	f040 8097 	bne.w	800ab50 <_dtoa_r+0x8f0>
 800aa22:	9b05      	ldr	r3, [sp, #20]
 800aa24:	f3c3 0313 	ubfx	r3, r3, #0, #20
 800aa28:	2b00      	cmp	r3, #0
 800aa2a:	f040 8093 	bne.w	800ab54 <_dtoa_r+0x8f4>
 800aa2e:	9b05      	ldr	r3, [sp, #20]
 800aa30:	f023 4300 	bic.w	r3, r3, #2147483648	@ 0x80000000
 800aa34:	0d1b      	lsrs	r3, r3, #20
 800aa36:	051b      	lsls	r3, r3, #20
 800aa38:	b133      	cbz	r3, 800aa48 <_dtoa_r+0x7e8>
 800aa3a:	9b00      	ldr	r3, [sp, #0]
 800aa3c:	3301      	adds	r3, #1
 800aa3e:	9300      	str	r3, [sp, #0]
 800aa40:	9b06      	ldr	r3, [sp, #24]
 800aa42:	3301      	adds	r3, #1
 800aa44:	9306      	str	r3, [sp, #24]
 800aa46:	2301      	movs	r3, #1
 800aa48:	9308      	str	r3, [sp, #32]
 800aa4a:	9b0d      	ldr	r3, [sp, #52]	@ 0x34
 800aa4c:	2b00      	cmp	r3, #0
 800aa4e:	f000 81b8 	beq.w	800adc2 <_dtoa_r+0xb62>
 800aa52:	6923      	ldr	r3, [r4, #16]
 800aa54:	eb04 0383 	add.w	r3, r4, r3, lsl #2
 800aa58:	6918      	ldr	r0, [r3, #16]
 800aa5a:	f000 fe59 	bl	800b710 <__hi0bits>
 800aa5e:	f1c0 0020 	rsb	r0, r0, #32
 800aa62:	9b06      	ldr	r3, [sp, #24]
 800aa64:	4418      	add	r0, r3
 800aa66:	f010 001f 	ands.w	r0, r0, #31
 800aa6a:	f000 8082 	beq.w	800ab72 <_dtoa_r+0x912>
 800aa6e:	f1c0 0320 	rsb	r3, r0, #32
 800aa72:	2b04      	cmp	r3, #4
 800aa74:	dd73      	ble.n	800ab5e <_dtoa_r+0x8fe>
 800aa76:	9b00      	ldr	r3, [sp, #0]
 800aa78:	f1c0 001c 	rsb	r0, r0, #28
 800aa7c:	4403      	add	r3, r0
 800aa7e:	9300      	str	r3, [sp, #0]
 800aa80:	9b06      	ldr	r3, [sp, #24]
 800aa82:	4403      	add	r3, r0
 800aa84:	4406      	add	r6, r0
 800aa86:	9306      	str	r3, [sp, #24]
 800aa88:	9b00      	ldr	r3, [sp, #0]
 800aa8a:	2b00      	cmp	r3, #0
 800aa8c:	dd05      	ble.n	800aa9a <_dtoa_r+0x83a>
 800aa8e:	9902      	ldr	r1, [sp, #8]
 800aa90:	461a      	mov	r2, r3
 800aa92:	4648      	mov	r0, r9
 800aa94:	f000 ff9a 	bl	800b9cc <__lshift>
 800aa98:	9002      	str	r0, [sp, #8]
 800aa9a:	9b06      	ldr	r3, [sp, #24]
 800aa9c:	2b00      	cmp	r3, #0
 800aa9e:	dd05      	ble.n	800aaac <_dtoa_r+0x84c>
 800aaa0:	4621      	mov	r1, r4
 800aaa2:	461a      	mov	r2, r3
 800aaa4:	4648      	mov	r0, r9
 800aaa6:	f000 ff91 	bl	800b9cc <__lshift>
 800aaaa:	4604      	mov	r4, r0
 800aaac:	9b10      	ldr	r3, [sp, #64]	@ 0x40
 800aaae:	2b00      	cmp	r3, #0
 800aab0:	d061      	beq.n	800ab76 <_dtoa_r+0x916>
 800aab2:	9802      	ldr	r0, [sp, #8]
 800aab4:	4621      	mov	r1, r4
 800aab6:	f000 fff5 	bl	800baa4 <__mcmp>
 800aaba:	2800      	cmp	r0, #0
 800aabc:	da5b      	bge.n	800ab76 <_dtoa_r+0x916>
 800aabe:	2300      	movs	r3, #0
 800aac0:	9902      	ldr	r1, [sp, #8]
 800aac2:	220a      	movs	r2, #10
 800aac4:	4648      	mov	r0, r9
 800aac6:	f000 fd93 	bl	800b5f0 <__multadd>
 800aaca:	9b09      	ldr	r3, [sp, #36]	@ 0x24
 800aacc:	9002      	str	r0, [sp, #8]
 800aace:	f107 38ff 	add.w	r8, r7, #4294967295
 800aad2:	2b00      	cmp	r3, #0
 800aad4:	f000 8177 	beq.w	800adc6 <_dtoa_r+0xb66>
 800aad8:	4629      	mov	r1, r5
 800aada:	2300      	movs	r3, #0
 800aadc:	220a      	movs	r2, #10
 800aade:	4648      	mov	r0, r9
 800aae0:	f000 fd86 	bl	800b5f0 <__multadd>
 800aae4:	f1bb 0f00 	cmp.w	fp, #0
 800aae8:	4605      	mov	r5, r0
 800aaea:	dc6f      	bgt.n	800abcc <_dtoa_r+0x96c>
 800aaec:	9b07      	ldr	r3, [sp, #28]
 800aaee:	2b02      	cmp	r3, #2
 800aaf0:	dc49      	bgt.n	800ab86 <_dtoa_r+0x926>
 800aaf2:	e06b      	b.n	800abcc <_dtoa_r+0x96c>
 800aaf4:	9b14      	ldr	r3, [sp, #80]	@ 0x50
 800aaf6:	f1c3 0336 	rsb	r3, r3, #54	@ 0x36
 800aafa:	e73c      	b.n	800a976 <_dtoa_r+0x716>
 800aafc:	3fe00000 	.word	0x3fe00000
 800ab00:	40240000 	.word	0x40240000
 800ab04:	9b03      	ldr	r3, [sp, #12]
 800ab06:	1e5c      	subs	r4, r3, #1
 800ab08:	9b08      	ldr	r3, [sp, #32]
 800ab0a:	42a3      	cmp	r3, r4
 800ab0c:	db09      	blt.n	800ab22 <_dtoa_r+0x8c2>
 800ab0e:	1b1c      	subs	r4, r3, r4
 800ab10:	9b03      	ldr	r3, [sp, #12]
 800ab12:	2b00      	cmp	r3, #0
 800ab14:	f6bf af30 	bge.w	800a978 <_dtoa_r+0x718>
 800ab18:	9b00      	ldr	r3, [sp, #0]
 800ab1a:	9a03      	ldr	r2, [sp, #12]
 800ab1c:	1a9e      	subs	r6, r3, r2
 800ab1e:	2300      	movs	r3, #0
 800ab20:	e72b      	b.n	800a97a <_dtoa_r+0x71a>
 800ab22:	9b08      	ldr	r3, [sp, #32]
 800ab24:	9a0d      	ldr	r2, [sp, #52]	@ 0x34
 800ab26:	9408      	str	r4, [sp, #32]
 800ab28:	1ae3      	subs	r3, r4, r3
 800ab2a:	441a      	add	r2, r3
 800ab2c:	9e00      	ldr	r6, [sp, #0]
 800ab2e:	9b03      	ldr	r3, [sp, #12]
 800ab30:	920d      	str	r2, [sp, #52]	@ 0x34
 800ab32:	2400      	movs	r4, #0
 800ab34:	e721      	b.n	800a97a <_dtoa_r+0x71a>
 800ab36:	9c08      	ldr	r4, [sp, #32]
 800ab38:	9e00      	ldr	r6, [sp, #0]
 800ab3a:	9d09      	ldr	r5, [sp, #36]	@ 0x24
 800ab3c:	e728      	b.n	800a990 <_dtoa_r+0x730>
 800ab3e:	f8dd 8008 	ldr.w	r8, [sp, #8]
 800ab42:	e751      	b.n	800a9e8 <_dtoa_r+0x788>
 800ab44:	9a08      	ldr	r2, [sp, #32]
 800ab46:	9902      	ldr	r1, [sp, #8]
 800ab48:	e750      	b.n	800a9ec <_dtoa_r+0x78c>
 800ab4a:	f8cd 8008 	str.w	r8, [sp, #8]
 800ab4e:	e751      	b.n	800a9f4 <_dtoa_r+0x794>
 800ab50:	2300      	movs	r3, #0
 800ab52:	e779      	b.n	800aa48 <_dtoa_r+0x7e8>
 800ab54:	9b04      	ldr	r3, [sp, #16]
 800ab56:	e777      	b.n	800aa48 <_dtoa_r+0x7e8>
 800ab58:	2300      	movs	r3, #0
 800ab5a:	9308      	str	r3, [sp, #32]
 800ab5c:	e779      	b.n	800aa52 <_dtoa_r+0x7f2>
 800ab5e:	d093      	beq.n	800aa88 <_dtoa_r+0x828>
 800ab60:	9a00      	ldr	r2, [sp, #0]
 800ab62:	331c      	adds	r3, #28
 800ab64:	441a      	add	r2, r3
 800ab66:	9200      	str	r2, [sp, #0]
 800ab68:	9a06      	ldr	r2, [sp, #24]
 800ab6a:	441a      	add	r2, r3
 800ab6c:	441e      	add	r6, r3
 800ab6e:	9206      	str	r2, [sp, #24]
 800ab70:	e78a      	b.n	800aa88 <_dtoa_r+0x828>
 800ab72:	4603      	mov	r3, r0
 800ab74:	e7f4      	b.n	800ab60 <_dtoa_r+0x900>
 800ab76:	9b03      	ldr	r3, [sp, #12]
 800ab78:	2b00      	cmp	r3, #0
 800ab7a:	46b8      	mov	r8, r7
 800ab7c:	dc20      	bgt.n	800abc0 <_dtoa_r+0x960>
 800ab7e:	469b      	mov	fp, r3
 800ab80:	9b07      	ldr	r3, [sp, #28]
 800ab82:	2b02      	cmp	r3, #2
 800ab84:	dd1e      	ble.n	800abc4 <_dtoa_r+0x964>
 800ab86:	f1bb 0f00 	cmp.w	fp, #0
 800ab8a:	f47f adb1 	bne.w	800a6f0 <_dtoa_r+0x490>
 800ab8e:	4621      	mov	r1, r4
 800ab90:	465b      	mov	r3, fp
 800ab92:	2205      	movs	r2, #5
 800ab94:	4648      	mov	r0, r9
 800ab96:	f000 fd2b 	bl	800b5f0 <__multadd>
 800ab9a:	4601      	mov	r1, r0
 800ab9c:	4604      	mov	r4, r0
 800ab9e:	9802      	ldr	r0, [sp, #8]
 800aba0:	f000 ff80 	bl	800baa4 <__mcmp>
 800aba4:	2800      	cmp	r0, #0
 800aba6:	f77f ada3 	ble.w	800a6f0 <_dtoa_r+0x490>
 800abaa:	4656      	mov	r6, sl
 800abac:	2331      	movs	r3, #49	@ 0x31
 800abae:	f806 3b01 	strb.w	r3, [r6], #1
 800abb2:	f108 0801 	add.w	r8, r8, #1
 800abb6:	e59f      	b.n	800a6f8 <_dtoa_r+0x498>
 800abb8:	9c03      	ldr	r4, [sp, #12]
 800abba:	46b8      	mov	r8, r7
 800abbc:	4625      	mov	r5, r4
 800abbe:	e7f4      	b.n	800abaa <_dtoa_r+0x94a>
 800abc0:	f8dd b00c 	ldr.w	fp, [sp, #12]
 800abc4:	9b09      	ldr	r3, [sp, #36]	@ 0x24
 800abc6:	2b00      	cmp	r3, #0
 800abc8:	f000 8101 	beq.w	800adce <_dtoa_r+0xb6e>
 800abcc:	2e00      	cmp	r6, #0
 800abce:	dd05      	ble.n	800abdc <_dtoa_r+0x97c>
 800abd0:	4629      	mov	r1, r5
 800abd2:	4632      	mov	r2, r6
 800abd4:	4648      	mov	r0, r9
 800abd6:	f000 fef9 	bl	800b9cc <__lshift>
 800abda:	4605      	mov	r5, r0
 800abdc:	9b08      	ldr	r3, [sp, #32]
 800abde:	2b00      	cmp	r3, #0
 800abe0:	d05c      	beq.n	800ac9c <_dtoa_r+0xa3c>
 800abe2:	6869      	ldr	r1, [r5, #4]
 800abe4:	4648      	mov	r0, r9
 800abe6:	f000 fca1 	bl	800b52c <_Balloc>
 800abea:	4606      	mov	r6, r0
 800abec:	b928      	cbnz	r0, 800abfa <_dtoa_r+0x99a>
 800abee:	4b82      	ldr	r3, [pc, #520]	@ (800adf8 <_dtoa_r+0xb98>)
 800abf0:	4602      	mov	r2, r0
 800abf2:	f240 21ef 	movw	r1, #751	@ 0x2ef
 800abf6:	f7ff bb4a 	b.w	800a28e <_dtoa_r+0x2e>
 800abfa:	692a      	ldr	r2, [r5, #16]
 800abfc:	3202      	adds	r2, #2
 800abfe:	0092      	lsls	r2, r2, #2
 800ac00:	f105 010c 	add.w	r1, r5, #12
 800ac04:	300c      	adds	r0, #12
 800ac06:	f7ff fa6e 	bl	800a0e6 <memcpy>
 800ac0a:	2201      	movs	r2, #1
 800ac0c:	4631      	mov	r1, r6
 800ac0e:	4648      	mov	r0, r9
 800ac10:	f000 fedc 	bl	800b9cc <__lshift>
 800ac14:	f10a 0301 	add.w	r3, sl, #1
 800ac18:	9300      	str	r3, [sp, #0]
 800ac1a:	eb0a 030b 	add.w	r3, sl, fp
 800ac1e:	9308      	str	r3, [sp, #32]
 800ac20:	9b04      	ldr	r3, [sp, #16]
 800ac22:	f003 0301 	and.w	r3, r3, #1
 800ac26:	462f      	mov	r7, r5
 800ac28:	9306      	str	r3, [sp, #24]
 800ac2a:	4605      	mov	r5, r0
 800ac2c:	9b00      	ldr	r3, [sp, #0]
 800ac2e:	9802      	ldr	r0, [sp, #8]
 800ac30:	4621      	mov	r1, r4
 800ac32:	f103 3bff 	add.w	fp, r3, #4294967295
 800ac36:	f7ff fa89 	bl	800a14c <quorem>
 800ac3a:	4603      	mov	r3, r0
 800ac3c:	3330      	adds	r3, #48	@ 0x30
 800ac3e:	9003      	str	r0, [sp, #12]
 800ac40:	4639      	mov	r1, r7
 800ac42:	9802      	ldr	r0, [sp, #8]
 800ac44:	9309      	str	r3, [sp, #36]	@ 0x24
 800ac46:	f000 ff2d 	bl	800baa4 <__mcmp>
 800ac4a:	462a      	mov	r2, r5
 800ac4c:	9004      	str	r0, [sp, #16]
 800ac4e:	4621      	mov	r1, r4
 800ac50:	4648      	mov	r0, r9
 800ac52:	f000 ff43 	bl	800badc <__mdiff>
 800ac56:	68c2      	ldr	r2, [r0, #12]
 800ac58:	9b09      	ldr	r3, [sp, #36]	@ 0x24
 800ac5a:	4606      	mov	r6, r0
 800ac5c:	bb02      	cbnz	r2, 800aca0 <_dtoa_r+0xa40>
 800ac5e:	4601      	mov	r1, r0
 800ac60:	9802      	ldr	r0, [sp, #8]
 800ac62:	f000 ff1f 	bl	800baa4 <__mcmp>
 800ac66:	9b09      	ldr	r3, [sp, #36]	@ 0x24
 800ac68:	4602      	mov	r2, r0
 800ac6a:	4631      	mov	r1, r6
 800ac6c:	4648      	mov	r0, r9
 800ac6e:	920c      	str	r2, [sp, #48]	@ 0x30
 800ac70:	9309      	str	r3, [sp, #36]	@ 0x24
 800ac72:	f000 fc9b 	bl	800b5ac <_Bfree>
 800ac76:	9b07      	ldr	r3, [sp, #28]
 800ac78:	9a0c      	ldr	r2, [sp, #48]	@ 0x30
 800ac7a:	9e00      	ldr	r6, [sp, #0]
 800ac7c:	ea42 0103 	orr.w	r1, r2, r3
 800ac80:	9b06      	ldr	r3, [sp, #24]
 800ac82:	4319      	orrs	r1, r3
 800ac84:	9b09      	ldr	r3, [sp, #36]	@ 0x24
 800ac86:	d10d      	bne.n	800aca4 <_dtoa_r+0xa44>
 800ac88:	2b39      	cmp	r3, #57	@ 0x39
 800ac8a:	d027      	beq.n	800acdc <_dtoa_r+0xa7c>
 800ac8c:	9a04      	ldr	r2, [sp, #16]
 800ac8e:	2a00      	cmp	r2, #0
 800ac90:	dd01      	ble.n	800ac96 <_dtoa_r+0xa36>
 800ac92:	9b03      	ldr	r3, [sp, #12]
 800ac94:	3331      	adds	r3, #49	@ 0x31
 800ac96:	f88b 3000 	strb.w	r3, [fp]
 800ac9a:	e52e      	b.n	800a6fa <_dtoa_r+0x49a>
 800ac9c:	4628      	mov	r0, r5
 800ac9e:	e7b9      	b.n	800ac14 <_dtoa_r+0x9b4>
 800aca0:	2201      	movs	r2, #1
 800aca2:	e7e2      	b.n	800ac6a <_dtoa_r+0xa0a>
 800aca4:	9904      	ldr	r1, [sp, #16]
 800aca6:	2900      	cmp	r1, #0
 800aca8:	db04      	blt.n	800acb4 <_dtoa_r+0xa54>
 800acaa:	9807      	ldr	r0, [sp, #28]
 800acac:	4301      	orrs	r1, r0
 800acae:	9806      	ldr	r0, [sp, #24]
 800acb0:	4301      	orrs	r1, r0
 800acb2:	d120      	bne.n	800acf6 <_dtoa_r+0xa96>
 800acb4:	2a00      	cmp	r2, #0
 800acb6:	ddee      	ble.n	800ac96 <_dtoa_r+0xa36>
 800acb8:	9902      	ldr	r1, [sp, #8]
 800acba:	9300      	str	r3, [sp, #0]
 800acbc:	2201      	movs	r2, #1
 800acbe:	4648      	mov	r0, r9
 800acc0:	f000 fe84 	bl	800b9cc <__lshift>
 800acc4:	4621      	mov	r1, r4
 800acc6:	9002      	str	r0, [sp, #8]
 800acc8:	f000 feec 	bl	800baa4 <__mcmp>
 800accc:	2800      	cmp	r0, #0
 800acce:	9b00      	ldr	r3, [sp, #0]
 800acd0:	dc02      	bgt.n	800acd8 <_dtoa_r+0xa78>
 800acd2:	d1e0      	bne.n	800ac96 <_dtoa_r+0xa36>
 800acd4:	07da      	lsls	r2, r3, #31
 800acd6:	d5de      	bpl.n	800ac96 <_dtoa_r+0xa36>
 800acd8:	2b39      	cmp	r3, #57	@ 0x39
 800acda:	d1da      	bne.n	800ac92 <_dtoa_r+0xa32>
 800acdc:	2339      	movs	r3, #57	@ 0x39
 800acde:	f88b 3000 	strb.w	r3, [fp]
 800ace2:	4633      	mov	r3, r6
 800ace4:	461e      	mov	r6, r3
 800ace6:	3b01      	subs	r3, #1
 800ace8:	f816 2c01 	ldrb.w	r2, [r6, #-1]
 800acec:	2a39      	cmp	r2, #57	@ 0x39
 800acee:	d04e      	beq.n	800ad8e <_dtoa_r+0xb2e>
 800acf0:	3201      	adds	r2, #1
 800acf2:	701a      	strb	r2, [r3, #0]
 800acf4:	e501      	b.n	800a6fa <_dtoa_r+0x49a>
 800acf6:	2a00      	cmp	r2, #0
 800acf8:	dd03      	ble.n	800ad02 <_dtoa_r+0xaa2>
 800acfa:	2b39      	cmp	r3, #57	@ 0x39
 800acfc:	d0ee      	beq.n	800acdc <_dtoa_r+0xa7c>
 800acfe:	3301      	adds	r3, #1
 800ad00:	e7c9      	b.n	800ac96 <_dtoa_r+0xa36>
 800ad02:	9a00      	ldr	r2, [sp, #0]
 800ad04:	9908      	ldr	r1, [sp, #32]
 800ad06:	f802 3c01 	strb.w	r3, [r2, #-1]
 800ad0a:	428a      	cmp	r2, r1
 800ad0c:	d028      	beq.n	800ad60 <_dtoa_r+0xb00>
 800ad0e:	9902      	ldr	r1, [sp, #8]
 800ad10:	2300      	movs	r3, #0
 800ad12:	220a      	movs	r2, #10
 800ad14:	4648      	mov	r0, r9
 800ad16:	f000 fc6b 	bl	800b5f0 <__multadd>
 800ad1a:	42af      	cmp	r7, r5
 800ad1c:	9002      	str	r0, [sp, #8]
 800ad1e:	f04f 0300 	mov.w	r3, #0
 800ad22:	f04f 020a 	mov.w	r2, #10
 800ad26:	4639      	mov	r1, r7
 800ad28:	4648      	mov	r0, r9
 800ad2a:	d107      	bne.n	800ad3c <_dtoa_r+0xadc>
 800ad2c:	f000 fc60 	bl	800b5f0 <__multadd>
 800ad30:	4607      	mov	r7, r0
 800ad32:	4605      	mov	r5, r0
 800ad34:	9b00      	ldr	r3, [sp, #0]
 800ad36:	3301      	adds	r3, #1
 800ad38:	9300      	str	r3, [sp, #0]
 800ad3a:	e777      	b.n	800ac2c <_dtoa_r+0x9cc>
 800ad3c:	f000 fc58 	bl	800b5f0 <__multadd>
 800ad40:	4629      	mov	r1, r5
 800ad42:	4607      	mov	r7, r0
 800ad44:	2300      	movs	r3, #0
 800ad46:	220a      	movs	r2, #10
 800ad48:	4648      	mov	r0, r9
 800ad4a:	f000 fc51 	bl	800b5f0 <__multadd>
 800ad4e:	4605      	mov	r5, r0
 800ad50:	e7f0      	b.n	800ad34 <_dtoa_r+0xad4>
 800ad52:	f1bb 0f00 	cmp.w	fp, #0
 800ad56:	bfcc      	ite	gt
 800ad58:	465e      	movgt	r6, fp
 800ad5a:	2601      	movle	r6, #1
 800ad5c:	4456      	add	r6, sl
 800ad5e:	2700      	movs	r7, #0
 800ad60:	9902      	ldr	r1, [sp, #8]
 800ad62:	9300      	str	r3, [sp, #0]
 800ad64:	2201      	movs	r2, #1
 800ad66:	4648      	mov	r0, r9
 800ad68:	f000 fe30 	bl	800b9cc <__lshift>
 800ad6c:	4621      	mov	r1, r4
 800ad6e:	9002      	str	r0, [sp, #8]
 800ad70:	f000 fe98 	bl	800baa4 <__mcmp>
 800ad74:	2800      	cmp	r0, #0
 800ad76:	dcb4      	bgt.n	800ace2 <_dtoa_r+0xa82>
 800ad78:	d102      	bne.n	800ad80 <_dtoa_r+0xb20>
 800ad7a:	9b00      	ldr	r3, [sp, #0]
 800ad7c:	07db      	lsls	r3, r3, #31
 800ad7e:	d4b0      	bmi.n	800ace2 <_dtoa_r+0xa82>
 800ad80:	4633      	mov	r3, r6
 800ad82:	461e      	mov	r6, r3
 800ad84:	f813 2d01 	ldrb.w	r2, [r3, #-1]!
 800ad88:	2a30      	cmp	r2, #48	@ 0x30
 800ad8a:	d0fa      	beq.n	800ad82 <_dtoa_r+0xb22>
 800ad8c:	e4b5      	b.n	800a6fa <_dtoa_r+0x49a>
 800ad8e:	459a      	cmp	sl, r3
 800ad90:	d1a8      	bne.n	800ace4 <_dtoa_r+0xa84>
 800ad92:	2331      	movs	r3, #49	@ 0x31
 800ad94:	f108 0801 	add.w	r8, r8, #1
 800ad98:	f88a 3000 	strb.w	r3, [sl]
 800ad9c:	e4ad      	b.n	800a6fa <_dtoa_r+0x49a>
 800ad9e:	9b21      	ldr	r3, [sp, #132]	@ 0x84
 800ada0:	f8df a058 	ldr.w	sl, [pc, #88]	@ 800adfc <_dtoa_r+0xb9c>
 800ada4:	b11b      	cbz	r3, 800adae <_dtoa_r+0xb4e>
 800ada6:	f10a 0308 	add.w	r3, sl, #8
 800adaa:	9a21      	ldr	r2, [sp, #132]	@ 0x84
 800adac:	6013      	str	r3, [r2, #0]
 800adae:	4650      	mov	r0, sl
 800adb0:	b017      	add	sp, #92	@ 0x5c
 800adb2:	e8bd 8ff0 	ldmia.w	sp!, {r4, r5, r6, r7, r8, r9, sl, fp, pc}
 800adb6:	9b07      	ldr	r3, [sp, #28]
 800adb8:	2b01      	cmp	r3, #1
 800adba:	f77f ae2e 	ble.w	800aa1a <_dtoa_r+0x7ba>
 800adbe:	9b0d      	ldr	r3, [sp, #52]	@ 0x34
 800adc0:	9308      	str	r3, [sp, #32]
 800adc2:	2001      	movs	r0, #1
 800adc4:	e64d      	b.n	800aa62 <_dtoa_r+0x802>
 800adc6:	f1bb 0f00 	cmp.w	fp, #0
 800adca:	f77f aed9 	ble.w	800ab80 <_dtoa_r+0x920>
 800adce:	4656      	mov	r6, sl
 800add0:	9802      	ldr	r0, [sp, #8]
 800add2:	4621      	mov	r1, r4
 800add4:	f7ff f9ba 	bl	800a14c <quorem>
 800add8:	f100 0330 	add.w	r3, r0, #48	@ 0x30
 800addc:	f806 3b01 	strb.w	r3, [r6], #1
 800ade0:	eba6 020a 	sub.w	r2, r6, sl
 800ade4:	4593      	cmp	fp, r2
 800ade6:	ddb4      	ble.n	800ad52 <_dtoa_r+0xaf2>
 800ade8:	9902      	ldr	r1, [sp, #8]
 800adea:	2300      	movs	r3, #0
 800adec:	220a      	movs	r2, #10
 800adee:	4648      	mov	r0, r9
 800adf0:	f000 fbfe 	bl	800b5f0 <__multadd>
 800adf4:	9002      	str	r0, [sp, #8]
 800adf6:	e7eb      	b.n	800add0 <_dtoa_r+0xb70>
 800adf8:	0800ca2e 	.word	0x0800ca2e
 800adfc:	0800c9b2 	.word	0x0800c9b2

0800ae00 <_free_r>:
 800ae00:	b538      	push	{r3, r4, r5, lr}
 800ae02:	4605      	mov	r5, r0
 800ae04:	2900      	cmp	r1, #0
 800ae06:	d041      	beq.n	800ae8c <_free_r+0x8c>
 800ae08:	f851 3c04 	ldr.w	r3, [r1, #-4]
 800ae0c:	1f0c      	subs	r4, r1, #4
 800ae0e:	2b00      	cmp	r3, #0
 800ae10:	bfb8      	it	lt
 800ae12:	18e4      	addlt	r4, r4, r3
 800ae14:	f7fd faaa 	bl	800836c <__malloc_lock>
 800ae18:	4a1d      	ldr	r2, [pc, #116]	@ (800ae90 <_free_r+0x90>)
 800ae1a:	6813      	ldr	r3, [r2, #0]
 800ae1c:	b933      	cbnz	r3, 800ae2c <_free_r+0x2c>
 800ae1e:	6063      	str	r3, [r4, #4]
 800ae20:	6014      	str	r4, [r2, #0]
 800ae22:	4628      	mov	r0, r5
 800ae24:	e8bd 4038 	ldmia.w	sp!, {r3, r4, r5, lr}
 800ae28:	f7fd baa6 	b.w	8008378 <__malloc_unlock>
 800ae2c:	42a3      	cmp	r3, r4
 800ae2e:	d908      	bls.n	800ae42 <_free_r+0x42>
 800ae30:	6820      	ldr	r0, [r4, #0]
 800ae32:	1821      	adds	r1, r4, r0
 800ae34:	428b      	cmp	r3, r1
 800ae36:	bf01      	itttt	eq
 800ae38:	6819      	ldreq	r1, [r3, #0]
 800ae3a:	685b      	ldreq	r3, [r3, #4]
 800ae3c:	1809      	addeq	r1, r1, r0
 800ae3e:	6021      	streq	r1, [r4, #0]
 800ae40:	e7ed      	b.n	800ae1e <_free_r+0x1e>
 800ae42:	461a      	mov	r2, r3
 800ae44:	685b      	ldr	r3, [r3, #4]
 800ae46:	b10b      	cbz	r3, 800ae4c <_free_r+0x4c>
 800ae48:	42a3      	cmp	r3, r4
 800ae4a:	d9fa      	bls.n	800ae42 <_free_r+0x42>
 800ae4c:	6811      	ldr	r1, [r2, #0]
 800ae4e:	1850      	adds	r0, r2, r1
 800ae50:	42a0      	cmp	r0, r4
 800ae52:	d10b      	bne.n	800ae6c <_free_r+0x6c>
 800ae54:	6820      	ldr	r0, [r4, #0]
 800ae56:	4401      	add	r1, r0
 800ae58:	1850      	adds	r0, r2, r1
 800ae5a:	4283      	cmp	r3, r0
 800ae5c:	6011      	str	r1, [r2, #0]
 800ae5e:	d1e0      	bne.n	800ae22 <_free_r+0x22>
 800ae60:	6818      	ldr	r0, [r3, #0]
 800ae62:	685b      	ldr	r3, [r3, #4]
 800ae64:	6053      	str	r3, [r2, #4]
 800ae66:	4408      	add	r0, r1
 800ae68:	6010      	str	r0, [r2, #0]
 800ae6a:	e7da      	b.n	800ae22 <_free_r+0x22>
 800ae6c:	d902      	bls.n	800ae74 <_free_r+0x74>
 800ae6e:	230c      	movs	r3, #12
 800ae70:	602b      	str	r3, [r5, #0]
 800ae72:	e7d6      	b.n	800ae22 <_free_r+0x22>
 800ae74:	6820      	ldr	r0, [r4, #0]
 800ae76:	1821      	adds	r1, r4, r0
 800ae78:	428b      	cmp	r3, r1
 800ae7a:	bf04      	itt	eq
 800ae7c:	6819      	ldreq	r1, [r3, #0]
 800ae7e:	685b      	ldreq	r3, [r3, #4]
 800ae80:	6063      	str	r3, [r4, #4]
 800ae82:	bf04      	itt	eq
 800ae84:	1809      	addeq	r1, r1, r0
 800ae86:	6021      	streq	r1, [r4, #0]
 800ae88:	6054      	str	r4, [r2, #4]
 800ae8a:	e7ca      	b.n	800ae22 <_free_r+0x22>
 800ae8c:	bd38      	pop	{r3, r4, r5, pc}
 800ae8e:	bf00      	nop
 800ae90:	2000164c 	.word	0x2000164c

0800ae94 <rshift>:
 800ae94:	6903      	ldr	r3, [r0, #16]
 800ae96:	ebb3 1f61 	cmp.w	r3, r1, asr #5
 800ae9a:	e92d 43f0 	stmdb	sp!, {r4, r5, r6, r7, r8, r9, lr}
 800ae9e:	ea4f 1261 	mov.w	r2, r1, asr #5
 800aea2:	f100 0414 	add.w	r4, r0, #20
 800aea6:	dd45      	ble.n	800af34 <rshift+0xa0>
 800aea8:	f011 011f 	ands.w	r1, r1, #31
 800aeac:	eb04 0683 	add.w	r6, r4, r3, lsl #2
 800aeb0:	eb04 0582 	add.w	r5, r4, r2, lsl #2
 800aeb4:	d10c      	bne.n	800aed0 <rshift+0x3c>
 800aeb6:	f100 0710 	add.w	r7, r0, #16
 800aeba:	4629      	mov	r1, r5
 800aebc:	42b1      	cmp	r1, r6
 800aebe:	d334      	bcc.n	800af2a <rshift+0x96>
 800aec0:	1a9b      	subs	r3, r3, r2
 800aec2:	009b      	lsls	r3, r3, #2
 800aec4:	1eea      	subs	r2, r5, #3
 800aec6:	4296      	cmp	r6, r2
 800aec8:	bf38      	it	cc
 800aeca:	2300      	movcc	r3, #0
 800aecc:	4423      	add	r3, r4
 800aece:	e015      	b.n	800aefc <rshift+0x68>
 800aed0:	f854 7022 	ldr.w	r7, [r4, r2, lsl #2]
 800aed4:	f1c1 0820 	rsb	r8, r1, #32
 800aed8:	40cf      	lsrs	r7, r1
 800aeda:	f105 0e04 	add.w	lr, r5, #4
 800aede:	46a1      	mov	r9, r4
 800aee0:	4576      	cmp	r6, lr
 800aee2:	46f4      	mov	ip, lr
 800aee4:	d815      	bhi.n	800af12 <rshift+0x7e>
 800aee6:	1a9a      	subs	r2, r3, r2
 800aee8:	0092      	lsls	r2, r2, #2
 800aeea:	3a04      	subs	r2, #4
 800aeec:	3501      	adds	r5, #1
 800aeee:	42ae      	cmp	r6, r5
 800aef0:	bf38      	it	cc
 800aef2:	2200      	movcc	r2, #0
 800aef4:	18a3      	adds	r3, r4, r2
 800aef6:	50a7      	str	r7, [r4, r2]
 800aef8:	b107      	cbz	r7, 800aefc <rshift+0x68>
 800aefa:	3304      	adds	r3, #4
 800aefc:	1b1a      	subs	r2, r3, r4
 800aefe:	42a3      	cmp	r3, r4
 800af00:	ea4f 02a2 	mov.w	r2, r2, asr #2
 800af04:	bf08      	it	eq
 800af06:	2300      	moveq	r3, #0
 800af08:	6102      	str	r2, [r0, #16]
 800af0a:	bf08      	it	eq
 800af0c:	6143      	streq	r3, [r0, #20]
 800af0e:	e8bd 83f0 	ldmia.w	sp!, {r4, r5, r6, r7, r8, r9, pc}
 800af12:	f8dc c000 	ldr.w	ip, [ip]
 800af16:	fa0c fc08 	lsl.w	ip, ip, r8
 800af1a:	ea4c 0707 	orr.w	r7, ip, r7
 800af1e:	f849 7b04 	str.w	r7, [r9], #4
 800af22:	f85e 7b04 	ldr.w	r7, [lr], #4
 800af26:	40cf      	lsrs	r7, r1
 800af28:	e7da      	b.n	800aee0 <rshift+0x4c>
 800af2a:	f851 cb04 	ldr.w	ip, [r1], #4
 800af2e:	f847 cf04 	str.w	ip, [r7, #4]!
 800af32:	e7c3      	b.n	800aebc <rshift+0x28>
 800af34:	4623      	mov	r3, r4
 800af36:	e7e1      	b.n	800aefc <rshift+0x68>

0800af38 <__hexdig_fun>:
 800af38:	f1a0 0330 	sub.w	r3, r0, #48	@ 0x30
 800af3c:	2b09      	cmp	r3, #9
 800af3e:	d802      	bhi.n	800af46 <__hexdig_fun+0xe>
 800af40:	3820      	subs	r0, #32
 800af42:	b2c0      	uxtb	r0, r0
 800af44:	4770      	bx	lr
 800af46:	f1a0 0361 	sub.w	r3, r0, #97	@ 0x61
 800af4a:	2b05      	cmp	r3, #5
 800af4c:	d801      	bhi.n	800af52 <__hexdig_fun+0x1a>
 800af4e:	3847      	subs	r0, #71	@ 0x47
 800af50:	e7f7      	b.n	800af42 <__hexdig_fun+0xa>
 800af52:	f1a0 0341 	sub.w	r3, r0, #65	@ 0x41
 800af56:	2b05      	cmp	r3, #5
 800af58:	d801      	bhi.n	800af5e <__hexdig_fun+0x26>
 800af5a:	3827      	subs	r0, #39	@ 0x27
 800af5c:	e7f1      	b.n	800af42 <__hexdig_fun+0xa>
 800af5e:	2000      	movs	r0, #0
 800af60:	4770      	bx	lr
	...

0800af64 <__gethex>:
 800af64:	e92d 4ff0 	stmdb	sp!, {r4, r5, r6, r7, r8, r9, sl, fp, lr}
 800af68:	b085      	sub	sp, #20
 800af6a:	468a      	mov	sl, r1
 800af6c:	9302      	str	r3, [sp, #8]
 800af6e:	680b      	ldr	r3, [r1, #0]
 800af70:	9001      	str	r0, [sp, #4]
 800af72:	4690      	mov	r8, r2
 800af74:	1c9c      	adds	r4, r3, #2
 800af76:	46a1      	mov	r9, r4
 800af78:	f814 0b01 	ldrb.w	r0, [r4], #1
 800af7c:	2830      	cmp	r0, #48	@ 0x30
 800af7e:	d0fa      	beq.n	800af76 <__gethex+0x12>
 800af80:	eba9 0303 	sub.w	r3, r9, r3
 800af84:	f1a3 0b02 	sub.w	fp, r3, #2
 800af88:	f7ff ffd6 	bl	800af38 <__hexdig_fun>
 800af8c:	4605      	mov	r5, r0
 800af8e:	2800      	cmp	r0, #0
 800af90:	d168      	bne.n	800b064 <__gethex+0x100>
 800af92:	49a0      	ldr	r1, [pc, #640]	@ (800b214 <__gethex+0x2b0>)
 800af94:	2201      	movs	r2, #1
 800af96:	4648      	mov	r0, r9
 800af98:	f7ff f80b 	bl	8009fb2 <strncmp>
 800af9c:	4607      	mov	r7, r0
 800af9e:	2800      	cmp	r0, #0
 800afa0:	d167      	bne.n	800b072 <__gethex+0x10e>
 800afa2:	f899 0001 	ldrb.w	r0, [r9, #1]
 800afa6:	4626      	mov	r6, r4
 800afa8:	f7ff ffc6 	bl	800af38 <__hexdig_fun>
 800afac:	2800      	cmp	r0, #0
 800afae:	d062      	beq.n	800b076 <__gethex+0x112>
 800afb0:	4623      	mov	r3, r4
 800afb2:	7818      	ldrb	r0, [r3, #0]
 800afb4:	2830      	cmp	r0, #48	@ 0x30
 800afb6:	4699      	mov	r9, r3
 800afb8:	f103 0301 	add.w	r3, r3, #1
 800afbc:	d0f9      	beq.n	800afb2 <__gethex+0x4e>
 800afbe:	f7ff ffbb 	bl	800af38 <__hexdig_fun>
 800afc2:	fab0 f580 	clz	r5, r0
 800afc6:	096d      	lsrs	r5, r5, #5
 800afc8:	f04f 0b01 	mov.w	fp, #1
 800afcc:	464a      	mov	r2, r9
 800afce:	4616      	mov	r6, r2
 800afd0:	3201      	adds	r2, #1
 800afd2:	7830      	ldrb	r0, [r6, #0]
 800afd4:	f7ff ffb0 	bl	800af38 <__hexdig_fun>
 800afd8:	2800      	cmp	r0, #0
 800afda:	d1f8      	bne.n	800afce <__gethex+0x6a>
 800afdc:	498d      	ldr	r1, [pc, #564]	@ (800b214 <__gethex+0x2b0>)
 800afde:	2201      	movs	r2, #1
 800afe0:	4630      	mov	r0, r6
 800afe2:	f7fe ffe6 	bl	8009fb2 <strncmp>
 800afe6:	2800      	cmp	r0, #0
 800afe8:	d13f      	bne.n	800b06a <__gethex+0x106>
 800afea:	b944      	cbnz	r4, 800affe <__gethex+0x9a>
 800afec:	1c74      	adds	r4, r6, #1
 800afee:	4622      	mov	r2, r4
 800aff0:	4616      	mov	r6, r2
 800aff2:	3201      	adds	r2, #1
 800aff4:	7830      	ldrb	r0, [r6, #0]
 800aff6:	f7ff ff9f 	bl	800af38 <__hexdig_fun>
 800affa:	2800      	cmp	r0, #0
 800affc:	d1f8      	bne.n	800aff0 <__gethex+0x8c>
 800affe:	1ba4      	subs	r4, r4, r6
 800b000:	00a7      	lsls	r7, r4, #2
 800b002:	7833      	ldrb	r3, [r6, #0]
 800b004:	f003 03df 	and.w	r3, r3, #223	@ 0xdf
 800b008:	2b50      	cmp	r3, #80	@ 0x50
 800b00a:	d13e      	bne.n	800b08a <__gethex+0x126>
 800b00c:	7873      	ldrb	r3, [r6, #1]
 800b00e:	2b2b      	cmp	r3, #43	@ 0x2b
 800b010:	d033      	beq.n	800b07a <__gethex+0x116>
 800b012:	2b2d      	cmp	r3, #45	@ 0x2d
 800b014:	d034      	beq.n	800b080 <__gethex+0x11c>
 800b016:	1c71      	adds	r1, r6, #1
 800b018:	2400      	movs	r4, #0
 800b01a:	7808      	ldrb	r0, [r1, #0]
 800b01c:	f7ff ff8c 	bl	800af38 <__hexdig_fun>
 800b020:	1e43      	subs	r3, r0, #1
 800b022:	b2db      	uxtb	r3, r3
 800b024:	2b18      	cmp	r3, #24
 800b026:	d830      	bhi.n	800b08a <__gethex+0x126>
 800b028:	f1a0 0210 	sub.w	r2, r0, #16
 800b02c:	f811 0f01 	ldrb.w	r0, [r1, #1]!
 800b030:	f7ff ff82 	bl	800af38 <__hexdig_fun>
 800b034:	f100 3cff 	add.w	ip, r0, #4294967295
 800b038:	fa5f fc8c 	uxtb.w	ip, ip
 800b03c:	f1bc 0f18 	cmp.w	ip, #24
 800b040:	f04f 030a 	mov.w	r3, #10
 800b044:	d91e      	bls.n	800b084 <__gethex+0x120>
 800b046:	b104      	cbz	r4, 800b04a <__gethex+0xe6>
 800b048:	4252      	negs	r2, r2
 800b04a:	4417      	add	r7, r2
 800b04c:	f8ca 1000 	str.w	r1, [sl]
 800b050:	b1ed      	cbz	r5, 800b08e <__gethex+0x12a>
 800b052:	f1bb 0f00 	cmp.w	fp, #0
 800b056:	bf0c      	ite	eq
 800b058:	2506      	moveq	r5, #6
 800b05a:	2500      	movne	r5, #0
 800b05c:	4628      	mov	r0, r5
 800b05e:	b005      	add	sp, #20
 800b060:	e8bd 8ff0 	ldmia.w	sp!, {r4, r5, r6, r7, r8, r9, sl, fp, pc}
 800b064:	2500      	movs	r5, #0
 800b066:	462c      	mov	r4, r5
 800b068:	e7b0      	b.n	800afcc <__gethex+0x68>
 800b06a:	2c00      	cmp	r4, #0
 800b06c:	d1c7      	bne.n	800affe <__gethex+0x9a>
 800b06e:	4627      	mov	r7, r4
 800b070:	e7c7      	b.n	800b002 <__gethex+0x9e>
 800b072:	464e      	mov	r6, r9
 800b074:	462f      	mov	r7, r5
 800b076:	2501      	movs	r5, #1
 800b078:	e7c3      	b.n	800b002 <__gethex+0x9e>
 800b07a:	2400      	movs	r4, #0
 800b07c:	1cb1      	adds	r1, r6, #2
 800b07e:	e7cc      	b.n	800b01a <__gethex+0xb6>
 800b080:	2401      	movs	r4, #1
 800b082:	e7fb      	b.n	800b07c <__gethex+0x118>
 800b084:	fb03 0002 	mla	r0, r3, r2, r0
 800b088:	e7ce      	b.n	800b028 <__gethex+0xc4>
 800b08a:	4631      	mov	r1, r6
 800b08c:	e7de      	b.n	800b04c <__gethex+0xe8>
 800b08e:	eba6 0309 	sub.w	r3, r6, r9
 800b092:	3b01      	subs	r3, #1
 800b094:	4629      	mov	r1, r5
 800b096:	2b07      	cmp	r3, #7
 800b098:	dc0a      	bgt.n	800b0b0 <__gethex+0x14c>
 800b09a:	9801      	ldr	r0, [sp, #4]
 800b09c:	f000 fa46 	bl	800b52c <_Balloc>
 800b0a0:	4604      	mov	r4, r0
 800b0a2:	b940      	cbnz	r0, 800b0b6 <__gethex+0x152>
 800b0a4:	4b5c      	ldr	r3, [pc, #368]	@ (800b218 <__gethex+0x2b4>)
 800b0a6:	4602      	mov	r2, r0
 800b0a8:	21e4      	movs	r1, #228	@ 0xe4
 800b0aa:	485c      	ldr	r0, [pc, #368]	@ (800b21c <__gethex+0x2b8>)
 800b0ac:	f7ff f830 	bl	800a110 <__assert_func>
 800b0b0:	3101      	adds	r1, #1
 800b0b2:	105b      	asrs	r3, r3, #1
 800b0b4:	e7ef      	b.n	800b096 <__gethex+0x132>
 800b0b6:	f100 0a14 	add.w	sl, r0, #20
 800b0ba:	2300      	movs	r3, #0
 800b0bc:	4655      	mov	r5, sl
 800b0be:	469b      	mov	fp, r3
 800b0c0:	45b1      	cmp	r9, r6
 800b0c2:	d337      	bcc.n	800b134 <__gethex+0x1d0>
 800b0c4:	f845 bb04 	str.w	fp, [r5], #4
 800b0c8:	eba5 050a 	sub.w	r5, r5, sl
 800b0cc:	10ad      	asrs	r5, r5, #2
 800b0ce:	6125      	str	r5, [r4, #16]
 800b0d0:	4658      	mov	r0, fp
 800b0d2:	f000 fb1d 	bl	800b710 <__hi0bits>
 800b0d6:	016d      	lsls	r5, r5, #5
 800b0d8:	f8d8 6000 	ldr.w	r6, [r8]
 800b0dc:	1a2d      	subs	r5, r5, r0
 800b0de:	42b5      	cmp	r5, r6
 800b0e0:	dd54      	ble.n	800b18c <__gethex+0x228>
 800b0e2:	1bad      	subs	r5, r5, r6
 800b0e4:	4629      	mov	r1, r5
 800b0e6:	4620      	mov	r0, r4
 800b0e8:	f000 fea9 	bl	800be3e <__any_on>
 800b0ec:	4681      	mov	r9, r0
 800b0ee:	b178      	cbz	r0, 800b110 <__gethex+0x1ac>
 800b0f0:	1e6b      	subs	r3, r5, #1
 800b0f2:	1159      	asrs	r1, r3, #5
 800b0f4:	f003 021f 	and.w	r2, r3, #31
 800b0f8:	f85a 1021 	ldr.w	r1, [sl, r1, lsl #2]
 800b0fc:	f04f 0901 	mov.w	r9, #1
 800b100:	fa09 f202 	lsl.w	r2, r9, r2
 800b104:	420a      	tst	r2, r1
 800b106:	d003      	beq.n	800b110 <__gethex+0x1ac>
 800b108:	454b      	cmp	r3, r9
 800b10a:	dc36      	bgt.n	800b17a <__gethex+0x216>
 800b10c:	f04f 0902 	mov.w	r9, #2
 800b110:	4629      	mov	r1, r5
 800b112:	4620      	mov	r0, r4
 800b114:	f7ff febe 	bl	800ae94 <rshift>
 800b118:	442f      	add	r7, r5
 800b11a:	f8d8 3008 	ldr.w	r3, [r8, #8]
 800b11e:	42bb      	cmp	r3, r7
 800b120:	da42      	bge.n	800b1a8 <__gethex+0x244>
 800b122:	9801      	ldr	r0, [sp, #4]
 800b124:	4621      	mov	r1, r4
 800b126:	f000 fa41 	bl	800b5ac <_Bfree>
 800b12a:	9a0e      	ldr	r2, [sp, #56]	@ 0x38
 800b12c:	2300      	movs	r3, #0
 800b12e:	6013      	str	r3, [r2, #0]
 800b130:	25a3      	movs	r5, #163	@ 0xa3
 800b132:	e793      	b.n	800b05c <__gethex+0xf8>
 800b134:	f816 2d01 	ldrb.w	r2, [r6, #-1]!
 800b138:	2a2e      	cmp	r2, #46	@ 0x2e
 800b13a:	d012      	beq.n	800b162 <__gethex+0x1fe>
 800b13c:	2b20      	cmp	r3, #32
 800b13e:	d104      	bne.n	800b14a <__gethex+0x1e6>
 800b140:	f845 bb04 	str.w	fp, [r5], #4
 800b144:	f04f 0b00 	mov.w	fp, #0
 800b148:	465b      	mov	r3, fp
 800b14a:	7830      	ldrb	r0, [r6, #0]
 800b14c:	9303      	str	r3, [sp, #12]
 800b14e:	f7ff fef3 	bl	800af38 <__hexdig_fun>
 800b152:	9b03      	ldr	r3, [sp, #12]
 800b154:	f000 000f 	and.w	r0, r0, #15
 800b158:	4098      	lsls	r0, r3
 800b15a:	ea4b 0b00 	orr.w	fp, fp, r0
 800b15e:	3304      	adds	r3, #4
 800b160:	e7ae      	b.n	800b0c0 <__gethex+0x15c>
 800b162:	45b1      	cmp	r9, r6
 800b164:	d8ea      	bhi.n	800b13c <__gethex+0x1d8>
 800b166:	492b      	ldr	r1, [pc, #172]	@ (800b214 <__gethex+0x2b0>)
 800b168:	9303      	str	r3, [sp, #12]
 800b16a:	2201      	movs	r2, #1
 800b16c:	4630      	mov	r0, r6
 800b16e:	f7fe ff20 	bl	8009fb2 <strncmp>
 800b172:	9b03      	ldr	r3, [sp, #12]
 800b174:	2800      	cmp	r0, #0
 800b176:	d1e1      	bne.n	800b13c <__gethex+0x1d8>
 800b178:	e7a2      	b.n	800b0c0 <__gethex+0x15c>
 800b17a:	1ea9      	subs	r1, r5, #2
 800b17c:	4620      	mov	r0, r4
 800b17e:	f000 fe5e 	bl	800be3e <__any_on>
 800b182:	2800      	cmp	r0, #0
 800b184:	d0c2      	beq.n	800b10c <__gethex+0x1a8>
 800b186:	f04f 0903 	mov.w	r9, #3
 800b18a:	e7c1      	b.n	800b110 <__gethex+0x1ac>
 800b18c:	da09      	bge.n	800b1a2 <__gethex+0x23e>
 800b18e:	1b75      	subs	r5, r6, r5
 800b190:	4621      	mov	r1, r4
 800b192:	9801      	ldr	r0, [sp, #4]
 800b194:	462a      	mov	r2, r5
 800b196:	f000 fc19 	bl	800b9cc <__lshift>
 800b19a:	1b7f      	subs	r7, r7, r5
 800b19c:	4604      	mov	r4, r0
 800b19e:	f100 0a14 	add.w	sl, r0, #20
 800b1a2:	f04f 0900 	mov.w	r9, #0
 800b1a6:	e7b8      	b.n	800b11a <__gethex+0x1b6>
 800b1a8:	f8d8 5004 	ldr.w	r5, [r8, #4]
 800b1ac:	42bd      	cmp	r5, r7
 800b1ae:	dd6f      	ble.n	800b290 <__gethex+0x32c>
 800b1b0:	1bed      	subs	r5, r5, r7
 800b1b2:	42ae      	cmp	r6, r5
 800b1b4:	dc34      	bgt.n	800b220 <__gethex+0x2bc>
 800b1b6:	f8d8 300c 	ldr.w	r3, [r8, #12]
 800b1ba:	2b02      	cmp	r3, #2
 800b1bc:	d022      	beq.n	800b204 <__gethex+0x2a0>
 800b1be:	2b03      	cmp	r3, #3
 800b1c0:	d024      	beq.n	800b20c <__gethex+0x2a8>
 800b1c2:	2b01      	cmp	r3, #1
 800b1c4:	d115      	bne.n	800b1f2 <__gethex+0x28e>
 800b1c6:	42ae      	cmp	r6, r5
 800b1c8:	d113      	bne.n	800b1f2 <__gethex+0x28e>
 800b1ca:	2e01      	cmp	r6, #1
 800b1cc:	d10b      	bne.n	800b1e6 <__gethex+0x282>
 800b1ce:	9a02      	ldr	r2, [sp, #8]
 800b1d0:	f8d8 3004 	ldr.w	r3, [r8, #4]
 800b1d4:	6013      	str	r3, [r2, #0]
 800b1d6:	2301      	movs	r3, #1
 800b1d8:	6123      	str	r3, [r4, #16]
 800b1da:	f8ca 3000 	str.w	r3, [sl]
 800b1de:	9b0e      	ldr	r3, [sp, #56]	@ 0x38
 800b1e0:	2562      	movs	r5, #98	@ 0x62
 800b1e2:	601c      	str	r4, [r3, #0]
 800b1e4:	e73a      	b.n	800b05c <__gethex+0xf8>
 800b1e6:	1e71      	subs	r1, r6, #1
 800b1e8:	4620      	mov	r0, r4
 800b1ea:	f000 fe28 	bl	800be3e <__any_on>
 800b1ee:	2800      	cmp	r0, #0
 800b1f0:	d1ed      	bne.n	800b1ce <__gethex+0x26a>
 800b1f2:	9801      	ldr	r0, [sp, #4]
 800b1f4:	4621      	mov	r1, r4
 800b1f6:	f000 f9d9 	bl	800b5ac <_Bfree>
 800b1fa:	9a0e      	ldr	r2, [sp, #56]	@ 0x38
 800b1fc:	2300      	movs	r3, #0
 800b1fe:	6013      	str	r3, [r2, #0]
 800b200:	2550      	movs	r5, #80	@ 0x50
 800b202:	e72b      	b.n	800b05c <__gethex+0xf8>
 800b204:	9b0f      	ldr	r3, [sp, #60]	@ 0x3c
 800b206:	2b00      	cmp	r3, #0
 800b208:	d1f3      	bne.n	800b1f2 <__gethex+0x28e>
 800b20a:	e7e0      	b.n	800b1ce <__gethex+0x26a>
 800b20c:	9b0f      	ldr	r3, [sp, #60]	@ 0x3c
 800b20e:	2b00      	cmp	r3, #0
 800b210:	d1dd      	bne.n	800b1ce <__gethex+0x26a>
 800b212:	e7ee      	b.n	800b1f2 <__gethex+0x28e>
 800b214:	0800c933 	.word	0x0800c933
 800b218:	0800ca2e 	.word	0x0800ca2e
 800b21c:	0800ca3f 	.word	0x0800ca3f
 800b220:	1e6f      	subs	r7, r5, #1
 800b222:	f1b9 0f00 	cmp.w	r9, #0
 800b226:	d130      	bne.n	800b28a <__gethex+0x326>
 800b228:	b127      	cbz	r7, 800b234 <__gethex+0x2d0>
 800b22a:	4639      	mov	r1, r7
 800b22c:	4620      	mov	r0, r4
 800b22e:	f000 fe06 	bl	800be3e <__any_on>
 800b232:	4681      	mov	r9, r0
 800b234:	117a      	asrs	r2, r7, #5
 800b236:	2301      	movs	r3, #1
 800b238:	f85a 2022 	ldr.w	r2, [sl, r2, lsl #2]
 800b23c:	f007 071f 	and.w	r7, r7, #31
 800b240:	40bb      	lsls	r3, r7
 800b242:	4213      	tst	r3, r2
 800b244:	4629      	mov	r1, r5
 800b246:	4620      	mov	r0, r4
 800b248:	bf18      	it	ne
 800b24a:	f049 0902 	orrne.w	r9, r9, #2
 800b24e:	f7ff fe21 	bl	800ae94 <rshift>
 800b252:	f8d8 7004 	ldr.w	r7, [r8, #4]
 800b256:	1b76      	subs	r6, r6, r5
 800b258:	2502      	movs	r5, #2
 800b25a:	f1b9 0f00 	cmp.w	r9, #0
 800b25e:	d047      	beq.n	800b2f0 <__gethex+0x38c>
 800b260:	f8d8 300c 	ldr.w	r3, [r8, #12]
 800b264:	2b02      	cmp	r3, #2
 800b266:	d015      	beq.n	800b294 <__gethex+0x330>
 800b268:	2b03      	cmp	r3, #3
 800b26a:	d017      	beq.n	800b29c <__gethex+0x338>
 800b26c:	2b01      	cmp	r3, #1
 800b26e:	d109      	bne.n	800b284 <__gethex+0x320>
 800b270:	f019 0f02 	tst.w	r9, #2
 800b274:	d006      	beq.n	800b284 <__gethex+0x320>
 800b276:	f8da 3000 	ldr.w	r3, [sl]
 800b27a:	ea49 0903 	orr.w	r9, r9, r3
 800b27e:	f019 0f01 	tst.w	r9, #1
 800b282:	d10e      	bne.n	800b2a2 <__gethex+0x33e>
 800b284:	f045 0510 	orr.w	r5, r5, #16
 800b288:	e032      	b.n	800b2f0 <__gethex+0x38c>
 800b28a:	f04f 0901 	mov.w	r9, #1
 800b28e:	e7d1      	b.n	800b234 <__gethex+0x2d0>
 800b290:	2501      	movs	r5, #1
 800b292:	e7e2      	b.n	800b25a <__gethex+0x2f6>
 800b294:	9b0f      	ldr	r3, [sp, #60]	@ 0x3c
 800b296:	f1c3 0301 	rsb	r3, r3, #1
 800b29a:	930f      	str	r3, [sp, #60]	@ 0x3c
 800b29c:	9b0f      	ldr	r3, [sp, #60]	@ 0x3c
 800b29e:	2b00      	cmp	r3, #0
 800b2a0:	d0f0      	beq.n	800b284 <__gethex+0x320>
 800b2a2:	f8d4 b010 	ldr.w	fp, [r4, #16]
 800b2a6:	f104 0314 	add.w	r3, r4, #20
 800b2aa:	ea4f 0a8b 	mov.w	sl, fp, lsl #2
 800b2ae:	eb03 018b 	add.w	r1, r3, fp, lsl #2
 800b2b2:	f04f 0c00 	mov.w	ip, #0
 800b2b6:	4618      	mov	r0, r3
 800b2b8:	f853 2b04 	ldr.w	r2, [r3], #4
 800b2bc:	f1b2 3fff 	cmp.w	r2, #4294967295
 800b2c0:	d01b      	beq.n	800b2fa <__gethex+0x396>
 800b2c2:	3201      	adds	r2, #1
 800b2c4:	6002      	str	r2, [r0, #0]
 800b2c6:	2d02      	cmp	r5, #2
 800b2c8:	f104 0314 	add.w	r3, r4, #20
 800b2cc:	d13c      	bne.n	800b348 <__gethex+0x3e4>
 800b2ce:	f8d8 2000 	ldr.w	r2, [r8]
 800b2d2:	3a01      	subs	r2, #1
 800b2d4:	42b2      	cmp	r2, r6
 800b2d6:	d109      	bne.n	800b2ec <__gethex+0x388>
 800b2d8:	1171      	asrs	r1, r6, #5
 800b2da:	2201      	movs	r2, #1
 800b2dc:	f853 3021 	ldr.w	r3, [r3, r1, lsl #2]
 800b2e0:	f006 061f 	and.w	r6, r6, #31
 800b2e4:	fa02 f606 	lsl.w	r6, r2, r6
 800b2e8:	421e      	tst	r6, r3
 800b2ea:	d13a      	bne.n	800b362 <__gethex+0x3fe>
 800b2ec:	f045 0520 	orr.w	r5, r5, #32
 800b2f0:	9b0e      	ldr	r3, [sp, #56]	@ 0x38
 800b2f2:	601c      	str	r4, [r3, #0]
 800b2f4:	9b02      	ldr	r3, [sp, #8]
 800b2f6:	601f      	str	r7, [r3, #0]
 800b2f8:	e6b0      	b.n	800b05c <__gethex+0xf8>
 800b2fa:	4299      	cmp	r1, r3
 800b2fc:	f843 cc04 	str.w	ip, [r3, #-4]
 800b300:	d8d9      	bhi.n	800b2b6 <__gethex+0x352>
 800b302:	68a3      	ldr	r3, [r4, #8]
 800b304:	459b      	cmp	fp, r3
 800b306:	db17      	blt.n	800b338 <__gethex+0x3d4>
 800b308:	6861      	ldr	r1, [r4, #4]
 800b30a:	9801      	ldr	r0, [sp, #4]
 800b30c:	3101      	adds	r1, #1
 800b30e:	f000 f90d 	bl	800b52c <_Balloc>
 800b312:	4681      	mov	r9, r0
 800b314:	b918      	cbnz	r0, 800b31e <__gethex+0x3ba>
 800b316:	4b1a      	ldr	r3, [pc, #104]	@ (800b380 <__gethex+0x41c>)
 800b318:	4602      	mov	r2, r0
 800b31a:	2184      	movs	r1, #132	@ 0x84
 800b31c:	e6c5      	b.n	800b0aa <__gethex+0x146>
 800b31e:	6922      	ldr	r2, [r4, #16]
 800b320:	3202      	adds	r2, #2
 800b322:	f104 010c 	add.w	r1, r4, #12
 800b326:	0092      	lsls	r2, r2, #2
 800b328:	300c      	adds	r0, #12
 800b32a:	f7fe fedc 	bl	800a0e6 <memcpy>
 800b32e:	4621      	mov	r1, r4
 800b330:	9801      	ldr	r0, [sp, #4]
 800b332:	f000 f93b 	bl	800b5ac <_Bfree>
 800b336:	464c      	mov	r4, r9
 800b338:	6923      	ldr	r3, [r4, #16]
 800b33a:	1c5a      	adds	r2, r3, #1
 800b33c:	eb04 0383 	add.w	r3, r4, r3, lsl #2
 800b340:	6122      	str	r2, [r4, #16]
 800b342:	2201      	movs	r2, #1
 800b344:	615a      	str	r2, [r3, #20]
 800b346:	e7be      	b.n	800b2c6 <__gethex+0x362>
 800b348:	6922      	ldr	r2, [r4, #16]
 800b34a:	455a      	cmp	r2, fp
 800b34c:	dd0b      	ble.n	800b366 <__gethex+0x402>
 800b34e:	2101      	movs	r1, #1
 800b350:	4620      	mov	r0, r4
 800b352:	f7ff fd9f 	bl	800ae94 <rshift>
 800b356:	f8d8 3008 	ldr.w	r3, [r8, #8]
 800b35a:	3701      	adds	r7, #1
 800b35c:	42bb      	cmp	r3, r7
 800b35e:	f6ff aee0 	blt.w	800b122 <__gethex+0x1be>
 800b362:	2501      	movs	r5, #1
 800b364:	e7c2      	b.n	800b2ec <__gethex+0x388>
 800b366:	f016 061f 	ands.w	r6, r6, #31
 800b36a:	d0fa      	beq.n	800b362 <__gethex+0x3fe>
 800b36c:	4453      	add	r3, sl
 800b36e:	f1c6 0620 	rsb	r6, r6, #32
 800b372:	f853 0c04 	ldr.w	r0, [r3, #-4]
 800b376:	f000 f9cb 	bl	800b710 <__hi0bits>
 800b37a:	42b0      	cmp	r0, r6
 800b37c:	dbe7      	blt.n	800b34e <__gethex+0x3ea>
 800b37e:	e7f0      	b.n	800b362 <__gethex+0x3fe>
 800b380:	0800ca2e 	.word	0x0800ca2e

0800b384 <L_shift>:
 800b384:	f1c2 0208 	rsb	r2, r2, #8
 800b388:	0092      	lsls	r2, r2, #2
 800b38a:	b570      	push	{r4, r5, r6, lr}
 800b38c:	f1c2 0620 	rsb	r6, r2, #32
 800b390:	6843      	ldr	r3, [r0, #4]
 800b392:	6804      	ldr	r4, [r0, #0]
 800b394:	fa03 f506 	lsl.w	r5, r3, r6
 800b398:	432c      	orrs	r4, r5
 800b39a:	40d3      	lsrs	r3, r2
 800b39c:	6004      	str	r4, [r0, #0]
 800b39e:	f840 3f04 	str.w	r3, [r0, #4]!
 800b3a2:	4288      	cmp	r0, r1
 800b3a4:	d3f4      	bcc.n	800b390 <L_shift+0xc>
 800b3a6:	bd70      	pop	{r4, r5, r6, pc}

0800b3a8 <__match>:
 800b3a8:	b530      	push	{r4, r5, lr}
 800b3aa:	6803      	ldr	r3, [r0, #0]
 800b3ac:	3301      	adds	r3, #1
 800b3ae:	f811 4b01 	ldrb.w	r4, [r1], #1
 800b3b2:	b914      	cbnz	r4, 800b3ba <__match+0x12>
 800b3b4:	6003      	str	r3, [r0, #0]
 800b3b6:	2001      	movs	r0, #1
 800b3b8:	bd30      	pop	{r4, r5, pc}
 800b3ba:	f813 2b01 	ldrb.w	r2, [r3], #1
 800b3be:	f1a2 0541 	sub.w	r5, r2, #65	@ 0x41
 800b3c2:	2d19      	cmp	r5, #25
 800b3c4:	bf98      	it	ls
 800b3c6:	3220      	addls	r2, #32
 800b3c8:	42a2      	cmp	r2, r4
 800b3ca:	d0f0      	beq.n	800b3ae <__match+0x6>
 800b3cc:	2000      	movs	r0, #0
 800b3ce:	e7f3      	b.n	800b3b8 <__match+0x10>

0800b3d0 <__hexnan>:
 800b3d0:	e92d 4ff0 	stmdb	sp!, {r4, r5, r6, r7, r8, r9, sl, fp, lr}
 800b3d4:	680b      	ldr	r3, [r1, #0]
 800b3d6:	6801      	ldr	r1, [r0, #0]
 800b3d8:	115e      	asrs	r6, r3, #5
 800b3da:	eb02 0686 	add.w	r6, r2, r6, lsl #2
 800b3de:	f013 031f 	ands.w	r3, r3, #31
 800b3e2:	b087      	sub	sp, #28
 800b3e4:	bf18      	it	ne
 800b3e6:	3604      	addne	r6, #4
 800b3e8:	2500      	movs	r5, #0
 800b3ea:	1f37      	subs	r7, r6, #4
 800b3ec:	4682      	mov	sl, r0
 800b3ee:	4690      	mov	r8, r2
 800b3f0:	9301      	str	r3, [sp, #4]
 800b3f2:	f846 5c04 	str.w	r5, [r6, #-4]
 800b3f6:	46b9      	mov	r9, r7
 800b3f8:	463c      	mov	r4, r7
 800b3fa:	9502      	str	r5, [sp, #8]
 800b3fc:	46ab      	mov	fp, r5
 800b3fe:	784a      	ldrb	r2, [r1, #1]
 800b400:	1c4b      	adds	r3, r1, #1
 800b402:	9303      	str	r3, [sp, #12]
 800b404:	b342      	cbz	r2, 800b458 <__hexnan+0x88>
 800b406:	4610      	mov	r0, r2
 800b408:	9105      	str	r1, [sp, #20]
 800b40a:	9204      	str	r2, [sp, #16]
 800b40c:	f7ff fd94 	bl	800af38 <__hexdig_fun>
 800b410:	2800      	cmp	r0, #0
 800b412:	d151      	bne.n	800b4b8 <__hexnan+0xe8>
 800b414:	9a04      	ldr	r2, [sp, #16]
 800b416:	9905      	ldr	r1, [sp, #20]
 800b418:	2a20      	cmp	r2, #32
 800b41a:	d818      	bhi.n	800b44e <__hexnan+0x7e>
 800b41c:	9b02      	ldr	r3, [sp, #8]
 800b41e:	459b      	cmp	fp, r3
 800b420:	dd13      	ble.n	800b44a <__hexnan+0x7a>
 800b422:	454c      	cmp	r4, r9
 800b424:	d206      	bcs.n	800b434 <__hexnan+0x64>
 800b426:	2d07      	cmp	r5, #7
 800b428:	dc04      	bgt.n	800b434 <__hexnan+0x64>
 800b42a:	462a      	mov	r2, r5
 800b42c:	4649      	mov	r1, r9
 800b42e:	4620      	mov	r0, r4
 800b430:	f7ff ffa8 	bl	800b384 <L_shift>
 800b434:	4544      	cmp	r4, r8
 800b436:	d952      	bls.n	800b4de <__hexnan+0x10e>
 800b438:	2300      	movs	r3, #0
 800b43a:	f1a4 0904 	sub.w	r9, r4, #4
 800b43e:	f844 3c04 	str.w	r3, [r4, #-4]
 800b442:	f8cd b008 	str.w	fp, [sp, #8]
 800b446:	464c      	mov	r4, r9
 800b448:	461d      	mov	r5, r3
 800b44a:	9903      	ldr	r1, [sp, #12]
 800b44c:	e7d7      	b.n	800b3fe <__hexnan+0x2e>
 800b44e:	2a29      	cmp	r2, #41	@ 0x29
 800b450:	d157      	bne.n	800b502 <__hexnan+0x132>
 800b452:	3102      	adds	r1, #2
 800b454:	f8ca 1000 	str.w	r1, [sl]
 800b458:	f1bb 0f00 	cmp.w	fp, #0
 800b45c:	d051      	beq.n	800b502 <__hexnan+0x132>
 800b45e:	454c      	cmp	r4, r9
 800b460:	d206      	bcs.n	800b470 <__hexnan+0xa0>
 800b462:	2d07      	cmp	r5, #7
 800b464:	dc04      	bgt.n	800b470 <__hexnan+0xa0>
 800b466:	462a      	mov	r2, r5
 800b468:	4649      	mov	r1, r9
 800b46a:	4620      	mov	r0, r4
 800b46c:	f7ff ff8a 	bl	800b384 <L_shift>
 800b470:	4544      	cmp	r4, r8
 800b472:	d936      	bls.n	800b4e2 <__hexnan+0x112>
 800b474:	f1a8 0204 	sub.w	r2, r8, #4
 800b478:	4623      	mov	r3, r4
 800b47a:	f853 1b04 	ldr.w	r1, [r3], #4
 800b47e:	f842 1f04 	str.w	r1, [r2, #4]!
 800b482:	429f      	cmp	r7, r3
 800b484:	d2f9      	bcs.n	800b47a <__hexnan+0xaa>
 800b486:	1b3b      	subs	r3, r7, r4
 800b488:	f023 0303 	bic.w	r3, r3, #3
 800b48c:	3304      	adds	r3, #4
 800b48e:	3401      	adds	r4, #1
 800b490:	3e03      	subs	r6, #3
 800b492:	42b4      	cmp	r4, r6
 800b494:	bf88      	it	hi
 800b496:	2304      	movhi	r3, #4
 800b498:	4443      	add	r3, r8
 800b49a:	2200      	movs	r2, #0
 800b49c:	f843 2b04 	str.w	r2, [r3], #4
 800b4a0:	429f      	cmp	r7, r3
 800b4a2:	d2fb      	bcs.n	800b49c <__hexnan+0xcc>
 800b4a4:	683b      	ldr	r3, [r7, #0]
 800b4a6:	b91b      	cbnz	r3, 800b4b0 <__hexnan+0xe0>
 800b4a8:	4547      	cmp	r7, r8
 800b4aa:	d128      	bne.n	800b4fe <__hexnan+0x12e>
 800b4ac:	2301      	movs	r3, #1
 800b4ae:	603b      	str	r3, [r7, #0]
 800b4b0:	2005      	movs	r0, #5
 800b4b2:	b007      	add	sp, #28
 800b4b4:	e8bd 8ff0 	ldmia.w	sp!, {r4, r5, r6, r7, r8, r9, sl, fp, pc}
 800b4b8:	3501      	adds	r5, #1
 800b4ba:	2d08      	cmp	r5, #8
 800b4bc:	f10b 0b01 	add.w	fp, fp, #1
 800b4c0:	dd06      	ble.n	800b4d0 <__hexnan+0x100>
 800b4c2:	4544      	cmp	r4, r8
 800b4c4:	d9c1      	bls.n	800b44a <__hexnan+0x7a>
 800b4c6:	2300      	movs	r3, #0
 800b4c8:	f844 3c04 	str.w	r3, [r4, #-4]
 800b4cc:	2501      	movs	r5, #1
 800b4ce:	3c04      	subs	r4, #4
 800b4d0:	6822      	ldr	r2, [r4, #0]
 800b4d2:	f000 000f 	and.w	r0, r0, #15
 800b4d6:	ea40 1002 	orr.w	r0, r0, r2, lsl #4
 800b4da:	6020      	str	r0, [r4, #0]
 800b4dc:	e7b5      	b.n	800b44a <__hexnan+0x7a>
 800b4de:	2508      	movs	r5, #8
 800b4e0:	e7b3      	b.n	800b44a <__hexnan+0x7a>
 800b4e2:	9b01      	ldr	r3, [sp, #4]
 800b4e4:	2b00      	cmp	r3, #0
 800b4e6:	d0dd      	beq.n	800b4a4 <__hexnan+0xd4>
 800b4e8:	f1c3 0320 	rsb	r3, r3, #32
 800b4ec:	f04f 32ff 	mov.w	r2, #4294967295
 800b4f0:	40da      	lsrs	r2, r3
 800b4f2:	f856 3c04 	ldr.w	r3, [r6, #-4]
 800b4f6:	4013      	ands	r3, r2
 800b4f8:	f846 3c04 	str.w	r3, [r6, #-4]
 800b4fc:	e7d2      	b.n	800b4a4 <__hexnan+0xd4>
 800b4fe:	3f04      	subs	r7, #4
 800b500:	e7d0      	b.n	800b4a4 <__hexnan+0xd4>
 800b502:	2004      	movs	r0, #4
 800b504:	e7d5      	b.n	800b4b2 <__hexnan+0xe2>

0800b506 <__ascii_mbtowc>:
 800b506:	b082      	sub	sp, #8
 800b508:	b901      	cbnz	r1, 800b50c <__ascii_mbtowc+0x6>
 800b50a:	a901      	add	r1, sp, #4
 800b50c:	b142      	cbz	r2, 800b520 <__ascii_mbtowc+0x1a>
 800b50e:	b14b      	cbz	r3, 800b524 <__ascii_mbtowc+0x1e>
 800b510:	7813      	ldrb	r3, [r2, #0]
 800b512:	600b      	str	r3, [r1, #0]
 800b514:	7812      	ldrb	r2, [r2, #0]
 800b516:	1e10      	subs	r0, r2, #0
 800b518:	bf18      	it	ne
 800b51a:	2001      	movne	r0, #1
 800b51c:	b002      	add	sp, #8
 800b51e:	4770      	bx	lr
 800b520:	4610      	mov	r0, r2
 800b522:	e7fb      	b.n	800b51c <__ascii_mbtowc+0x16>
 800b524:	f06f 0001 	mvn.w	r0, #1
 800b528:	e7f8      	b.n	800b51c <__ascii_mbtowc+0x16>
	...

0800b52c <_Balloc>:
 800b52c:	b570      	push	{r4, r5, r6, lr}
 800b52e:	69c6      	ldr	r6, [r0, #28]
 800b530:	4604      	mov	r4, r0
 800b532:	460d      	mov	r5, r1
 800b534:	b976      	cbnz	r6, 800b554 <_Balloc+0x28>
 800b536:	2010      	movs	r0, #16
 800b538:	f7fc fe6e 	bl	8008218 <malloc>
 800b53c:	4602      	mov	r2, r0
 800b53e:	61e0      	str	r0, [r4, #28]
 800b540:	b920      	cbnz	r0, 800b54c <_Balloc+0x20>
 800b542:	4b18      	ldr	r3, [pc, #96]	@ (800b5a4 <_Balloc+0x78>)
 800b544:	4818      	ldr	r0, [pc, #96]	@ (800b5a8 <_Balloc+0x7c>)
 800b546:	216b      	movs	r1, #107	@ 0x6b
 800b548:	f7fe fde2 	bl	800a110 <__assert_func>
 800b54c:	e9c0 6601 	strd	r6, r6, [r0, #4]
 800b550:	6006      	str	r6, [r0, #0]
 800b552:	60c6      	str	r6, [r0, #12]
 800b554:	69e6      	ldr	r6, [r4, #28]
 800b556:	68f3      	ldr	r3, [r6, #12]
 800b558:	b183      	cbz	r3, 800b57c <_Balloc+0x50>
 800b55a:	69e3      	ldr	r3, [r4, #28]
 800b55c:	68db      	ldr	r3, [r3, #12]
 800b55e:	f853 0025 	ldr.w	r0, [r3, r5, lsl #2]
 800b562:	b9b8      	cbnz	r0, 800b594 <_Balloc+0x68>
 800b564:	2101      	movs	r1, #1
 800b566:	fa01 f605 	lsl.w	r6, r1, r5
 800b56a:	1d72      	adds	r2, r6, #5
 800b56c:	0092      	lsls	r2, r2, #2
 800b56e:	4620      	mov	r0, r4
 800b570:	f000 fec9 	bl	800c306 <_calloc_r>
 800b574:	b160      	cbz	r0, 800b590 <_Balloc+0x64>
 800b576:	e9c0 5601 	strd	r5, r6, [r0, #4]
 800b57a:	e00e      	b.n	800b59a <_Balloc+0x6e>
 800b57c:	2221      	movs	r2, #33	@ 0x21
 800b57e:	2104      	movs	r1, #4
 800b580:	4620      	mov	r0, r4
 800b582:	f000 fec0 	bl	800c306 <_calloc_r>
 800b586:	69e3      	ldr	r3, [r4, #28]
 800b588:	60f0      	str	r0, [r6, #12]
 800b58a:	68db      	ldr	r3, [r3, #12]
 800b58c:	2b00      	cmp	r3, #0
 800b58e:	d1e4      	bne.n	800b55a <_Balloc+0x2e>
 800b590:	2000      	movs	r0, #0
 800b592:	bd70      	pop	{r4, r5, r6, pc}
 800b594:	6802      	ldr	r2, [r0, #0]
 800b596:	f843 2025 	str.w	r2, [r3, r5, lsl #2]
 800b59a:	2300      	movs	r3, #0
 800b59c:	e9c0 3303 	strd	r3, r3, [r0, #12]
 800b5a0:	e7f7      	b.n	800b592 <_Balloc+0x66>
 800b5a2:	bf00      	nop
 800b5a4:	0800c9bf 	.word	0x0800c9bf
 800b5a8:	0800ca9f 	.word	0x0800ca9f

0800b5ac <_Bfree>:
 800b5ac:	b570      	push	{r4, r5, r6, lr}
 800b5ae:	69c6      	ldr	r6, [r0, #28]
 800b5b0:	4605      	mov	r5, r0
 800b5b2:	460c      	mov	r4, r1
 800b5b4:	b976      	cbnz	r6, 800b5d4 <_Bfree+0x28>
 800b5b6:	2010      	movs	r0, #16
 800b5b8:	f7fc fe2e 	bl	8008218 <malloc>
 800b5bc:	4602      	mov	r2, r0
 800b5be:	61e8      	str	r0, [r5, #28]
 800b5c0:	b920      	cbnz	r0, 800b5cc <_Bfree+0x20>
 800b5c2:	4b09      	ldr	r3, [pc, #36]	@ (800b5e8 <_Bfree+0x3c>)
 800b5c4:	4809      	ldr	r0, [pc, #36]	@ (800b5ec <_Bfree+0x40>)
 800b5c6:	218f      	movs	r1, #143	@ 0x8f
 800b5c8:	f7fe fda2 	bl	800a110 <__assert_func>
 800b5cc:	e9c0 6601 	strd	r6, r6, [r0, #4]
 800b5d0:	6006      	str	r6, [r0, #0]
 800b5d2:	60c6      	str	r6, [r0, #12]
 800b5d4:	b13c      	cbz	r4, 800b5e6 <_Bfree+0x3a>
 800b5d6:	69eb      	ldr	r3, [r5, #28]
 800b5d8:	6862      	ldr	r2, [r4, #4]
 800b5da:	68db      	ldr	r3, [r3, #12]
 800b5dc:	f853 1022 	ldr.w	r1, [r3, r2, lsl #2]
 800b5e0:	6021      	str	r1, [r4, #0]
 800b5e2:	f843 4022 	str.w	r4, [r3, r2, lsl #2]
 800b5e6:	bd70      	pop	{r4, r5, r6, pc}
 800b5e8:	0800c9bf 	.word	0x0800c9bf
 800b5ec:	0800ca9f 	.word	0x0800ca9f

0800b5f0 <__multadd>:
 800b5f0:	e92d 41f0 	stmdb	sp!, {r4, r5, r6, r7, r8, lr}
 800b5f4:	690d      	ldr	r5, [r1, #16]
 800b5f6:	4607      	mov	r7, r0
 800b5f8:	460c      	mov	r4, r1
 800b5fa:	461e      	mov	r6, r3
 800b5fc:	f101 0c14 	add.w	ip, r1, #20
 800b600:	2000      	movs	r0, #0
 800b602:	f8dc 3000 	ldr.w	r3, [ip]
 800b606:	b299      	uxth	r1, r3
 800b608:	fb02 6101 	mla	r1, r2, r1, r6
 800b60c:	0c1e      	lsrs	r6, r3, #16
 800b60e:	0c0b      	lsrs	r3, r1, #16
 800b610:	fb02 3306 	mla	r3, r2, r6, r3
 800b614:	b289      	uxth	r1, r1
 800b616:	3001      	adds	r0, #1
 800b618:	eb01 4103 	add.w	r1, r1, r3, lsl #16
 800b61c:	4285      	cmp	r5, r0
 800b61e:	f84c 1b04 	str.w	r1, [ip], #4
 800b622:	ea4f 4613 	mov.w	r6, r3, lsr #16
 800b626:	dcec      	bgt.n	800b602 <__multadd+0x12>
 800b628:	b30e      	cbz	r6, 800b66e <__multadd+0x7e>
 800b62a:	68a3      	ldr	r3, [r4, #8]
 800b62c:	42ab      	cmp	r3, r5
 800b62e:	dc19      	bgt.n	800b664 <__multadd+0x74>
 800b630:	6861      	ldr	r1, [r4, #4]
 800b632:	4638      	mov	r0, r7
 800b634:	3101      	adds	r1, #1
 800b636:	f7ff ff79 	bl	800b52c <_Balloc>
 800b63a:	4680      	mov	r8, r0
 800b63c:	b928      	cbnz	r0, 800b64a <__multadd+0x5a>
 800b63e:	4602      	mov	r2, r0
 800b640:	4b0c      	ldr	r3, [pc, #48]	@ (800b674 <__multadd+0x84>)
 800b642:	480d      	ldr	r0, [pc, #52]	@ (800b678 <__multadd+0x88>)
 800b644:	21ba      	movs	r1, #186	@ 0xba
 800b646:	f7fe fd63 	bl	800a110 <__assert_func>
 800b64a:	6922      	ldr	r2, [r4, #16]
 800b64c:	3202      	adds	r2, #2
 800b64e:	f104 010c 	add.w	r1, r4, #12
 800b652:	0092      	lsls	r2, r2, #2
 800b654:	300c      	adds	r0, #12
 800b656:	f7fe fd46 	bl	800a0e6 <memcpy>
 800b65a:	4621      	mov	r1, r4
 800b65c:	4638      	mov	r0, r7
 800b65e:	f7ff ffa5 	bl	800b5ac <_Bfree>
 800b662:	4644      	mov	r4, r8
 800b664:	eb04 0385 	add.w	r3, r4, r5, lsl #2
 800b668:	3501      	adds	r5, #1
 800b66a:	615e      	str	r6, [r3, #20]
 800b66c:	6125      	str	r5, [r4, #16]
 800b66e:	4620      	mov	r0, r4
 800b670:	e8bd 81f0 	ldmia.w	sp!, {r4, r5, r6, r7, r8, pc}
 800b674:	0800ca2e 	.word	0x0800ca2e
 800b678:	0800ca9f 	.word	0x0800ca9f

0800b67c <__s2b>:
 800b67c:	e92d 43f8 	stmdb	sp!, {r3, r4, r5, r6, r7, r8, r9, lr}
 800b680:	460c      	mov	r4, r1
 800b682:	4615      	mov	r5, r2
 800b684:	461f      	mov	r7, r3
 800b686:	2209      	movs	r2, #9
 800b688:	3308      	adds	r3, #8
 800b68a:	4606      	mov	r6, r0
 800b68c:	fb93 f3f2 	sdiv	r3, r3, r2
 800b690:	2100      	movs	r1, #0
 800b692:	2201      	movs	r2, #1
 800b694:	429a      	cmp	r2, r3
 800b696:	db09      	blt.n	800b6ac <__s2b+0x30>
 800b698:	4630      	mov	r0, r6
 800b69a:	f7ff ff47 	bl	800b52c <_Balloc>
 800b69e:	b940      	cbnz	r0, 800b6b2 <__s2b+0x36>
 800b6a0:	4602      	mov	r2, r0
 800b6a2:	4b19      	ldr	r3, [pc, #100]	@ (800b708 <__s2b+0x8c>)
 800b6a4:	4819      	ldr	r0, [pc, #100]	@ (800b70c <__s2b+0x90>)
 800b6a6:	21d3      	movs	r1, #211	@ 0xd3
 800b6a8:	f7fe fd32 	bl	800a110 <__assert_func>
 800b6ac:	0052      	lsls	r2, r2, #1
 800b6ae:	3101      	adds	r1, #1
 800b6b0:	e7f0      	b.n	800b694 <__s2b+0x18>
 800b6b2:	9b08      	ldr	r3, [sp, #32]
 800b6b4:	6143      	str	r3, [r0, #20]
 800b6b6:	2d09      	cmp	r5, #9
 800b6b8:	f04f 0301 	mov.w	r3, #1
 800b6bc:	6103      	str	r3, [r0, #16]
 800b6be:	dd16      	ble.n	800b6ee <__s2b+0x72>
 800b6c0:	f104 0909 	add.w	r9, r4, #9
 800b6c4:	46c8      	mov	r8, r9
 800b6c6:	442c      	add	r4, r5
 800b6c8:	f818 3b01 	ldrb.w	r3, [r8], #1
 800b6cc:	4601      	mov	r1, r0
 800b6ce:	3b30      	subs	r3, #48	@ 0x30
 800b6d0:	220a      	movs	r2, #10
 800b6d2:	4630      	mov	r0, r6
 800b6d4:	f7ff ff8c 	bl	800b5f0 <__multadd>
 800b6d8:	45a0      	cmp	r8, r4
 800b6da:	d1f5      	bne.n	800b6c8 <__s2b+0x4c>
 800b6dc:	f1a5 0408 	sub.w	r4, r5, #8
 800b6e0:	444c      	add	r4, r9
 800b6e2:	1b2d      	subs	r5, r5, r4
 800b6e4:	1963      	adds	r3, r4, r5
 800b6e6:	42bb      	cmp	r3, r7
 800b6e8:	db04      	blt.n	800b6f4 <__s2b+0x78>
 800b6ea:	e8bd 83f8 	ldmia.w	sp!, {r3, r4, r5, r6, r7, r8, r9, pc}
 800b6ee:	340a      	adds	r4, #10
 800b6f0:	2509      	movs	r5, #9
 800b6f2:	e7f6      	b.n	800b6e2 <__s2b+0x66>
 800b6f4:	f814 3b01 	ldrb.w	r3, [r4], #1
 800b6f8:	4601      	mov	r1, r0
 800b6fa:	3b30      	subs	r3, #48	@ 0x30
 800b6fc:	220a      	movs	r2, #10
 800b6fe:	4630      	mov	r0, r6
 800b700:	f7ff ff76 	bl	800b5f0 <__multadd>
 800b704:	e7ee      	b.n	800b6e4 <__s2b+0x68>
 800b706:	bf00      	nop
 800b708:	0800ca2e 	.word	0x0800ca2e
 800b70c:	0800ca9f 	.word	0x0800ca9f

0800b710 <__hi0bits>:
 800b710:	f5b0 3f80 	cmp.w	r0, #65536	@ 0x10000
 800b714:	4603      	mov	r3, r0
 800b716:	bf36      	itet	cc
 800b718:	0403      	lslcc	r3, r0, #16
 800b71a:	2000      	movcs	r0, #0
 800b71c:	2010      	movcc	r0, #16
 800b71e:	f1b3 7f80 	cmp.w	r3, #16777216	@ 0x1000000
 800b722:	bf3c      	itt	cc
 800b724:	021b      	lslcc	r3, r3, #8
 800b726:	3008      	addcc	r0, #8
 800b728:	f1b3 5f80 	cmp.w	r3, #268435456	@ 0x10000000
 800b72c:	bf3c      	itt	cc
 800b72e:	011b      	lslcc	r3, r3, #4
 800b730:	3004      	addcc	r0, #4
 800b732:	f1b3 4f80 	cmp.w	r3, #1073741824	@ 0x40000000
 800b736:	bf3c      	itt	cc
 800b738:	009b      	lslcc	r3, r3, #2
 800b73a:	3002      	addcc	r0, #2
 800b73c:	2b00      	cmp	r3, #0
 800b73e:	db05      	blt.n	800b74c <__hi0bits+0x3c>
 800b740:	f013 4f80 	tst.w	r3, #1073741824	@ 0x40000000
 800b744:	f100 0001 	add.w	r0, r0, #1
 800b748:	bf08      	it	eq
 800b74a:	2020      	moveq	r0, #32
 800b74c:	4770      	bx	lr

0800b74e <__lo0bits>:
 800b74e:	6803      	ldr	r3, [r0, #0]
 800b750:	4602      	mov	r2, r0
 800b752:	f013 0007 	ands.w	r0, r3, #7
 800b756:	d00b      	beq.n	800b770 <__lo0bits+0x22>
 800b758:	07d9      	lsls	r1, r3, #31
 800b75a:	d421      	bmi.n	800b7a0 <__lo0bits+0x52>
 800b75c:	0798      	lsls	r0, r3, #30
 800b75e:	bf49      	itett	mi
 800b760:	085b      	lsrmi	r3, r3, #1
 800b762:	089b      	lsrpl	r3, r3, #2
 800b764:	2001      	movmi	r0, #1
 800b766:	6013      	strmi	r3, [r2, #0]
 800b768:	bf5c      	itt	pl
 800b76a:	6013      	strpl	r3, [r2, #0]
 800b76c:	2002      	movpl	r0, #2
 800b76e:	4770      	bx	lr
 800b770:	b299      	uxth	r1, r3
 800b772:	b909      	cbnz	r1, 800b778 <__lo0bits+0x2a>
 800b774:	0c1b      	lsrs	r3, r3, #16
 800b776:	2010      	movs	r0, #16
 800b778:	b2d9      	uxtb	r1, r3
 800b77a:	b909      	cbnz	r1, 800b780 <__lo0bits+0x32>
 800b77c:	3008      	adds	r0, #8
 800b77e:	0a1b      	lsrs	r3, r3, #8
 800b780:	0719      	lsls	r1, r3, #28
 800b782:	bf04      	itt	eq
 800b784:	091b      	lsreq	r3, r3, #4
 800b786:	3004      	addeq	r0, #4
 800b788:	0799      	lsls	r1, r3, #30
 800b78a:	bf04      	itt	eq
 800b78c:	089b      	lsreq	r3, r3, #2
 800b78e:	3002      	addeq	r0, #2
 800b790:	07d9      	lsls	r1, r3, #31
 800b792:	d403      	bmi.n	800b79c <__lo0bits+0x4e>
 800b794:	085b      	lsrs	r3, r3, #1
 800b796:	f100 0001 	add.w	r0, r0, #1
 800b79a:	d003      	beq.n	800b7a4 <__lo0bits+0x56>
 800b79c:	6013      	str	r3, [r2, #0]
 800b79e:	4770      	bx	lr
 800b7a0:	2000      	movs	r0, #0
 800b7a2:	4770      	bx	lr
 800b7a4:	2020      	movs	r0, #32
 800b7a6:	4770      	bx	lr

0800b7a8 <__i2b>:
 800b7a8:	b510      	push	{r4, lr}
 800b7aa:	460c      	mov	r4, r1
 800b7ac:	2101      	movs	r1, #1
 800b7ae:	f7ff febd 	bl	800b52c <_Balloc>
 800b7b2:	4602      	mov	r2, r0
 800b7b4:	b928      	cbnz	r0, 800b7c2 <__i2b+0x1a>
 800b7b6:	4b05      	ldr	r3, [pc, #20]	@ (800b7cc <__i2b+0x24>)
 800b7b8:	4805      	ldr	r0, [pc, #20]	@ (800b7d0 <__i2b+0x28>)
 800b7ba:	f240 1145 	movw	r1, #325	@ 0x145
 800b7be:	f7fe fca7 	bl	800a110 <__assert_func>
 800b7c2:	2301      	movs	r3, #1
 800b7c4:	6144      	str	r4, [r0, #20]
 800b7c6:	6103      	str	r3, [r0, #16]
 800b7c8:	bd10      	pop	{r4, pc}
 800b7ca:	bf00      	nop
 800b7cc:	0800ca2e 	.word	0x0800ca2e
 800b7d0:	0800ca9f 	.word	0x0800ca9f

0800b7d4 <__multiply>:
 800b7d4:	e92d 4ff0 	stmdb	sp!, {r4, r5, r6, r7, r8, r9, sl, fp, lr}
 800b7d8:	4617      	mov	r7, r2
 800b7da:	690a      	ldr	r2, [r1, #16]
 800b7dc:	693b      	ldr	r3, [r7, #16]
 800b7de:	429a      	cmp	r2, r3
 800b7e0:	bfa8      	it	ge
 800b7e2:	463b      	movge	r3, r7
 800b7e4:	4689      	mov	r9, r1
 800b7e6:	bfa4      	itt	ge
 800b7e8:	460f      	movge	r7, r1
 800b7ea:	4699      	movge	r9, r3
 800b7ec:	693d      	ldr	r5, [r7, #16]
 800b7ee:	f8d9 a010 	ldr.w	sl, [r9, #16]
 800b7f2:	68bb      	ldr	r3, [r7, #8]
 800b7f4:	6879      	ldr	r1, [r7, #4]
 800b7f6:	eb05 060a 	add.w	r6, r5, sl
 800b7fa:	42b3      	cmp	r3, r6
 800b7fc:	b085      	sub	sp, #20
 800b7fe:	bfb8      	it	lt
 800b800:	3101      	addlt	r1, #1
 800b802:	f7ff fe93 	bl	800b52c <_Balloc>
 800b806:	b930      	cbnz	r0, 800b816 <__multiply+0x42>
 800b808:	4602      	mov	r2, r0
 800b80a:	4b41      	ldr	r3, [pc, #260]	@ (800b910 <__multiply+0x13c>)
 800b80c:	4841      	ldr	r0, [pc, #260]	@ (800b914 <__multiply+0x140>)
 800b80e:	f44f 71b1 	mov.w	r1, #354	@ 0x162
 800b812:	f7fe fc7d 	bl	800a110 <__assert_func>
 800b816:	f100 0414 	add.w	r4, r0, #20
 800b81a:	eb04 0e86 	add.w	lr, r4, r6, lsl #2
 800b81e:	4623      	mov	r3, r4
 800b820:	2200      	movs	r2, #0
 800b822:	4573      	cmp	r3, lr
 800b824:	d320      	bcc.n	800b868 <__multiply+0x94>
 800b826:	f107 0814 	add.w	r8, r7, #20
 800b82a:	f109 0114 	add.w	r1, r9, #20
 800b82e:	eb08 0585 	add.w	r5, r8, r5, lsl #2
 800b832:	eb01 038a 	add.w	r3, r1, sl, lsl #2
 800b836:	9302      	str	r3, [sp, #8]
 800b838:	1beb      	subs	r3, r5, r7
 800b83a:	3b15      	subs	r3, #21
 800b83c:	f023 0303 	bic.w	r3, r3, #3
 800b840:	3304      	adds	r3, #4
 800b842:	3715      	adds	r7, #21
 800b844:	42bd      	cmp	r5, r7
 800b846:	bf38      	it	cc
 800b848:	2304      	movcc	r3, #4
 800b84a:	9301      	str	r3, [sp, #4]
 800b84c:	9b02      	ldr	r3, [sp, #8]
 800b84e:	9103      	str	r1, [sp, #12]
 800b850:	428b      	cmp	r3, r1
 800b852:	d80c      	bhi.n	800b86e <__multiply+0x9a>
 800b854:	2e00      	cmp	r6, #0
 800b856:	dd03      	ble.n	800b860 <__multiply+0x8c>
 800b858:	f85e 3d04 	ldr.w	r3, [lr, #-4]!
 800b85c:	2b00      	cmp	r3, #0
 800b85e:	d055      	beq.n	800b90c <__multiply+0x138>
 800b860:	6106      	str	r6, [r0, #16]
 800b862:	b005      	add	sp, #20
 800b864:	e8bd 8ff0 	ldmia.w	sp!, {r4, r5, r6, r7, r8, r9, sl, fp, pc}
 800b868:	f843 2b04 	str.w	r2, [r3], #4
 800b86c:	e7d9      	b.n	800b822 <__multiply+0x4e>
 800b86e:	f8b1 a000 	ldrh.w	sl, [r1]
 800b872:	f1ba 0f00 	cmp.w	sl, #0
 800b876:	d01f      	beq.n	800b8b8 <__multiply+0xe4>
 800b878:	46c4      	mov	ip, r8
 800b87a:	46a1      	mov	r9, r4
 800b87c:	2700      	movs	r7, #0
 800b87e:	f85c 2b04 	ldr.w	r2, [ip], #4
 800b882:	f8d9 3000 	ldr.w	r3, [r9]
 800b886:	fa1f fb82 	uxth.w	fp, r2
 800b88a:	b29b      	uxth	r3, r3
 800b88c:	fb0a 330b 	mla	r3, sl, fp, r3
 800b890:	443b      	add	r3, r7
 800b892:	f8d9 7000 	ldr.w	r7, [r9]
 800b896:	0c12      	lsrs	r2, r2, #16
 800b898:	0c3f      	lsrs	r7, r7, #16
 800b89a:	fb0a 7202 	mla	r2, sl, r2, r7
 800b89e:	eb02 4213 	add.w	r2, r2, r3, lsr #16
 800b8a2:	b29b      	uxth	r3, r3
 800b8a4:	ea43 4302 	orr.w	r3, r3, r2, lsl #16
 800b8a8:	4565      	cmp	r5, ip
 800b8aa:	f849 3b04 	str.w	r3, [r9], #4
 800b8ae:	ea4f 4712 	mov.w	r7, r2, lsr #16
 800b8b2:	d8e4      	bhi.n	800b87e <__multiply+0xaa>
 800b8b4:	9b01      	ldr	r3, [sp, #4]
 800b8b6:	50e7      	str	r7, [r4, r3]
 800b8b8:	9b03      	ldr	r3, [sp, #12]
 800b8ba:	f8b3 9002 	ldrh.w	r9, [r3, #2]
 800b8be:	3104      	adds	r1, #4
 800b8c0:	f1b9 0f00 	cmp.w	r9, #0
 800b8c4:	d020      	beq.n	800b908 <__multiply+0x134>
 800b8c6:	6823      	ldr	r3, [r4, #0]
 800b8c8:	4647      	mov	r7, r8
 800b8ca:	46a4      	mov	ip, r4
 800b8cc:	f04f 0a00 	mov.w	sl, #0
 800b8d0:	f8b7 b000 	ldrh.w	fp, [r7]
 800b8d4:	f8bc 2002 	ldrh.w	r2, [ip, #2]
 800b8d8:	fb09 220b 	mla	r2, r9, fp, r2
 800b8dc:	4452      	add	r2, sl
 800b8de:	b29b      	uxth	r3, r3
 800b8e0:	ea43 4302 	orr.w	r3, r3, r2, lsl #16
 800b8e4:	f84c 3b04 	str.w	r3, [ip], #4
 800b8e8:	f857 3b04 	ldr.w	r3, [r7], #4
 800b8ec:	ea4f 4a13 	mov.w	sl, r3, lsr #16
 800b8f0:	f8bc 3000 	ldrh.w	r3, [ip]
 800b8f4:	fb09 330a 	mla	r3, r9, sl, r3
 800b8f8:	eb03 4312 	add.w	r3, r3, r2, lsr #16
 800b8fc:	42bd      	cmp	r5, r7
 800b8fe:	ea4f 4a13 	mov.w	sl, r3, lsr #16
 800b902:	d8e5      	bhi.n	800b8d0 <__multiply+0xfc>
 800b904:	9a01      	ldr	r2, [sp, #4]
 800b906:	50a3      	str	r3, [r4, r2]
 800b908:	3404      	adds	r4, #4
 800b90a:	e79f      	b.n	800b84c <__multiply+0x78>
 800b90c:	3e01      	subs	r6, #1
 800b90e:	e7a1      	b.n	800b854 <__multiply+0x80>
 800b910:	0800ca2e 	.word	0x0800ca2e
 800b914:	0800ca9f 	.word	0x0800ca9f

0800b918 <__pow5mult>:
 800b918:	e92d 43f8 	stmdb	sp!, {r3, r4, r5, r6, r7, r8, r9, lr}
 800b91c:	4615      	mov	r5, r2
 800b91e:	f012 0203 	ands.w	r2, r2, #3
 800b922:	4607      	mov	r7, r0
 800b924:	460e      	mov	r6, r1
 800b926:	d007      	beq.n	800b938 <__pow5mult+0x20>
 800b928:	4c25      	ldr	r4, [pc, #148]	@ (800b9c0 <__pow5mult+0xa8>)
 800b92a:	3a01      	subs	r2, #1
 800b92c:	2300      	movs	r3, #0
 800b92e:	f854 2022 	ldr.w	r2, [r4, r2, lsl #2]
 800b932:	f7ff fe5d 	bl	800b5f0 <__multadd>
 800b936:	4606      	mov	r6, r0
 800b938:	10ad      	asrs	r5, r5, #2
 800b93a:	d03d      	beq.n	800b9b8 <__pow5mult+0xa0>
 800b93c:	69fc      	ldr	r4, [r7, #28]
 800b93e:	b97c      	cbnz	r4, 800b960 <__pow5mult+0x48>
 800b940:	2010      	movs	r0, #16
 800b942:	f7fc fc69 	bl	8008218 <malloc>
 800b946:	4602      	mov	r2, r0
 800b948:	61f8      	str	r0, [r7, #28]
 800b94a:	b928      	cbnz	r0, 800b958 <__pow5mult+0x40>
 800b94c:	4b1d      	ldr	r3, [pc, #116]	@ (800b9c4 <__pow5mult+0xac>)
 800b94e:	481e      	ldr	r0, [pc, #120]	@ (800b9c8 <__pow5mult+0xb0>)
 800b950:	f240 11b3 	movw	r1, #435	@ 0x1b3
 800b954:	f7fe fbdc 	bl	800a110 <__assert_func>
 800b958:	e9c0 4401 	strd	r4, r4, [r0, #4]
 800b95c:	6004      	str	r4, [r0, #0]
 800b95e:	60c4      	str	r4, [r0, #12]
 800b960:	f8d7 801c 	ldr.w	r8, [r7, #28]
 800b964:	f8d8 4008 	ldr.w	r4, [r8, #8]
 800b968:	b94c      	cbnz	r4, 800b97e <__pow5mult+0x66>
 800b96a:	f240 2171 	movw	r1, #625	@ 0x271
 800b96e:	4638      	mov	r0, r7
 800b970:	f7ff ff1a 	bl	800b7a8 <__i2b>
 800b974:	2300      	movs	r3, #0
 800b976:	f8c8 0008 	str.w	r0, [r8, #8]
 800b97a:	4604      	mov	r4, r0
 800b97c:	6003      	str	r3, [r0, #0]
 800b97e:	f04f 0900 	mov.w	r9, #0
 800b982:	07eb      	lsls	r3, r5, #31
 800b984:	d50a      	bpl.n	800b99c <__pow5mult+0x84>
 800b986:	4631      	mov	r1, r6
 800b988:	4622      	mov	r2, r4
 800b98a:	4638      	mov	r0, r7
 800b98c:	f7ff ff22 	bl	800b7d4 <__multiply>
 800b990:	4631      	mov	r1, r6
 800b992:	4680      	mov	r8, r0
 800b994:	4638      	mov	r0, r7
 800b996:	f7ff fe09 	bl	800b5ac <_Bfree>
 800b99a:	4646      	mov	r6, r8
 800b99c:	106d      	asrs	r5, r5, #1
 800b99e:	d00b      	beq.n	800b9b8 <__pow5mult+0xa0>
 800b9a0:	6820      	ldr	r0, [r4, #0]
 800b9a2:	b938      	cbnz	r0, 800b9b4 <__pow5mult+0x9c>
 800b9a4:	4622      	mov	r2, r4
 800b9a6:	4621      	mov	r1, r4
 800b9a8:	4638      	mov	r0, r7
 800b9aa:	f7ff ff13 	bl	800b7d4 <__multiply>
 800b9ae:	6020      	str	r0, [r4, #0]
 800b9b0:	f8c0 9000 	str.w	r9, [r0]
 800b9b4:	4604      	mov	r4, r0
 800b9b6:	e7e4      	b.n	800b982 <__pow5mult+0x6a>
 800b9b8:	4630      	mov	r0, r6
 800b9ba:	e8bd 83f8 	ldmia.w	sp!, {r3, r4, r5, r6, r7, r8, r9, pc}
 800b9be:	bf00      	nop
 800b9c0:	0800ceec 	.word	0x0800ceec
 800b9c4:	0800c9bf 	.word	0x0800c9bf
 800b9c8:	0800ca9f 	.word	0x0800ca9f

0800b9cc <__lshift>:
 800b9cc:	e92d 47f0 	stmdb	sp!, {r4, r5, r6, r7, r8, r9, sl, lr}
 800b9d0:	460c      	mov	r4, r1
 800b9d2:	6849      	ldr	r1, [r1, #4]
 800b9d4:	6923      	ldr	r3, [r4, #16]
 800b9d6:	eb03 1862 	add.w	r8, r3, r2, asr #5
 800b9da:	68a3      	ldr	r3, [r4, #8]
 800b9dc:	4607      	mov	r7, r0
 800b9de:	4691      	mov	r9, r2
 800b9e0:	ea4f 1a62 	mov.w	sl, r2, asr #5
 800b9e4:	f108 0601 	add.w	r6, r8, #1
 800b9e8:	42b3      	cmp	r3, r6
 800b9ea:	db0b      	blt.n	800ba04 <__lshift+0x38>
 800b9ec:	4638      	mov	r0, r7
 800b9ee:	f7ff fd9d 	bl	800b52c <_Balloc>
 800b9f2:	4605      	mov	r5, r0
 800b9f4:	b948      	cbnz	r0, 800ba0a <__lshift+0x3e>
 800b9f6:	4602      	mov	r2, r0
 800b9f8:	4b28      	ldr	r3, [pc, #160]	@ (800ba9c <__lshift+0xd0>)
 800b9fa:	4829      	ldr	r0, [pc, #164]	@ (800baa0 <__lshift+0xd4>)
 800b9fc:	f44f 71ef 	mov.w	r1, #478	@ 0x1de
 800ba00:	f7fe fb86 	bl	800a110 <__assert_func>
 800ba04:	3101      	adds	r1, #1
 800ba06:	005b      	lsls	r3, r3, #1
 800ba08:	e7ee      	b.n	800b9e8 <__lshift+0x1c>
 800ba0a:	2300      	movs	r3, #0
 800ba0c:	f100 0114 	add.w	r1, r0, #20
 800ba10:	f100 0210 	add.w	r2, r0, #16
 800ba14:	4618      	mov	r0, r3
 800ba16:	4553      	cmp	r3, sl
 800ba18:	db33      	blt.n	800ba82 <__lshift+0xb6>
 800ba1a:	6920      	ldr	r0, [r4, #16]
 800ba1c:	ea2a 7aea 	bic.w	sl, sl, sl, asr #31
 800ba20:	f104 0314 	add.w	r3, r4, #20
 800ba24:	f019 091f 	ands.w	r9, r9, #31
 800ba28:	eb01 018a 	add.w	r1, r1, sl, lsl #2
 800ba2c:	eb03 0c80 	add.w	ip, r3, r0, lsl #2
 800ba30:	d02b      	beq.n	800ba8a <__lshift+0xbe>
 800ba32:	f1c9 0e20 	rsb	lr, r9, #32
 800ba36:	468a      	mov	sl, r1
 800ba38:	2200      	movs	r2, #0
 800ba3a:	6818      	ldr	r0, [r3, #0]
 800ba3c:	fa00 f009 	lsl.w	r0, r0, r9
 800ba40:	4310      	orrs	r0, r2
 800ba42:	f84a 0b04 	str.w	r0, [sl], #4
 800ba46:	f853 2b04 	ldr.w	r2, [r3], #4
 800ba4a:	459c      	cmp	ip, r3
 800ba4c:	fa22 f20e 	lsr.w	r2, r2, lr
 800ba50:	d8f3      	bhi.n	800ba3a <__lshift+0x6e>
 800ba52:	ebac 0304 	sub.w	r3, ip, r4
 800ba56:	3b15      	subs	r3, #21
 800ba58:	f023 0303 	bic.w	r3, r3, #3
 800ba5c:	3304      	adds	r3, #4
 800ba5e:	f104 0015 	add.w	r0, r4, #21
 800ba62:	4560      	cmp	r0, ip
 800ba64:	bf88      	it	hi
 800ba66:	2304      	movhi	r3, #4
 800ba68:	50ca      	str	r2, [r1, r3]
 800ba6a:	b10a      	cbz	r2, 800ba70 <__lshift+0xa4>
 800ba6c:	f108 0602 	add.w	r6, r8, #2
 800ba70:	3e01      	subs	r6, #1
 800ba72:	4638      	mov	r0, r7
 800ba74:	612e      	str	r6, [r5, #16]
 800ba76:	4621      	mov	r1, r4
 800ba78:	f7ff fd98 	bl	800b5ac <_Bfree>
 800ba7c:	4628      	mov	r0, r5
 800ba7e:	e8bd 87f0 	ldmia.w	sp!, {r4, r5, r6, r7, r8, r9, sl, pc}
 800ba82:	f842 0f04 	str.w	r0, [r2, #4]!
 800ba86:	3301      	adds	r3, #1
 800ba88:	e7c5      	b.n	800ba16 <__lshift+0x4a>
 800ba8a:	3904      	subs	r1, #4
 800ba8c:	f853 2b04 	ldr.w	r2, [r3], #4
 800ba90:	f841 2f04 	str.w	r2, [r1, #4]!
 800ba94:	459c      	cmp	ip, r3
 800ba96:	d8f9      	bhi.n	800ba8c <__lshift+0xc0>
 800ba98:	e7ea      	b.n	800ba70 <__lshift+0xa4>
 800ba9a:	bf00      	nop
 800ba9c:	0800ca2e 	.word	0x0800ca2e
 800baa0:	0800ca9f 	.word	0x0800ca9f

0800baa4 <__mcmp>:
 800baa4:	690a      	ldr	r2, [r1, #16]
 800baa6:	4603      	mov	r3, r0
 800baa8:	6900      	ldr	r0, [r0, #16]
 800baaa:	1a80      	subs	r0, r0, r2
 800baac:	b530      	push	{r4, r5, lr}
 800baae:	d10e      	bne.n	800bace <__mcmp+0x2a>
 800bab0:	3314      	adds	r3, #20
 800bab2:	3114      	adds	r1, #20
 800bab4:	eb03 0482 	add.w	r4, r3, r2, lsl #2
 800bab8:	eb01 0182 	add.w	r1, r1, r2, lsl #2
 800babc:	f854 5d04 	ldr.w	r5, [r4, #-4]!
 800bac0:	f851 2d04 	ldr.w	r2, [r1, #-4]!
 800bac4:	4295      	cmp	r5, r2
 800bac6:	d003      	beq.n	800bad0 <__mcmp+0x2c>
 800bac8:	d205      	bcs.n	800bad6 <__mcmp+0x32>
 800baca:	f04f 30ff 	mov.w	r0, #4294967295
 800bace:	bd30      	pop	{r4, r5, pc}
 800bad0:	42a3      	cmp	r3, r4
 800bad2:	d3f3      	bcc.n	800babc <__mcmp+0x18>
 800bad4:	e7fb      	b.n	800bace <__mcmp+0x2a>
 800bad6:	2001      	movs	r0, #1
 800bad8:	e7f9      	b.n	800bace <__mcmp+0x2a>
	...

0800badc <__mdiff>:
 800badc:	e92d 4ff7 	stmdb	sp!, {r0, r1, r2, r4, r5, r6, r7, r8, r9, sl, fp, lr}
 800bae0:	4689      	mov	r9, r1
 800bae2:	4606      	mov	r6, r0
 800bae4:	4611      	mov	r1, r2
 800bae6:	4648      	mov	r0, r9
 800bae8:	4614      	mov	r4, r2
 800baea:	f7ff ffdb 	bl	800baa4 <__mcmp>
 800baee:	1e05      	subs	r5, r0, #0
 800baf0:	d112      	bne.n	800bb18 <__mdiff+0x3c>
 800baf2:	4629      	mov	r1, r5
 800baf4:	4630      	mov	r0, r6
 800baf6:	f7ff fd19 	bl	800b52c <_Balloc>
 800bafa:	4602      	mov	r2, r0
 800bafc:	b928      	cbnz	r0, 800bb0a <__mdiff+0x2e>
 800bafe:	4b3f      	ldr	r3, [pc, #252]	@ (800bbfc <__mdiff+0x120>)
 800bb00:	f240 2137 	movw	r1, #567	@ 0x237
 800bb04:	483e      	ldr	r0, [pc, #248]	@ (800bc00 <__mdiff+0x124>)
 800bb06:	f7fe fb03 	bl	800a110 <__assert_func>
 800bb0a:	2301      	movs	r3, #1
 800bb0c:	e9c0 3504 	strd	r3, r5, [r0, #16]
 800bb10:	4610      	mov	r0, r2
 800bb12:	b003      	add	sp, #12
 800bb14:	e8bd 8ff0 	ldmia.w	sp!, {r4, r5, r6, r7, r8, r9, sl, fp, pc}
 800bb18:	bfbc      	itt	lt
 800bb1a:	464b      	movlt	r3, r9
 800bb1c:	46a1      	movlt	r9, r4
 800bb1e:	4630      	mov	r0, r6
 800bb20:	f8d9 1004 	ldr.w	r1, [r9, #4]
 800bb24:	bfba      	itte	lt
 800bb26:	461c      	movlt	r4, r3
 800bb28:	2501      	movlt	r5, #1
 800bb2a:	2500      	movge	r5, #0
 800bb2c:	f7ff fcfe 	bl	800b52c <_Balloc>
 800bb30:	4602      	mov	r2, r0
 800bb32:	b918      	cbnz	r0, 800bb3c <__mdiff+0x60>
 800bb34:	4b31      	ldr	r3, [pc, #196]	@ (800bbfc <__mdiff+0x120>)
 800bb36:	f240 2145 	movw	r1, #581	@ 0x245
 800bb3a:	e7e3      	b.n	800bb04 <__mdiff+0x28>
 800bb3c:	f8d9 7010 	ldr.w	r7, [r9, #16]
 800bb40:	6926      	ldr	r6, [r4, #16]
 800bb42:	60c5      	str	r5, [r0, #12]
 800bb44:	f109 0310 	add.w	r3, r9, #16
 800bb48:	f109 0514 	add.w	r5, r9, #20
 800bb4c:	f104 0e14 	add.w	lr, r4, #20
 800bb50:	f100 0b14 	add.w	fp, r0, #20
 800bb54:	eb05 0887 	add.w	r8, r5, r7, lsl #2
 800bb58:	eb0e 0686 	add.w	r6, lr, r6, lsl #2
 800bb5c:	9301      	str	r3, [sp, #4]
 800bb5e:	46d9      	mov	r9, fp
 800bb60:	f04f 0c00 	mov.w	ip, #0
 800bb64:	9b01      	ldr	r3, [sp, #4]
 800bb66:	f85e 0b04 	ldr.w	r0, [lr], #4
 800bb6a:	f853 af04 	ldr.w	sl, [r3, #4]!
 800bb6e:	9301      	str	r3, [sp, #4]
 800bb70:	fa1f f38a 	uxth.w	r3, sl
 800bb74:	4619      	mov	r1, r3
 800bb76:	b283      	uxth	r3, r0
 800bb78:	1acb      	subs	r3, r1, r3
 800bb7a:	0c00      	lsrs	r0, r0, #16
 800bb7c:	4463      	add	r3, ip
 800bb7e:	ebc0 401a 	rsb	r0, r0, sl, lsr #16
 800bb82:	eb00 4023 	add.w	r0, r0, r3, asr #16
 800bb86:	b29b      	uxth	r3, r3
 800bb88:	ea43 4300 	orr.w	r3, r3, r0, lsl #16
 800bb8c:	4576      	cmp	r6, lr
 800bb8e:	f849 3b04 	str.w	r3, [r9], #4
 800bb92:	ea4f 4c20 	mov.w	ip, r0, asr #16
 800bb96:	d8e5      	bhi.n	800bb64 <__mdiff+0x88>
 800bb98:	1b33      	subs	r3, r6, r4
 800bb9a:	3b15      	subs	r3, #21
 800bb9c:	f023 0303 	bic.w	r3, r3, #3
 800bba0:	3415      	adds	r4, #21
 800bba2:	3304      	adds	r3, #4
 800bba4:	42a6      	cmp	r6, r4
 800bba6:	bf38      	it	cc
 800bba8:	2304      	movcc	r3, #4
 800bbaa:	441d      	add	r5, r3
 800bbac:	445b      	add	r3, fp
 800bbae:	461e      	mov	r6, r3
 800bbb0:	462c      	mov	r4, r5
 800bbb2:	4544      	cmp	r4, r8
 800bbb4:	d30e      	bcc.n	800bbd4 <__mdiff+0xf8>
 800bbb6:	f108 0103 	add.w	r1, r8, #3
 800bbba:	1b49      	subs	r1, r1, r5
 800bbbc:	f021 0103 	bic.w	r1, r1, #3
 800bbc0:	3d03      	subs	r5, #3
 800bbc2:	45a8      	cmp	r8, r5
 800bbc4:	bf38      	it	cc
 800bbc6:	2100      	movcc	r1, #0
 800bbc8:	440b      	add	r3, r1
 800bbca:	f853 1d04 	ldr.w	r1, [r3, #-4]!
 800bbce:	b191      	cbz	r1, 800bbf6 <__mdiff+0x11a>
 800bbd0:	6117      	str	r7, [r2, #16]
 800bbd2:	e79d      	b.n	800bb10 <__mdiff+0x34>
 800bbd4:	f854 1b04 	ldr.w	r1, [r4], #4
 800bbd8:	46e6      	mov	lr, ip
 800bbda:	0c08      	lsrs	r0, r1, #16
 800bbdc:	fa1c fc81 	uxtah	ip, ip, r1
 800bbe0:	4471      	add	r1, lr
 800bbe2:	eb00 402c 	add.w	r0, r0, ip, asr #16
 800bbe6:	b289      	uxth	r1, r1
 800bbe8:	ea41 4100 	orr.w	r1, r1, r0, lsl #16
 800bbec:	f846 1b04 	str.w	r1, [r6], #4
 800bbf0:	ea4f 4c20 	mov.w	ip, r0, asr #16
 800bbf4:	e7dd      	b.n	800bbb2 <__mdiff+0xd6>
 800bbf6:	3f01      	subs	r7, #1
 800bbf8:	e7e7      	b.n	800bbca <__mdiff+0xee>
 800bbfa:	bf00      	nop
 800bbfc:	0800ca2e 	.word	0x0800ca2e
 800bc00:	0800ca9f 	.word	0x0800ca9f

0800bc04 <__ulp>:
 800bc04:	b082      	sub	sp, #8
 800bc06:	ed8d 0b00 	vstr	d0, [sp]
 800bc0a:	9a01      	ldr	r2, [sp, #4]
 800bc0c:	4b0f      	ldr	r3, [pc, #60]	@ (800bc4c <__ulp+0x48>)
 800bc0e:	4013      	ands	r3, r2
 800bc10:	f1a3 7350 	sub.w	r3, r3, #54525952	@ 0x3400000
 800bc14:	2b00      	cmp	r3, #0
 800bc16:	dc08      	bgt.n	800bc2a <__ulp+0x26>
 800bc18:	425b      	negs	r3, r3
 800bc1a:	f1b3 7fa0 	cmp.w	r3, #20971520	@ 0x1400000
 800bc1e:	ea4f 5223 	mov.w	r2, r3, asr #20
 800bc22:	da04      	bge.n	800bc2e <__ulp+0x2a>
 800bc24:	f44f 2300 	mov.w	r3, #524288	@ 0x80000
 800bc28:	4113      	asrs	r3, r2
 800bc2a:	2200      	movs	r2, #0
 800bc2c:	e008      	b.n	800bc40 <__ulp+0x3c>
 800bc2e:	f1a2 0314 	sub.w	r3, r2, #20
 800bc32:	2b1e      	cmp	r3, #30
 800bc34:	bfda      	itte	le
 800bc36:	f04f 4200 	movle.w	r2, #2147483648	@ 0x80000000
 800bc3a:	40da      	lsrle	r2, r3
 800bc3c:	2201      	movgt	r2, #1
 800bc3e:	2300      	movs	r3, #0
 800bc40:	4619      	mov	r1, r3
 800bc42:	4610      	mov	r0, r2
 800bc44:	ec41 0b10 	vmov	d0, r0, r1
 800bc48:	b002      	add	sp, #8
 800bc4a:	4770      	bx	lr
 800bc4c:	7ff00000 	.word	0x7ff00000

0800bc50 <__b2d>:
 800bc50:	e92d 41f0 	stmdb	sp!, {r4, r5, r6, r7, r8, lr}
 800bc54:	6906      	ldr	r6, [r0, #16]
 800bc56:	f100 0814 	add.w	r8, r0, #20
 800bc5a:	eb08 0686 	add.w	r6, r8, r6, lsl #2
 800bc5e:	1f37      	subs	r7, r6, #4
 800bc60:	f856 2c04 	ldr.w	r2, [r6, #-4]
 800bc64:	4610      	mov	r0, r2
 800bc66:	f7ff fd53 	bl	800b710 <__hi0bits>
 800bc6a:	f1c0 0320 	rsb	r3, r0, #32
 800bc6e:	280a      	cmp	r0, #10
 800bc70:	600b      	str	r3, [r1, #0]
 800bc72:	491b      	ldr	r1, [pc, #108]	@ (800bce0 <__b2d+0x90>)
 800bc74:	dc15      	bgt.n	800bca2 <__b2d+0x52>
 800bc76:	f1c0 0c0b 	rsb	ip, r0, #11
 800bc7a:	fa22 f30c 	lsr.w	r3, r2, ip
 800bc7e:	45b8      	cmp	r8, r7
 800bc80:	ea43 0501 	orr.w	r5, r3, r1
 800bc84:	bf34      	ite	cc
 800bc86:	f856 3c08 	ldrcc.w	r3, [r6, #-8]
 800bc8a:	2300      	movcs	r3, #0
 800bc8c:	3015      	adds	r0, #21
 800bc8e:	fa02 f000 	lsl.w	r0, r2, r0
 800bc92:	fa23 f30c 	lsr.w	r3, r3, ip
 800bc96:	4303      	orrs	r3, r0
 800bc98:	461c      	mov	r4, r3
 800bc9a:	ec45 4b10 	vmov	d0, r4, r5
 800bc9e:	e8bd 81f0 	ldmia.w	sp!, {r4, r5, r6, r7, r8, pc}
 800bca2:	45b8      	cmp	r8, r7
 800bca4:	bf3a      	itte	cc
 800bca6:	f856 3c08 	ldrcc.w	r3, [r6, #-8]
 800bcaa:	f1a6 0708 	subcc.w	r7, r6, #8
 800bcae:	2300      	movcs	r3, #0
 800bcb0:	380b      	subs	r0, #11
 800bcb2:	d012      	beq.n	800bcda <__b2d+0x8a>
 800bcb4:	f1c0 0120 	rsb	r1, r0, #32
 800bcb8:	fa23 f401 	lsr.w	r4, r3, r1
 800bcbc:	4082      	lsls	r2, r0
 800bcbe:	4322      	orrs	r2, r4
 800bcc0:	4547      	cmp	r7, r8
 800bcc2:	f042 557f 	orr.w	r5, r2, #1069547520	@ 0x3fc00000
 800bcc6:	bf8c      	ite	hi
 800bcc8:	f857 2c04 	ldrhi.w	r2, [r7, #-4]
 800bccc:	2200      	movls	r2, #0
 800bcce:	4083      	lsls	r3, r0
 800bcd0:	40ca      	lsrs	r2, r1
 800bcd2:	f445 1540 	orr.w	r5, r5, #3145728	@ 0x300000
 800bcd6:	4313      	orrs	r3, r2
 800bcd8:	e7de      	b.n	800bc98 <__b2d+0x48>
 800bcda:	ea42 0501 	orr.w	r5, r2, r1
 800bcde:	e7db      	b.n	800bc98 <__b2d+0x48>
 800bce0:	3ff00000 	.word	0x3ff00000

0800bce4 <__d2b>:
 800bce4:	e92d 43f7 	stmdb	sp!, {r0, r1, r2, r4, r5, r6, r7, r8, r9, lr}
 800bce8:	460f      	mov	r7, r1
 800bcea:	2101      	movs	r1, #1
 800bcec:	ec59 8b10 	vmov	r8, r9, d0
 800bcf0:	4616      	mov	r6, r2
 800bcf2:	f7ff fc1b 	bl	800b52c <_Balloc>
 800bcf6:	4604      	mov	r4, r0
 800bcf8:	b930      	cbnz	r0, 800bd08 <__d2b+0x24>
 800bcfa:	4602      	mov	r2, r0
 800bcfc:	4b23      	ldr	r3, [pc, #140]	@ (800bd8c <__d2b+0xa8>)
 800bcfe:	4824      	ldr	r0, [pc, #144]	@ (800bd90 <__d2b+0xac>)
 800bd00:	f240 310f 	movw	r1, #783	@ 0x30f
 800bd04:	f7fe fa04 	bl	800a110 <__assert_func>
 800bd08:	f3c9 550a 	ubfx	r5, r9, #20, #11
 800bd0c:	f3c9 0313 	ubfx	r3, r9, #0, #20
 800bd10:	b10d      	cbz	r5, 800bd16 <__d2b+0x32>
 800bd12:	f443 1380 	orr.w	r3, r3, #1048576	@ 0x100000
 800bd16:	9301      	str	r3, [sp, #4]
 800bd18:	f1b8 0300 	subs.w	r3, r8, #0
 800bd1c:	d023      	beq.n	800bd66 <__d2b+0x82>
 800bd1e:	4668      	mov	r0, sp
 800bd20:	9300      	str	r3, [sp, #0]
 800bd22:	f7ff fd14 	bl	800b74e <__lo0bits>
 800bd26:	e9dd 1200 	ldrd	r1, r2, [sp]
 800bd2a:	b1d0      	cbz	r0, 800bd62 <__d2b+0x7e>
 800bd2c:	f1c0 0320 	rsb	r3, r0, #32
 800bd30:	fa02 f303 	lsl.w	r3, r2, r3
 800bd34:	430b      	orrs	r3, r1
 800bd36:	40c2      	lsrs	r2, r0
 800bd38:	6163      	str	r3, [r4, #20]
 800bd3a:	9201      	str	r2, [sp, #4]
 800bd3c:	9b01      	ldr	r3, [sp, #4]
 800bd3e:	61a3      	str	r3, [r4, #24]
 800bd40:	2b00      	cmp	r3, #0
 800bd42:	bf0c      	ite	eq
 800bd44:	2201      	moveq	r2, #1
 800bd46:	2202      	movne	r2, #2
 800bd48:	6122      	str	r2, [r4, #16]
 800bd4a:	b1a5      	cbz	r5, 800bd76 <__d2b+0x92>
 800bd4c:	f2a5 4533 	subw	r5, r5, #1075	@ 0x433
 800bd50:	4405      	add	r5, r0
 800bd52:	603d      	str	r5, [r7, #0]
 800bd54:	f1c0 0035 	rsb	r0, r0, #53	@ 0x35
 800bd58:	6030      	str	r0, [r6, #0]
 800bd5a:	4620      	mov	r0, r4
 800bd5c:	b003      	add	sp, #12
 800bd5e:	e8bd 83f0 	ldmia.w	sp!, {r4, r5, r6, r7, r8, r9, pc}
 800bd62:	6161      	str	r1, [r4, #20]
 800bd64:	e7ea      	b.n	800bd3c <__d2b+0x58>
 800bd66:	a801      	add	r0, sp, #4
 800bd68:	f7ff fcf1 	bl	800b74e <__lo0bits>
 800bd6c:	9b01      	ldr	r3, [sp, #4]
 800bd6e:	6163      	str	r3, [r4, #20]
 800bd70:	3020      	adds	r0, #32
 800bd72:	2201      	movs	r2, #1
 800bd74:	e7e8      	b.n	800bd48 <__d2b+0x64>
 800bd76:	eb04 0382 	add.w	r3, r4, r2, lsl #2
 800bd7a:	f2a0 4032 	subw	r0, r0, #1074	@ 0x432
 800bd7e:	6038      	str	r0, [r7, #0]
 800bd80:	6918      	ldr	r0, [r3, #16]
 800bd82:	f7ff fcc5 	bl	800b710 <__hi0bits>
 800bd86:	ebc0 1042 	rsb	r0, r0, r2, lsl #5
 800bd8a:	e7e5      	b.n	800bd58 <__d2b+0x74>
 800bd8c:	0800ca2e 	.word	0x0800ca2e
 800bd90:	0800ca9f 	.word	0x0800ca9f

0800bd94 <__ratio>:
 800bd94:	e92d 4ff0 	stmdb	sp!, {r4, r5, r6, r7, r8, r9, sl, fp, lr}
 800bd98:	b085      	sub	sp, #20
 800bd9a:	e9cd 1000 	strd	r1, r0, [sp]
 800bd9e:	a902      	add	r1, sp, #8
 800bda0:	f7ff ff56 	bl	800bc50 <__b2d>
 800bda4:	9800      	ldr	r0, [sp, #0]
 800bda6:	a903      	add	r1, sp, #12
 800bda8:	ec55 4b10 	vmov	r4, r5, d0
 800bdac:	f7ff ff50 	bl	800bc50 <__b2d>
 800bdb0:	9b01      	ldr	r3, [sp, #4]
 800bdb2:	6919      	ldr	r1, [r3, #16]
 800bdb4:	9b00      	ldr	r3, [sp, #0]
 800bdb6:	691b      	ldr	r3, [r3, #16]
 800bdb8:	1ac9      	subs	r1, r1, r3
 800bdba:	e9dd 3202 	ldrd	r3, r2, [sp, #8]
 800bdbe:	1a9b      	subs	r3, r3, r2
 800bdc0:	ec5b ab10 	vmov	sl, fp, d0
 800bdc4:	eb03 1341 	add.w	r3, r3, r1, lsl #5
 800bdc8:	2b00      	cmp	r3, #0
 800bdca:	bfce      	itee	gt
 800bdcc:	462a      	movgt	r2, r5
 800bdce:	ebc3 3303 	rsble	r3, r3, r3, lsl #12
 800bdd2:	465a      	movle	r2, fp
 800bdd4:	462f      	mov	r7, r5
 800bdd6:	46d9      	mov	r9, fp
 800bdd8:	bfcc      	ite	gt
 800bdda:	eb02 5703 	addgt.w	r7, r2, r3, lsl #20
 800bdde:	eb02 5903 	addle.w	r9, r2, r3, lsl #20
 800bde2:	464b      	mov	r3, r9
 800bde4:	4652      	mov	r2, sl
 800bde6:	4620      	mov	r0, r4
 800bde8:	4639      	mov	r1, r7
 800bdea:	f7f4 fd2f 	bl	800084c <__aeabi_ddiv>
 800bdee:	ec41 0b10 	vmov	d0, r0, r1
 800bdf2:	b005      	add	sp, #20
 800bdf4:	e8bd 8ff0 	ldmia.w	sp!, {r4, r5, r6, r7, r8, r9, sl, fp, pc}

0800bdf8 <__copybits>:
 800bdf8:	3901      	subs	r1, #1
 800bdfa:	b570      	push	{r4, r5, r6, lr}
 800bdfc:	1149      	asrs	r1, r1, #5
 800bdfe:	6914      	ldr	r4, [r2, #16]
 800be00:	3101      	adds	r1, #1
 800be02:	f102 0314 	add.w	r3, r2, #20
 800be06:	eb00 0181 	add.w	r1, r0, r1, lsl #2
 800be0a:	eb03 0484 	add.w	r4, r3, r4, lsl #2
 800be0e:	1f05      	subs	r5, r0, #4
 800be10:	42a3      	cmp	r3, r4
 800be12:	d30c      	bcc.n	800be2e <__copybits+0x36>
 800be14:	1aa3      	subs	r3, r4, r2
 800be16:	3b11      	subs	r3, #17
 800be18:	f023 0303 	bic.w	r3, r3, #3
 800be1c:	3211      	adds	r2, #17
 800be1e:	42a2      	cmp	r2, r4
 800be20:	bf88      	it	hi
 800be22:	2300      	movhi	r3, #0
 800be24:	4418      	add	r0, r3
 800be26:	2300      	movs	r3, #0
 800be28:	4288      	cmp	r0, r1
 800be2a:	d305      	bcc.n	800be38 <__copybits+0x40>
 800be2c:	bd70      	pop	{r4, r5, r6, pc}
 800be2e:	f853 6b04 	ldr.w	r6, [r3], #4
 800be32:	f845 6f04 	str.w	r6, [r5, #4]!
 800be36:	e7eb      	b.n	800be10 <__copybits+0x18>
 800be38:	f840 3b04 	str.w	r3, [r0], #4
 800be3c:	e7f4      	b.n	800be28 <__copybits+0x30>

0800be3e <__any_on>:
 800be3e:	f100 0214 	add.w	r2, r0, #20
 800be42:	6900      	ldr	r0, [r0, #16]
 800be44:	114b      	asrs	r3, r1, #5
 800be46:	4298      	cmp	r0, r3
 800be48:	b510      	push	{r4, lr}
 800be4a:	db11      	blt.n	800be70 <__any_on+0x32>
 800be4c:	dd0a      	ble.n	800be64 <__any_on+0x26>
 800be4e:	f011 011f 	ands.w	r1, r1, #31
 800be52:	d007      	beq.n	800be64 <__any_on+0x26>
 800be54:	f852 4023 	ldr.w	r4, [r2, r3, lsl #2]
 800be58:	fa24 f001 	lsr.w	r0, r4, r1
 800be5c:	fa00 f101 	lsl.w	r1, r0, r1
 800be60:	428c      	cmp	r4, r1
 800be62:	d10b      	bne.n	800be7c <__any_on+0x3e>
 800be64:	eb02 0383 	add.w	r3, r2, r3, lsl #2
 800be68:	4293      	cmp	r3, r2
 800be6a:	d803      	bhi.n	800be74 <__any_on+0x36>
 800be6c:	2000      	movs	r0, #0
 800be6e:	bd10      	pop	{r4, pc}
 800be70:	4603      	mov	r3, r0
 800be72:	e7f7      	b.n	800be64 <__any_on+0x26>
 800be74:	f853 1d04 	ldr.w	r1, [r3, #-4]!
 800be78:	2900      	cmp	r1, #0
 800be7a:	d0f5      	beq.n	800be68 <__any_on+0x2a>
 800be7c:	2001      	movs	r0, #1
 800be7e:	e7f6      	b.n	800be6e <__any_on+0x30>

0800be80 <__ascii_wctomb>:
 800be80:	4603      	mov	r3, r0
 800be82:	4608      	mov	r0, r1
 800be84:	b141      	cbz	r1, 800be98 <__ascii_wctomb+0x18>
 800be86:	2aff      	cmp	r2, #255	@ 0xff
 800be88:	d904      	bls.n	800be94 <__ascii_wctomb+0x14>
 800be8a:	228a      	movs	r2, #138	@ 0x8a
 800be8c:	601a      	str	r2, [r3, #0]
 800be8e:	f04f 30ff 	mov.w	r0, #4294967295
 800be92:	4770      	bx	lr
 800be94:	700a      	strb	r2, [r1, #0]
 800be96:	2001      	movs	r0, #1
 800be98:	4770      	bx	lr

0800be9a <__ssputs_r>:
 800be9a:	e92d 47f0 	stmdb	sp!, {r4, r5, r6, r7, r8, r9, sl, lr}
 800be9e:	688e      	ldr	r6, [r1, #8]
 800bea0:	461f      	mov	r7, r3
 800bea2:	42be      	cmp	r6, r7
 800bea4:	680b      	ldr	r3, [r1, #0]
 800bea6:	4682      	mov	sl, r0
 800bea8:	460c      	mov	r4, r1
 800beaa:	4690      	mov	r8, r2
 800beac:	d82d      	bhi.n	800bf0a <__ssputs_r+0x70>
 800beae:	f9b1 200c 	ldrsh.w	r2, [r1, #12]
 800beb2:	f412 6f90 	tst.w	r2, #1152	@ 0x480
 800beb6:	d026      	beq.n	800bf06 <__ssputs_r+0x6c>
 800beb8:	6965      	ldr	r5, [r4, #20]
 800beba:	6909      	ldr	r1, [r1, #16]
 800bebc:	eb05 0545 	add.w	r5, r5, r5, lsl #1
 800bec0:	eba3 0901 	sub.w	r9, r3, r1
 800bec4:	eb05 75d5 	add.w	r5, r5, r5, lsr #31
 800bec8:	1c7b      	adds	r3, r7, #1
 800beca:	444b      	add	r3, r9
 800becc:	106d      	asrs	r5, r5, #1
 800bece:	429d      	cmp	r5, r3
 800bed0:	bf38      	it	cc
 800bed2:	461d      	movcc	r5, r3
 800bed4:	0553      	lsls	r3, r2, #21
 800bed6:	d527      	bpl.n	800bf28 <__ssputs_r+0x8e>
 800bed8:	4629      	mov	r1, r5
 800beda:	f7fc f9c7 	bl	800826c <_malloc_r>
 800bede:	4606      	mov	r6, r0
 800bee0:	b360      	cbz	r0, 800bf3c <__ssputs_r+0xa2>
 800bee2:	6921      	ldr	r1, [r4, #16]
 800bee4:	464a      	mov	r2, r9
 800bee6:	f7fe f8fe 	bl	800a0e6 <memcpy>
 800beea:	89a3      	ldrh	r3, [r4, #12]
 800beec:	f423 6390 	bic.w	r3, r3, #1152	@ 0x480
 800bef0:	f043 0380 	orr.w	r3, r3, #128	@ 0x80
 800bef4:	81a3      	strh	r3, [r4, #12]
 800bef6:	6126      	str	r6, [r4, #16]
 800bef8:	6165      	str	r5, [r4, #20]
 800befa:	444e      	add	r6, r9
 800befc:	eba5 0509 	sub.w	r5, r5, r9
 800bf00:	6026      	str	r6, [r4, #0]
 800bf02:	60a5      	str	r5, [r4, #8]
 800bf04:	463e      	mov	r6, r7
 800bf06:	42be      	cmp	r6, r7
 800bf08:	d900      	bls.n	800bf0c <__ssputs_r+0x72>
 800bf0a:	463e      	mov	r6, r7
 800bf0c:	6820      	ldr	r0, [r4, #0]
 800bf0e:	4632      	mov	r2, r6
 800bf10:	4641      	mov	r1, r8
 800bf12:	f000 f9d7 	bl	800c2c4 <memmove>
 800bf16:	68a3      	ldr	r3, [r4, #8]
 800bf18:	1b9b      	subs	r3, r3, r6
 800bf1a:	60a3      	str	r3, [r4, #8]
 800bf1c:	6823      	ldr	r3, [r4, #0]
 800bf1e:	4433      	add	r3, r6
 800bf20:	6023      	str	r3, [r4, #0]
 800bf22:	2000      	movs	r0, #0
 800bf24:	e8bd 87f0 	ldmia.w	sp!, {r4, r5, r6, r7, r8, r9, sl, pc}
 800bf28:	462a      	mov	r2, r5
 800bf2a:	f000 fa00 	bl	800c32e <_realloc_r>
 800bf2e:	4606      	mov	r6, r0
 800bf30:	2800      	cmp	r0, #0
 800bf32:	d1e0      	bne.n	800bef6 <__ssputs_r+0x5c>
 800bf34:	6921      	ldr	r1, [r4, #16]
 800bf36:	4650      	mov	r0, sl
 800bf38:	f7fe ff62 	bl	800ae00 <_free_r>
 800bf3c:	230c      	movs	r3, #12
 800bf3e:	f8ca 3000 	str.w	r3, [sl]
 800bf42:	89a3      	ldrh	r3, [r4, #12]
 800bf44:	f043 0340 	orr.w	r3, r3, #64	@ 0x40
 800bf48:	81a3      	strh	r3, [r4, #12]
 800bf4a:	f04f 30ff 	mov.w	r0, #4294967295
 800bf4e:	e7e9      	b.n	800bf24 <__ssputs_r+0x8a>

0800bf50 <_svfiprintf_r>:
 800bf50:	e92d 4ff0 	stmdb	sp!, {r4, r5, r6, r7, r8, r9, sl, fp, lr}
 800bf54:	4698      	mov	r8, r3
 800bf56:	898b      	ldrh	r3, [r1, #12]
 800bf58:	061b      	lsls	r3, r3, #24
 800bf5a:	b09d      	sub	sp, #116	@ 0x74
 800bf5c:	4607      	mov	r7, r0
 800bf5e:	460d      	mov	r5, r1
 800bf60:	4614      	mov	r4, r2
 800bf62:	d510      	bpl.n	800bf86 <_svfiprintf_r+0x36>
 800bf64:	690b      	ldr	r3, [r1, #16]
 800bf66:	b973      	cbnz	r3, 800bf86 <_svfiprintf_r+0x36>
 800bf68:	2140      	movs	r1, #64	@ 0x40
 800bf6a:	f7fc f97f 	bl	800826c <_malloc_r>
 800bf6e:	6028      	str	r0, [r5, #0]
 800bf70:	6128      	str	r0, [r5, #16]
 800bf72:	b930      	cbnz	r0, 800bf82 <_svfiprintf_r+0x32>
 800bf74:	230c      	movs	r3, #12
 800bf76:	603b      	str	r3, [r7, #0]
 800bf78:	f04f 30ff 	mov.w	r0, #4294967295
 800bf7c:	b01d      	add	sp, #116	@ 0x74
 800bf7e:	e8bd 8ff0 	ldmia.w	sp!, {r4, r5, r6, r7, r8, r9, sl, fp, pc}
 800bf82:	2340      	movs	r3, #64	@ 0x40
 800bf84:	616b      	str	r3, [r5, #20]
 800bf86:	2300      	movs	r3, #0
 800bf88:	9309      	str	r3, [sp, #36]	@ 0x24
 800bf8a:	2320      	movs	r3, #32
 800bf8c:	f88d 3029 	strb.w	r3, [sp, #41]	@ 0x29
 800bf90:	f8cd 800c 	str.w	r8, [sp, #12]
 800bf94:	2330      	movs	r3, #48	@ 0x30
 800bf96:	f8df 819c 	ldr.w	r8, [pc, #412]	@ 800c134 <_svfiprintf_r+0x1e4>
 800bf9a:	f88d 302a 	strb.w	r3, [sp, #42]	@ 0x2a
 800bf9e:	f04f 0901 	mov.w	r9, #1
 800bfa2:	4623      	mov	r3, r4
 800bfa4:	469a      	mov	sl, r3
 800bfa6:	f813 2b01 	ldrb.w	r2, [r3], #1
 800bfaa:	b10a      	cbz	r2, 800bfb0 <_svfiprintf_r+0x60>
 800bfac:	2a25      	cmp	r2, #37	@ 0x25
 800bfae:	d1f9      	bne.n	800bfa4 <_svfiprintf_r+0x54>
 800bfb0:	ebba 0b04 	subs.w	fp, sl, r4
 800bfb4:	d00b      	beq.n	800bfce <_svfiprintf_r+0x7e>
 800bfb6:	465b      	mov	r3, fp
 800bfb8:	4622      	mov	r2, r4
 800bfba:	4629      	mov	r1, r5
 800bfbc:	4638      	mov	r0, r7
 800bfbe:	f7ff ff6c 	bl	800be9a <__ssputs_r>
 800bfc2:	3001      	adds	r0, #1
 800bfc4:	f000 80a7 	beq.w	800c116 <_svfiprintf_r+0x1c6>
 800bfc8:	9a09      	ldr	r2, [sp, #36]	@ 0x24
 800bfca:	445a      	add	r2, fp
 800bfcc:	9209      	str	r2, [sp, #36]	@ 0x24
 800bfce:	f89a 3000 	ldrb.w	r3, [sl]
 800bfd2:	2b00      	cmp	r3, #0
 800bfd4:	f000 809f 	beq.w	800c116 <_svfiprintf_r+0x1c6>
 800bfd8:	2300      	movs	r3, #0
 800bfda:	f04f 32ff 	mov.w	r2, #4294967295
 800bfde:	e9cd 2305 	strd	r2, r3, [sp, #20]
 800bfe2:	f10a 0a01 	add.w	sl, sl, #1
 800bfe6:	9304      	str	r3, [sp, #16]
 800bfe8:	9307      	str	r3, [sp, #28]
 800bfea:	f88d 3053 	strb.w	r3, [sp, #83]	@ 0x53
 800bfee:	931a      	str	r3, [sp, #104]	@ 0x68
 800bff0:	4654      	mov	r4, sl
 800bff2:	2205      	movs	r2, #5
 800bff4:	f814 1b01 	ldrb.w	r1, [r4], #1
 800bff8:	484e      	ldr	r0, [pc, #312]	@ (800c134 <_svfiprintf_r+0x1e4>)
 800bffa:	f7f4 f8e9 	bl	80001d0 <memchr>
 800bffe:	9a04      	ldr	r2, [sp, #16]
 800c000:	b9d8      	cbnz	r0, 800c03a <_svfiprintf_r+0xea>
 800c002:	06d0      	lsls	r0, r2, #27
 800c004:	bf44      	itt	mi
 800c006:	2320      	movmi	r3, #32
 800c008:	f88d 3053 	strbmi.w	r3, [sp, #83]	@ 0x53
 800c00c:	0711      	lsls	r1, r2, #28
 800c00e:	bf44      	itt	mi
 800c010:	232b      	movmi	r3, #43	@ 0x2b
 800c012:	f88d 3053 	strbmi.w	r3, [sp, #83]	@ 0x53
 800c016:	f89a 3000 	ldrb.w	r3, [sl]
 800c01a:	2b2a      	cmp	r3, #42	@ 0x2a
 800c01c:	d015      	beq.n	800c04a <_svfiprintf_r+0xfa>
 800c01e:	9a07      	ldr	r2, [sp, #28]
 800c020:	4654      	mov	r4, sl
 800c022:	2000      	movs	r0, #0
 800c024:	f04f 0c0a 	mov.w	ip, #10
 800c028:	4621      	mov	r1, r4
 800c02a:	f811 3b01 	ldrb.w	r3, [r1], #1
 800c02e:	3b30      	subs	r3, #48	@ 0x30
 800c030:	2b09      	cmp	r3, #9
 800c032:	d94b      	bls.n	800c0cc <_svfiprintf_r+0x17c>
 800c034:	b1b0      	cbz	r0, 800c064 <_svfiprintf_r+0x114>
 800c036:	9207      	str	r2, [sp, #28]
 800c038:	e014      	b.n	800c064 <_svfiprintf_r+0x114>
 800c03a:	eba0 0308 	sub.w	r3, r0, r8
 800c03e:	fa09 f303 	lsl.w	r3, r9, r3
 800c042:	4313      	orrs	r3, r2
 800c044:	9304      	str	r3, [sp, #16]
 800c046:	46a2      	mov	sl, r4
 800c048:	e7d2      	b.n	800bff0 <_svfiprintf_r+0xa0>
 800c04a:	9b03      	ldr	r3, [sp, #12]
 800c04c:	1d19      	adds	r1, r3, #4
 800c04e:	681b      	ldr	r3, [r3, #0]
 800c050:	9103      	str	r1, [sp, #12]
 800c052:	2b00      	cmp	r3, #0
 800c054:	bfbb      	ittet	lt
 800c056:	425b      	neglt	r3, r3
 800c058:	f042 0202 	orrlt.w	r2, r2, #2
 800c05c:	9307      	strge	r3, [sp, #28]
 800c05e:	9307      	strlt	r3, [sp, #28]
 800c060:	bfb8      	it	lt
 800c062:	9204      	strlt	r2, [sp, #16]
 800c064:	7823      	ldrb	r3, [r4, #0]
 800c066:	2b2e      	cmp	r3, #46	@ 0x2e
 800c068:	d10a      	bne.n	800c080 <_svfiprintf_r+0x130>
 800c06a:	7863      	ldrb	r3, [r4, #1]
 800c06c:	2b2a      	cmp	r3, #42	@ 0x2a
 800c06e:	d132      	bne.n	800c0d6 <_svfiprintf_r+0x186>
 800c070:	9b03      	ldr	r3, [sp, #12]
 800c072:	1d1a      	adds	r2, r3, #4
 800c074:	681b      	ldr	r3, [r3, #0]
 800c076:	9203      	str	r2, [sp, #12]
 800c078:	ea43 73e3 	orr.w	r3, r3, r3, asr #31
 800c07c:	3402      	adds	r4, #2
 800c07e:	9305      	str	r3, [sp, #20]
 800c080:	f8df a0c0 	ldr.w	sl, [pc, #192]	@ 800c144 <_svfiprintf_r+0x1f4>
 800c084:	7821      	ldrb	r1, [r4, #0]
 800c086:	2203      	movs	r2, #3
 800c088:	4650      	mov	r0, sl
 800c08a:	f7f4 f8a1 	bl	80001d0 <memchr>
 800c08e:	b138      	cbz	r0, 800c0a0 <_svfiprintf_r+0x150>
 800c090:	9b04      	ldr	r3, [sp, #16]
 800c092:	eba0 000a 	sub.w	r0, r0, sl
 800c096:	2240      	movs	r2, #64	@ 0x40
 800c098:	4082      	lsls	r2, r0
 800c09a:	4313      	orrs	r3, r2
 800c09c:	3401      	adds	r4, #1
 800c09e:	9304      	str	r3, [sp, #16]
 800c0a0:	f814 1b01 	ldrb.w	r1, [r4], #1
 800c0a4:	4824      	ldr	r0, [pc, #144]	@ (800c138 <_svfiprintf_r+0x1e8>)
 800c0a6:	f88d 1028 	strb.w	r1, [sp, #40]	@ 0x28
 800c0aa:	2206      	movs	r2, #6
 800c0ac:	f7f4 f890 	bl	80001d0 <memchr>
 800c0b0:	2800      	cmp	r0, #0
 800c0b2:	d036      	beq.n	800c122 <_svfiprintf_r+0x1d2>
 800c0b4:	4b21      	ldr	r3, [pc, #132]	@ (800c13c <_svfiprintf_r+0x1ec>)
 800c0b6:	bb1b      	cbnz	r3, 800c100 <_svfiprintf_r+0x1b0>
 800c0b8:	9b03      	ldr	r3, [sp, #12]
 800c0ba:	3307      	adds	r3, #7
 800c0bc:	f023 0307 	bic.w	r3, r3, #7
 800c0c0:	3308      	adds	r3, #8
 800c0c2:	9303      	str	r3, [sp, #12]
 800c0c4:	9b09      	ldr	r3, [sp, #36]	@ 0x24
 800c0c6:	4433      	add	r3, r6
 800c0c8:	9309      	str	r3, [sp, #36]	@ 0x24
 800c0ca:	e76a      	b.n	800bfa2 <_svfiprintf_r+0x52>
 800c0cc:	fb0c 3202 	mla	r2, ip, r2, r3
 800c0d0:	460c      	mov	r4, r1
 800c0d2:	2001      	movs	r0, #1
 800c0d4:	e7a8      	b.n	800c028 <_svfiprintf_r+0xd8>
 800c0d6:	2300      	movs	r3, #0
 800c0d8:	3401      	adds	r4, #1
 800c0da:	9305      	str	r3, [sp, #20]
 800c0dc:	4619      	mov	r1, r3
 800c0de:	f04f 0c0a 	mov.w	ip, #10
 800c0e2:	4620      	mov	r0, r4
 800c0e4:	f810 2b01 	ldrb.w	r2, [r0], #1
 800c0e8:	3a30      	subs	r2, #48	@ 0x30
 800c0ea:	2a09      	cmp	r2, #9
 800c0ec:	d903      	bls.n	800c0f6 <_svfiprintf_r+0x1a6>
 800c0ee:	2b00      	cmp	r3, #0
 800c0f0:	d0c6      	beq.n	800c080 <_svfiprintf_r+0x130>
 800c0f2:	9105      	str	r1, [sp, #20]
 800c0f4:	e7c4      	b.n	800c080 <_svfiprintf_r+0x130>
 800c0f6:	fb0c 2101 	mla	r1, ip, r1, r2
 800c0fa:	4604      	mov	r4, r0
 800c0fc:	2301      	movs	r3, #1
 800c0fe:	e7f0      	b.n	800c0e2 <_svfiprintf_r+0x192>
 800c100:	ab03      	add	r3, sp, #12
 800c102:	9300      	str	r3, [sp, #0]
 800c104:	462a      	mov	r2, r5
 800c106:	4b0e      	ldr	r3, [pc, #56]	@ (800c140 <_svfiprintf_r+0x1f0>)
 800c108:	a904      	add	r1, sp, #16
 800c10a:	4638      	mov	r0, r7
 800c10c:	f7fd f85e 	bl	80091cc <_printf_float>
 800c110:	1c42      	adds	r2, r0, #1
 800c112:	4606      	mov	r6, r0
 800c114:	d1d6      	bne.n	800c0c4 <_svfiprintf_r+0x174>
 800c116:	89ab      	ldrh	r3, [r5, #12]
 800c118:	065b      	lsls	r3, r3, #25
 800c11a:	f53f af2d 	bmi.w	800bf78 <_svfiprintf_r+0x28>
 800c11e:	9809      	ldr	r0, [sp, #36]	@ 0x24
 800c120:	e72c      	b.n	800bf7c <_svfiprintf_r+0x2c>
 800c122:	ab03      	add	r3, sp, #12
 800c124:	9300      	str	r3, [sp, #0]
 800c126:	462a      	mov	r2, r5
 800c128:	4b05      	ldr	r3, [pc, #20]	@ (800c140 <_svfiprintf_r+0x1f0>)
 800c12a:	a904      	add	r1, sp, #16
 800c12c:	4638      	mov	r0, r7
 800c12e:	f7fd fae5 	bl	80096fc <_printf_i>
 800c132:	e7ed      	b.n	800c110 <_svfiprintf_r+0x1c0>
 800c134:	0800caf8 	.word	0x0800caf8
 800c138:	0800cb02 	.word	0x0800cb02
 800c13c:	080091cd 	.word	0x080091cd
 800c140:	0800be9b 	.word	0x0800be9b
 800c144:	0800cafe 	.word	0x0800cafe

0800c148 <__sflush_r>:
 800c148:	f9b1 200c 	ldrsh.w	r2, [r1, #12]
 800c14c:	e92d 41f0 	stmdb	sp!, {r4, r5, r6, r7, r8, lr}
 800c150:	0716      	lsls	r6, r2, #28
 800c152:	4605      	mov	r5, r0
 800c154:	460c      	mov	r4, r1
 800c156:	d454      	bmi.n	800c202 <__sflush_r+0xba>
 800c158:	684b      	ldr	r3, [r1, #4]
 800c15a:	2b00      	cmp	r3, #0
 800c15c:	dc02      	bgt.n	800c164 <__sflush_r+0x1c>
 800c15e:	6c0b      	ldr	r3, [r1, #64]	@ 0x40
 800c160:	2b00      	cmp	r3, #0
 800c162:	dd48      	ble.n	800c1f6 <__sflush_r+0xae>
 800c164:	6ae6      	ldr	r6, [r4, #44]	@ 0x2c
 800c166:	2e00      	cmp	r6, #0
 800c168:	d045      	beq.n	800c1f6 <__sflush_r+0xae>
 800c16a:	2300      	movs	r3, #0
 800c16c:	f412 5280 	ands.w	r2, r2, #4096	@ 0x1000
 800c170:	682f      	ldr	r7, [r5, #0]
 800c172:	6a21      	ldr	r1, [r4, #32]
 800c174:	602b      	str	r3, [r5, #0]
 800c176:	d030      	beq.n	800c1da <__sflush_r+0x92>
 800c178:	6d62      	ldr	r2, [r4, #84]	@ 0x54
 800c17a:	89a3      	ldrh	r3, [r4, #12]
 800c17c:	0759      	lsls	r1, r3, #29
 800c17e:	d505      	bpl.n	800c18c <__sflush_r+0x44>
 800c180:	6863      	ldr	r3, [r4, #4]
 800c182:	1ad2      	subs	r2, r2, r3
 800c184:	6b63      	ldr	r3, [r4, #52]	@ 0x34
 800c186:	b10b      	cbz	r3, 800c18c <__sflush_r+0x44>
 800c188:	6c23      	ldr	r3, [r4, #64]	@ 0x40
 800c18a:	1ad2      	subs	r2, r2, r3
 800c18c:	2300      	movs	r3, #0
 800c18e:	6ae6      	ldr	r6, [r4, #44]	@ 0x2c
 800c190:	6a21      	ldr	r1, [r4, #32]
 800c192:	4628      	mov	r0, r5
 800c194:	47b0      	blx	r6
 800c196:	1c43      	adds	r3, r0, #1
 800c198:	89a3      	ldrh	r3, [r4, #12]
 800c19a:	d106      	bne.n	800c1aa <__sflush_r+0x62>
 800c19c:	6829      	ldr	r1, [r5, #0]
 800c19e:	291d      	cmp	r1, #29
 800c1a0:	d82b      	bhi.n	800c1fa <__sflush_r+0xb2>
 800c1a2:	4a2a      	ldr	r2, [pc, #168]	@ (800c24c <__sflush_r+0x104>)
 800c1a4:	40ca      	lsrs	r2, r1
 800c1a6:	07d6      	lsls	r6, r2, #31
 800c1a8:	d527      	bpl.n	800c1fa <__sflush_r+0xb2>
 800c1aa:	2200      	movs	r2, #0
 800c1ac:	6062      	str	r2, [r4, #4]
 800c1ae:	04d9      	lsls	r1, r3, #19
 800c1b0:	6922      	ldr	r2, [r4, #16]
 800c1b2:	6022      	str	r2, [r4, #0]
 800c1b4:	d504      	bpl.n	800c1c0 <__sflush_r+0x78>
 800c1b6:	1c42      	adds	r2, r0, #1
 800c1b8:	d101      	bne.n	800c1be <__sflush_r+0x76>
 800c1ba:	682b      	ldr	r3, [r5, #0]
 800c1bc:	b903      	cbnz	r3, 800c1c0 <__sflush_r+0x78>
 800c1be:	6560      	str	r0, [r4, #84]	@ 0x54
 800c1c0:	6b61      	ldr	r1, [r4, #52]	@ 0x34
 800c1c2:	602f      	str	r7, [r5, #0]
 800c1c4:	b1b9      	cbz	r1, 800c1f6 <__sflush_r+0xae>
 800c1c6:	f104 0344 	add.w	r3, r4, #68	@ 0x44
 800c1ca:	4299      	cmp	r1, r3
 800c1cc:	d002      	beq.n	800c1d4 <__sflush_r+0x8c>
 800c1ce:	4628      	mov	r0, r5
 800c1d0:	f7fe fe16 	bl	800ae00 <_free_r>
 800c1d4:	2300      	movs	r3, #0
 800c1d6:	6363      	str	r3, [r4, #52]	@ 0x34
 800c1d8:	e00d      	b.n	800c1f6 <__sflush_r+0xae>
 800c1da:	2301      	movs	r3, #1
 800c1dc:	4628      	mov	r0, r5
 800c1de:	47b0      	blx	r6
 800c1e0:	4602      	mov	r2, r0
 800c1e2:	1c50      	adds	r0, r2, #1
 800c1e4:	d1c9      	bne.n	800c17a <__sflush_r+0x32>
 800c1e6:	682b      	ldr	r3, [r5, #0]
 800c1e8:	2b00      	cmp	r3, #0
 800c1ea:	d0c6      	beq.n	800c17a <__sflush_r+0x32>
 800c1ec:	2b1d      	cmp	r3, #29
 800c1ee:	d001      	beq.n	800c1f4 <__sflush_r+0xac>
 800c1f0:	2b16      	cmp	r3, #22
 800c1f2:	d11e      	bne.n	800c232 <__sflush_r+0xea>
 800c1f4:	602f      	str	r7, [r5, #0]
 800c1f6:	2000      	movs	r0, #0
 800c1f8:	e022      	b.n	800c240 <__sflush_r+0xf8>
 800c1fa:	f043 0340 	orr.w	r3, r3, #64	@ 0x40
 800c1fe:	b21b      	sxth	r3, r3
 800c200:	e01b      	b.n	800c23a <__sflush_r+0xf2>
 800c202:	690f      	ldr	r7, [r1, #16]
 800c204:	2f00      	cmp	r7, #0
 800c206:	d0f6      	beq.n	800c1f6 <__sflush_r+0xae>
 800c208:	0793      	lsls	r3, r2, #30
 800c20a:	680e      	ldr	r6, [r1, #0]
 800c20c:	bf08      	it	eq
 800c20e:	694b      	ldreq	r3, [r1, #20]
 800c210:	600f      	str	r7, [r1, #0]
 800c212:	bf18      	it	ne
 800c214:	2300      	movne	r3, #0
 800c216:	eba6 0807 	sub.w	r8, r6, r7
 800c21a:	608b      	str	r3, [r1, #8]
 800c21c:	f1b8 0f00 	cmp.w	r8, #0
 800c220:	dde9      	ble.n	800c1f6 <__sflush_r+0xae>
 800c222:	6a21      	ldr	r1, [r4, #32]
 800c224:	6aa6      	ldr	r6, [r4, #40]	@ 0x28
 800c226:	4643      	mov	r3, r8
 800c228:	463a      	mov	r2, r7
 800c22a:	4628      	mov	r0, r5
 800c22c:	47b0      	blx	r6
 800c22e:	2800      	cmp	r0, #0
 800c230:	dc08      	bgt.n	800c244 <__sflush_r+0xfc>
 800c232:	f9b4 300c 	ldrsh.w	r3, [r4, #12]
 800c236:	f043 0340 	orr.w	r3, r3, #64	@ 0x40
 800c23a:	81a3      	strh	r3, [r4, #12]
 800c23c:	f04f 30ff 	mov.w	r0, #4294967295
 800c240:	e8bd 81f0 	ldmia.w	sp!, {r4, r5, r6, r7, r8, pc}
 800c244:	4407      	add	r7, r0
 800c246:	eba8 0800 	sub.w	r8, r8, r0
 800c24a:	e7e7      	b.n	800c21c <__sflush_r+0xd4>
 800c24c:	20400001 	.word	0x20400001

0800c250 <_fflush_r>:
 800c250:	b538      	push	{r3, r4, r5, lr}
 800c252:	690b      	ldr	r3, [r1, #16]
 800c254:	4605      	mov	r5, r0
 800c256:	460c      	mov	r4, r1
 800c258:	b913      	cbnz	r3, 800c260 <_fflush_r+0x10>
 800c25a:	2500      	movs	r5, #0
 800c25c:	4628      	mov	r0, r5
 800c25e:	bd38      	pop	{r3, r4, r5, pc}
 800c260:	b118      	cbz	r0, 800c26a <_fflush_r+0x1a>
 800c262:	6a03      	ldr	r3, [r0, #32]
 800c264:	b90b      	cbnz	r3, 800c26a <_fflush_r+0x1a>
 800c266:	f7fd fe01 	bl	8009e6c <__sinit>
 800c26a:	f9b4 300c 	ldrsh.w	r3, [r4, #12]
 800c26e:	2b00      	cmp	r3, #0
 800c270:	d0f3      	beq.n	800c25a <_fflush_r+0xa>
 800c272:	6e62      	ldr	r2, [r4, #100]	@ 0x64
 800c274:	07d0      	lsls	r0, r2, #31
 800c276:	d404      	bmi.n	800c282 <_fflush_r+0x32>
 800c278:	0599      	lsls	r1, r3, #22
 800c27a:	d402      	bmi.n	800c282 <_fflush_r+0x32>
 800c27c:	6da0      	ldr	r0, [r4, #88]	@ 0x58
 800c27e:	f7fd ff30 	bl	800a0e2 <__retarget_lock_acquire_recursive>
 800c282:	4628      	mov	r0, r5
 800c284:	4621      	mov	r1, r4
 800c286:	f7ff ff5f 	bl	800c148 <__sflush_r>
 800c28a:	6e63      	ldr	r3, [r4, #100]	@ 0x64
 800c28c:	07da      	lsls	r2, r3, #31
 800c28e:	4605      	mov	r5, r0
 800c290:	d4e4      	bmi.n	800c25c <_fflush_r+0xc>
 800c292:	89a3      	ldrh	r3, [r4, #12]
 800c294:	059b      	lsls	r3, r3, #22
 800c296:	d4e1      	bmi.n	800c25c <_fflush_r+0xc>
 800c298:	6da0      	ldr	r0, [r4, #88]	@ 0x58
 800c29a:	f7fd ff23 	bl	800a0e4 <__retarget_lock_release_recursive>
 800c29e:	e7dd      	b.n	800c25c <_fflush_r+0xc>

0800c2a0 <fiprintf>:
 800c2a0:	b40e      	push	{r1, r2, r3}
 800c2a2:	b503      	push	{r0, r1, lr}
 800c2a4:	4601      	mov	r1, r0
 800c2a6:	ab03      	add	r3, sp, #12
 800c2a8:	4805      	ldr	r0, [pc, #20]	@ (800c2c0 <fiprintf+0x20>)
 800c2aa:	f853 2b04 	ldr.w	r2, [r3], #4
 800c2ae:	6800      	ldr	r0, [r0, #0]
 800c2b0:	9301      	str	r3, [sp, #4]
 800c2b2:	f000 f893 	bl	800c3dc <_vfiprintf_r>
 800c2b6:	b002      	add	sp, #8
 800c2b8:	f85d eb04 	ldr.w	lr, [sp], #4
 800c2bc:	b003      	add	sp, #12
 800c2be:	4770      	bx	lr
 800c2c0:	2000022c 	.word	0x2000022c

0800c2c4 <memmove>:
 800c2c4:	4288      	cmp	r0, r1
 800c2c6:	b510      	push	{r4, lr}
 800c2c8:	eb01 0402 	add.w	r4, r1, r2
 800c2cc:	d902      	bls.n	800c2d4 <memmove+0x10>
 800c2ce:	4284      	cmp	r4, r0
 800c2d0:	4623      	mov	r3, r4
 800c2d2:	d807      	bhi.n	800c2e4 <memmove+0x20>
 800c2d4:	1e43      	subs	r3, r0, #1
 800c2d6:	42a1      	cmp	r1, r4
 800c2d8:	d008      	beq.n	800c2ec <memmove+0x28>
 800c2da:	f811 2b01 	ldrb.w	r2, [r1], #1
 800c2de:	f803 2f01 	strb.w	r2, [r3, #1]!
 800c2e2:	e7f8      	b.n	800c2d6 <memmove+0x12>
 800c2e4:	4402      	add	r2, r0
 800c2e6:	4601      	mov	r1, r0
 800c2e8:	428a      	cmp	r2, r1
 800c2ea:	d100      	bne.n	800c2ee <memmove+0x2a>
 800c2ec:	bd10      	pop	{r4, pc}
 800c2ee:	f813 4d01 	ldrb.w	r4, [r3, #-1]!
 800c2f2:	f802 4d01 	strb.w	r4, [r2, #-1]!
 800c2f6:	e7f7      	b.n	800c2e8 <memmove+0x24>

0800c2f8 <abort>:
 800c2f8:	b508      	push	{r3, lr}
 800c2fa:	2006      	movs	r0, #6
 800c2fc:	f000 fa42 	bl	800c784 <raise>
 800c300:	2001      	movs	r0, #1
 800c302:	f7f6 f9db 	bl	80026bc <_exit>

0800c306 <_calloc_r>:
 800c306:	b570      	push	{r4, r5, r6, lr}
 800c308:	fba1 5402 	umull	r5, r4, r1, r2
 800c30c:	b934      	cbnz	r4, 800c31c <_calloc_r+0x16>
 800c30e:	4629      	mov	r1, r5
 800c310:	f7fb ffac 	bl	800826c <_malloc_r>
 800c314:	4606      	mov	r6, r0
 800c316:	b928      	cbnz	r0, 800c324 <_calloc_r+0x1e>
 800c318:	4630      	mov	r0, r6
 800c31a:	bd70      	pop	{r4, r5, r6, pc}
 800c31c:	220c      	movs	r2, #12
 800c31e:	6002      	str	r2, [r0, #0]
 800c320:	2600      	movs	r6, #0
 800c322:	e7f9      	b.n	800c318 <_calloc_r+0x12>
 800c324:	462a      	mov	r2, r5
 800c326:	4621      	mov	r1, r4
 800c328:	f7fd fe3b 	bl	8009fa2 <memset>
 800c32c:	e7f4      	b.n	800c318 <_calloc_r+0x12>

0800c32e <_realloc_r>:
 800c32e:	e92d 41f0 	stmdb	sp!, {r4, r5, r6, r7, r8, lr}
 800c332:	4607      	mov	r7, r0
 800c334:	4614      	mov	r4, r2
 800c336:	460d      	mov	r5, r1
 800c338:	b921      	cbnz	r1, 800c344 <_realloc_r+0x16>
 800c33a:	e8bd 41f0 	ldmia.w	sp!, {r4, r5, r6, r7, r8, lr}
 800c33e:	4611      	mov	r1, r2
 800c340:	f7fb bf94 	b.w	800826c <_malloc_r>
 800c344:	b92a      	cbnz	r2, 800c352 <_realloc_r+0x24>
 800c346:	f7fe fd5b 	bl	800ae00 <_free_r>
 800c34a:	4625      	mov	r5, r4
 800c34c:	4628      	mov	r0, r5
 800c34e:	e8bd 81f0 	ldmia.w	sp!, {r4, r5, r6, r7, r8, pc}
 800c352:	f000 fa33 	bl	800c7bc <_malloc_usable_size_r>
 800c356:	4284      	cmp	r4, r0
 800c358:	4606      	mov	r6, r0
 800c35a:	d802      	bhi.n	800c362 <_realloc_r+0x34>
 800c35c:	ebb4 0f50 	cmp.w	r4, r0, lsr #1
 800c360:	d8f4      	bhi.n	800c34c <_realloc_r+0x1e>
 800c362:	4621      	mov	r1, r4
 800c364:	4638      	mov	r0, r7
 800c366:	f7fb ff81 	bl	800826c <_malloc_r>
 800c36a:	4680      	mov	r8, r0
 800c36c:	b908      	cbnz	r0, 800c372 <_realloc_r+0x44>
 800c36e:	4645      	mov	r5, r8
 800c370:	e7ec      	b.n	800c34c <_realloc_r+0x1e>
 800c372:	42b4      	cmp	r4, r6
 800c374:	4622      	mov	r2, r4
 800c376:	4629      	mov	r1, r5
 800c378:	bf28      	it	cs
 800c37a:	4632      	movcs	r2, r6
 800c37c:	f7fd feb3 	bl	800a0e6 <memcpy>
 800c380:	4629      	mov	r1, r5
 800c382:	4638      	mov	r0, r7
 800c384:	f7fe fd3c 	bl	800ae00 <_free_r>
 800c388:	e7f1      	b.n	800c36e <_realloc_r+0x40>

0800c38a <__sfputc_r>:
 800c38a:	6893      	ldr	r3, [r2, #8]
 800c38c:	3b01      	subs	r3, #1
 800c38e:	2b00      	cmp	r3, #0
 800c390:	b410      	push	{r4}
 800c392:	6093      	str	r3, [r2, #8]
 800c394:	da08      	bge.n	800c3a8 <__sfputc_r+0x1e>
 800c396:	6994      	ldr	r4, [r2, #24]
 800c398:	42a3      	cmp	r3, r4
 800c39a:	db01      	blt.n	800c3a0 <__sfputc_r+0x16>
 800c39c:	290a      	cmp	r1, #10
 800c39e:	d103      	bne.n	800c3a8 <__sfputc_r+0x1e>
 800c3a0:	f85d 4b04 	ldr.w	r4, [sp], #4
 800c3a4:	f000 b932 	b.w	800c60c <__swbuf_r>
 800c3a8:	6813      	ldr	r3, [r2, #0]
 800c3aa:	1c58      	adds	r0, r3, #1
 800c3ac:	6010      	str	r0, [r2, #0]
 800c3ae:	7019      	strb	r1, [r3, #0]
 800c3b0:	4608      	mov	r0, r1
 800c3b2:	f85d 4b04 	ldr.w	r4, [sp], #4
 800c3b6:	4770      	bx	lr

0800c3b8 <__sfputs_r>:
 800c3b8:	b5f8      	push	{r3, r4, r5, r6, r7, lr}
 800c3ba:	4606      	mov	r6, r0
 800c3bc:	460f      	mov	r7, r1
 800c3be:	4614      	mov	r4, r2
 800c3c0:	18d5      	adds	r5, r2, r3
 800c3c2:	42ac      	cmp	r4, r5
 800c3c4:	d101      	bne.n	800c3ca <__sfputs_r+0x12>
 800c3c6:	2000      	movs	r0, #0
 800c3c8:	e007      	b.n	800c3da <__sfputs_r+0x22>
 800c3ca:	f814 1b01 	ldrb.w	r1, [r4], #1
 800c3ce:	463a      	mov	r2, r7
 800c3d0:	4630      	mov	r0, r6
 800c3d2:	f7ff ffda 	bl	800c38a <__sfputc_r>
 800c3d6:	1c43      	adds	r3, r0, #1
 800c3d8:	d1f3      	bne.n	800c3c2 <__sfputs_r+0xa>
 800c3da:	bdf8      	pop	{r3, r4, r5, r6, r7, pc}

0800c3dc <_vfiprintf_r>:
 800c3dc:	e92d 4ff0 	stmdb	sp!, {r4, r5, r6, r7, r8, r9, sl, fp, lr}
 800c3e0:	460d      	mov	r5, r1
 800c3e2:	b09d      	sub	sp, #116	@ 0x74
 800c3e4:	4614      	mov	r4, r2
 800c3e6:	4698      	mov	r8, r3
 800c3e8:	4606      	mov	r6, r0
 800c3ea:	b118      	cbz	r0, 800c3f4 <_vfiprintf_r+0x18>
 800c3ec:	6a03      	ldr	r3, [r0, #32]
 800c3ee:	b90b      	cbnz	r3, 800c3f4 <_vfiprintf_r+0x18>
 800c3f0:	f7fd fd3c 	bl	8009e6c <__sinit>
 800c3f4:	6e6b      	ldr	r3, [r5, #100]	@ 0x64
 800c3f6:	07d9      	lsls	r1, r3, #31
 800c3f8:	d405      	bmi.n	800c406 <_vfiprintf_r+0x2a>
 800c3fa:	89ab      	ldrh	r3, [r5, #12]
 800c3fc:	059a      	lsls	r2, r3, #22
 800c3fe:	d402      	bmi.n	800c406 <_vfiprintf_r+0x2a>
 800c400:	6da8      	ldr	r0, [r5, #88]	@ 0x58
 800c402:	f7fd fe6e 	bl	800a0e2 <__retarget_lock_acquire_recursive>
 800c406:	89ab      	ldrh	r3, [r5, #12]
 800c408:	071b      	lsls	r3, r3, #28
 800c40a:	d501      	bpl.n	800c410 <_vfiprintf_r+0x34>
 800c40c:	692b      	ldr	r3, [r5, #16]
 800c40e:	b99b      	cbnz	r3, 800c438 <_vfiprintf_r+0x5c>
 800c410:	4629      	mov	r1, r5
 800c412:	4630      	mov	r0, r6
 800c414:	f000 f938 	bl	800c688 <__swsetup_r>
 800c418:	b170      	cbz	r0, 800c438 <_vfiprintf_r+0x5c>
 800c41a:	6e6b      	ldr	r3, [r5, #100]	@ 0x64
 800c41c:	07dc      	lsls	r4, r3, #31
 800c41e:	d504      	bpl.n	800c42a <_vfiprintf_r+0x4e>
 800c420:	f04f 30ff 	mov.w	r0, #4294967295
 800c424:	b01d      	add	sp, #116	@ 0x74
 800c426:	e8bd 8ff0 	ldmia.w	sp!, {r4, r5, r6, r7, r8, r9, sl, fp, pc}
 800c42a:	89ab      	ldrh	r3, [r5, #12]
 800c42c:	0598      	lsls	r0, r3, #22
 800c42e:	d4f7      	bmi.n	800c420 <_vfiprintf_r+0x44>
 800c430:	6da8      	ldr	r0, [r5, #88]	@ 0x58
 800c432:	f7fd fe57 	bl	800a0e4 <__retarget_lock_release_recursive>
 800c436:	e7f3      	b.n	800c420 <_vfiprintf_r+0x44>
 800c438:	2300      	movs	r3, #0
 800c43a:	9309      	str	r3, [sp, #36]	@ 0x24
 800c43c:	2320      	movs	r3, #32
 800c43e:	f88d 3029 	strb.w	r3, [sp, #41]	@ 0x29
 800c442:	f8cd 800c 	str.w	r8, [sp, #12]
 800c446:	2330      	movs	r3, #48	@ 0x30
 800c448:	f8df 81ac 	ldr.w	r8, [pc, #428]	@ 800c5f8 <_vfiprintf_r+0x21c>
 800c44c:	f88d 302a 	strb.w	r3, [sp, #42]	@ 0x2a
 800c450:	f04f 0901 	mov.w	r9, #1
 800c454:	4623      	mov	r3, r4
 800c456:	469a      	mov	sl, r3
 800c458:	f813 2b01 	ldrb.w	r2, [r3], #1
 800c45c:	b10a      	cbz	r2, 800c462 <_vfiprintf_r+0x86>
 800c45e:	2a25      	cmp	r2, #37	@ 0x25
 800c460:	d1f9      	bne.n	800c456 <_vfiprintf_r+0x7a>
 800c462:	ebba 0b04 	subs.w	fp, sl, r4
 800c466:	d00b      	beq.n	800c480 <_vfiprintf_r+0xa4>
 800c468:	465b      	mov	r3, fp
 800c46a:	4622      	mov	r2, r4
 800c46c:	4629      	mov	r1, r5
 800c46e:	4630      	mov	r0, r6
 800c470:	f7ff ffa2 	bl	800c3b8 <__sfputs_r>
 800c474:	3001      	adds	r0, #1
 800c476:	f000 80a7 	beq.w	800c5c8 <_vfiprintf_r+0x1ec>
 800c47a:	9a09      	ldr	r2, [sp, #36]	@ 0x24
 800c47c:	445a      	add	r2, fp
 800c47e:	9209      	str	r2, [sp, #36]	@ 0x24
 800c480:	f89a 3000 	ldrb.w	r3, [sl]
 800c484:	2b00      	cmp	r3, #0
 800c486:	f000 809f 	beq.w	800c5c8 <_vfiprintf_r+0x1ec>
 800c48a:	2300      	movs	r3, #0
 800c48c:	f04f 32ff 	mov.w	r2, #4294967295
 800c490:	e9cd 2305 	strd	r2, r3, [sp, #20]
 800c494:	f10a 0a01 	add.w	sl, sl, #1
 800c498:	9304      	str	r3, [sp, #16]
 800c49a:	9307      	str	r3, [sp, #28]
 800c49c:	f88d 3053 	strb.w	r3, [sp, #83]	@ 0x53
 800c4a0:	931a      	str	r3, [sp, #104]	@ 0x68
 800c4a2:	4654      	mov	r4, sl
 800c4a4:	2205      	movs	r2, #5
 800c4a6:	f814 1b01 	ldrb.w	r1, [r4], #1
 800c4aa:	4853      	ldr	r0, [pc, #332]	@ (800c5f8 <_vfiprintf_r+0x21c>)
 800c4ac:	f7f3 fe90 	bl	80001d0 <memchr>
 800c4b0:	9a04      	ldr	r2, [sp, #16]
 800c4b2:	b9d8      	cbnz	r0, 800c4ec <_vfiprintf_r+0x110>
 800c4b4:	06d1      	lsls	r1, r2, #27
 800c4b6:	bf44      	itt	mi
 800c4b8:	2320      	movmi	r3, #32
 800c4ba:	f88d 3053 	strbmi.w	r3, [sp, #83]	@ 0x53
 800c4be:	0713      	lsls	r3, r2, #28
 800c4c0:	bf44      	itt	mi
 800c4c2:	232b      	movmi	r3, #43	@ 0x2b
 800c4c4:	f88d 3053 	strbmi.w	r3, [sp, #83]	@ 0x53
 800c4c8:	f89a 3000 	ldrb.w	r3, [sl]
 800c4cc:	2b2a      	cmp	r3, #42	@ 0x2a
 800c4ce:	d015      	beq.n	800c4fc <_vfiprintf_r+0x120>
 800c4d0:	9a07      	ldr	r2, [sp, #28]
 800c4d2:	4654      	mov	r4, sl
 800c4d4:	2000      	movs	r0, #0
 800c4d6:	f04f 0c0a 	mov.w	ip, #10
 800c4da:	4621      	mov	r1, r4
 800c4dc:	f811 3b01 	ldrb.w	r3, [r1], #1
 800c4e0:	3b30      	subs	r3, #48	@ 0x30
 800c4e2:	2b09      	cmp	r3, #9
 800c4e4:	d94b      	bls.n	800c57e <_vfiprintf_r+0x1a2>
 800c4e6:	b1b0      	cbz	r0, 800c516 <_vfiprintf_r+0x13a>
 800c4e8:	9207      	str	r2, [sp, #28]
 800c4ea:	e014      	b.n	800c516 <_vfiprintf_r+0x13a>
 800c4ec:	eba0 0308 	sub.w	r3, r0, r8
 800c4f0:	fa09 f303 	lsl.w	r3, r9, r3
 800c4f4:	4313      	orrs	r3, r2
 800c4f6:	9304      	str	r3, [sp, #16]
 800c4f8:	46a2      	mov	sl, r4
 800c4fa:	e7d2      	b.n	800c4a2 <_vfiprintf_r+0xc6>
 800c4fc:	9b03      	ldr	r3, [sp, #12]
 800c4fe:	1d19      	adds	r1, r3, #4
 800c500:	681b      	ldr	r3, [r3, #0]
 800c502:	9103      	str	r1, [sp, #12]
 800c504:	2b00      	cmp	r3, #0
 800c506:	bfbb      	ittet	lt
 800c508:	425b      	neglt	r3, r3
 800c50a:	f042 0202 	orrlt.w	r2, r2, #2
 800c50e:	9307      	strge	r3, [sp, #28]
 800c510:	9307      	strlt	r3, [sp, #28]
 800c512:	bfb8      	it	lt
 800c514:	9204      	strlt	r2, [sp, #16]
 800c516:	7823      	ldrb	r3, [r4, #0]
 800c518:	2b2e      	cmp	r3, #46	@ 0x2e
 800c51a:	d10a      	bne.n	800c532 <_vfiprintf_r+0x156>
 800c51c:	7863      	ldrb	r3, [r4, #1]
 800c51e:	2b2a      	cmp	r3, #42	@ 0x2a
 800c520:	d132      	bne.n	800c588 <_vfiprintf_r+0x1ac>
 800c522:	9b03      	ldr	r3, [sp, #12]
 800c524:	1d1a      	adds	r2, r3, #4
 800c526:	681b      	ldr	r3, [r3, #0]
 800c528:	9203      	str	r2, [sp, #12]
 800c52a:	ea43 73e3 	orr.w	r3, r3, r3, asr #31
 800c52e:	3402      	adds	r4, #2
 800c530:	9305      	str	r3, [sp, #20]
 800c532:	f8df a0d4 	ldr.w	sl, [pc, #212]	@ 800c608 <_vfiprintf_r+0x22c>
 800c536:	7821      	ldrb	r1, [r4, #0]
 800c538:	2203      	movs	r2, #3
 800c53a:	4650      	mov	r0, sl
 800c53c:	f7f3 fe48 	bl	80001d0 <memchr>
 800c540:	b138      	cbz	r0, 800c552 <_vfiprintf_r+0x176>
 800c542:	9b04      	ldr	r3, [sp, #16]
 800c544:	eba0 000a 	sub.w	r0, r0, sl
 800c548:	2240      	movs	r2, #64	@ 0x40
 800c54a:	4082      	lsls	r2, r0
 800c54c:	4313      	orrs	r3, r2
 800c54e:	3401      	adds	r4, #1
 800c550:	9304      	str	r3, [sp, #16]
 800c552:	f814 1b01 	ldrb.w	r1, [r4], #1
 800c556:	4829      	ldr	r0, [pc, #164]	@ (800c5fc <_vfiprintf_r+0x220>)
 800c558:	f88d 1028 	strb.w	r1, [sp, #40]	@ 0x28
 800c55c:	2206      	movs	r2, #6
 800c55e:	f7f3 fe37 	bl	80001d0 <memchr>
 800c562:	2800      	cmp	r0, #0
 800c564:	d03f      	beq.n	800c5e6 <_vfiprintf_r+0x20a>
 800c566:	4b26      	ldr	r3, [pc, #152]	@ (800c600 <_vfiprintf_r+0x224>)
 800c568:	bb1b      	cbnz	r3, 800c5b2 <_vfiprintf_r+0x1d6>
 800c56a:	9b03      	ldr	r3, [sp, #12]
 800c56c:	3307      	adds	r3, #7
 800c56e:	f023 0307 	bic.w	r3, r3, #7
 800c572:	3308      	adds	r3, #8
 800c574:	9303      	str	r3, [sp, #12]
 800c576:	9b09      	ldr	r3, [sp, #36]	@ 0x24
 800c578:	443b      	add	r3, r7
 800c57a:	9309      	str	r3, [sp, #36]	@ 0x24
 800c57c:	e76a      	b.n	800c454 <_vfiprintf_r+0x78>
 800c57e:	fb0c 3202 	mla	r2, ip, r2, r3
 800c582:	460c      	mov	r4, r1
 800c584:	2001      	movs	r0, #1
 800c586:	e7a8      	b.n	800c4da <_vfiprintf_r+0xfe>
 800c588:	2300      	movs	r3, #0
 800c58a:	3401      	adds	r4, #1
 800c58c:	9305      	str	r3, [sp, #20]
 800c58e:	4619      	mov	r1, r3
 800c590:	f04f 0c0a 	mov.w	ip, #10
 800c594:	4620      	mov	r0, r4
 800c596:	f810 2b01 	ldrb.w	r2, [r0], #1
 800c59a:	3a30      	subs	r2, #48	@ 0x30
 800c59c:	2a09      	cmp	r2, #9
 800c59e:	d903      	bls.n	800c5a8 <_vfiprintf_r+0x1cc>
 800c5a0:	2b00      	cmp	r3, #0
 800c5a2:	d0c6      	beq.n	800c532 <_vfiprintf_r+0x156>
 800c5a4:	9105      	str	r1, [sp, #20]
 800c5a6:	e7c4      	b.n	800c532 <_vfiprintf_r+0x156>
 800c5a8:	fb0c 2101 	mla	r1, ip, r1, r2
 800c5ac:	4604      	mov	r4, r0
 800c5ae:	2301      	movs	r3, #1
 800c5b0:	e7f0      	b.n	800c594 <_vfiprintf_r+0x1b8>
 800c5b2:	ab03      	add	r3, sp, #12
 800c5b4:	9300      	str	r3, [sp, #0]
 800c5b6:	462a      	mov	r2, r5
 800c5b8:	4b12      	ldr	r3, [pc, #72]	@ (800c604 <_vfiprintf_r+0x228>)
 800c5ba:	a904      	add	r1, sp, #16
 800c5bc:	4630      	mov	r0, r6
 800c5be:	f7fc fe05 	bl	80091cc <_printf_float>
 800c5c2:	4607      	mov	r7, r0
 800c5c4:	1c78      	adds	r0, r7, #1
 800c5c6:	d1d6      	bne.n	800c576 <_vfiprintf_r+0x19a>
 800c5c8:	6e6b      	ldr	r3, [r5, #100]	@ 0x64
 800c5ca:	07d9      	lsls	r1, r3, #31
 800c5cc:	d405      	bmi.n	800c5da <_vfiprintf_r+0x1fe>
 800c5ce:	89ab      	ldrh	r3, [r5, #12]
 800c5d0:	059a      	lsls	r2, r3, #22
 800c5d2:	d402      	bmi.n	800c5da <_vfiprintf_r+0x1fe>
 800c5d4:	6da8      	ldr	r0, [r5, #88]	@ 0x58
 800c5d6:	f7fd fd85 	bl	800a0e4 <__retarget_lock_release_recursive>
 800c5da:	89ab      	ldrh	r3, [r5, #12]
 800c5dc:	065b      	lsls	r3, r3, #25
 800c5de:	f53f af1f 	bmi.w	800c420 <_vfiprintf_r+0x44>
 800c5e2:	9809      	ldr	r0, [sp, #36]	@ 0x24
 800c5e4:	e71e      	b.n	800c424 <_vfiprintf_r+0x48>
 800c5e6:	ab03      	add	r3, sp, #12
 800c5e8:	9300      	str	r3, [sp, #0]
 800c5ea:	462a      	mov	r2, r5
 800c5ec:	4b05      	ldr	r3, [pc, #20]	@ (800c604 <_vfiprintf_r+0x228>)
 800c5ee:	a904      	add	r1, sp, #16
 800c5f0:	4630      	mov	r0, r6
 800c5f2:	f7fd f883 	bl	80096fc <_printf_i>
 800c5f6:	e7e4      	b.n	800c5c2 <_vfiprintf_r+0x1e6>
 800c5f8:	0800caf8 	.word	0x0800caf8
 800c5fc:	0800cb02 	.word	0x0800cb02
 800c600:	080091cd 	.word	0x080091cd
 800c604:	0800c3b9 	.word	0x0800c3b9
 800c608:	0800cafe 	.word	0x0800cafe

0800c60c <__swbuf_r>:
 800c60c:	b5f8      	push	{r3, r4, r5, r6, r7, lr}
 800c60e:	460e      	mov	r6, r1
 800c610:	4614      	mov	r4, r2
 800c612:	4605      	mov	r5, r0
 800c614:	b118      	cbz	r0, 800c61e <__swbuf_r+0x12>
 800c616:	6a03      	ldr	r3, [r0, #32]
 800c618:	b90b      	cbnz	r3, 800c61e <__swbuf_r+0x12>
 800c61a:	f7fd fc27 	bl	8009e6c <__sinit>
 800c61e:	69a3      	ldr	r3, [r4, #24]
 800c620:	60a3      	str	r3, [r4, #8]
 800c622:	89a3      	ldrh	r3, [r4, #12]
 800c624:	071a      	lsls	r2, r3, #28
 800c626:	d501      	bpl.n	800c62c <__swbuf_r+0x20>
 800c628:	6923      	ldr	r3, [r4, #16]
 800c62a:	b943      	cbnz	r3, 800c63e <__swbuf_r+0x32>
 800c62c:	4621      	mov	r1, r4
 800c62e:	4628      	mov	r0, r5
 800c630:	f000 f82a 	bl	800c688 <__swsetup_r>
 800c634:	b118      	cbz	r0, 800c63e <__swbuf_r+0x32>
 800c636:	f04f 37ff 	mov.w	r7, #4294967295
 800c63a:	4638      	mov	r0, r7
 800c63c:	bdf8      	pop	{r3, r4, r5, r6, r7, pc}
 800c63e:	6823      	ldr	r3, [r4, #0]
 800c640:	6922      	ldr	r2, [r4, #16]
 800c642:	1a98      	subs	r0, r3, r2
 800c644:	6963      	ldr	r3, [r4, #20]
 800c646:	b2f6      	uxtb	r6, r6
 800c648:	4283      	cmp	r3, r0
 800c64a:	4637      	mov	r7, r6
 800c64c:	dc05      	bgt.n	800c65a <__swbuf_r+0x4e>
 800c64e:	4621      	mov	r1, r4
 800c650:	4628      	mov	r0, r5
 800c652:	f7ff fdfd 	bl	800c250 <_fflush_r>
 800c656:	2800      	cmp	r0, #0
 800c658:	d1ed      	bne.n	800c636 <__swbuf_r+0x2a>
 800c65a:	68a3      	ldr	r3, [r4, #8]
 800c65c:	3b01      	subs	r3, #1
 800c65e:	60a3      	str	r3, [r4, #8]
 800c660:	6823      	ldr	r3, [r4, #0]
 800c662:	1c5a      	adds	r2, r3, #1
 800c664:	6022      	str	r2, [r4, #0]
 800c666:	701e      	strb	r6, [r3, #0]
 800c668:	6962      	ldr	r2, [r4, #20]
 800c66a:	1c43      	adds	r3, r0, #1
 800c66c:	429a      	cmp	r2, r3
 800c66e:	d004      	beq.n	800c67a <__swbuf_r+0x6e>
 800c670:	89a3      	ldrh	r3, [r4, #12]
 800c672:	07db      	lsls	r3, r3, #31
 800c674:	d5e1      	bpl.n	800c63a <__swbuf_r+0x2e>
 800c676:	2e0a      	cmp	r6, #10
 800c678:	d1df      	bne.n	800c63a <__swbuf_r+0x2e>
 800c67a:	4621      	mov	r1, r4
 800c67c:	4628      	mov	r0, r5
 800c67e:	f7ff fde7 	bl	800c250 <_fflush_r>
 800c682:	2800      	cmp	r0, #0
 800c684:	d0d9      	beq.n	800c63a <__swbuf_r+0x2e>
 800c686:	e7d6      	b.n	800c636 <__swbuf_r+0x2a>

0800c688 <__swsetup_r>:
 800c688:	b538      	push	{r3, r4, r5, lr}
 800c68a:	4b29      	ldr	r3, [pc, #164]	@ (800c730 <__swsetup_r+0xa8>)
 800c68c:	4605      	mov	r5, r0
 800c68e:	6818      	ldr	r0, [r3, #0]
 800c690:	460c      	mov	r4, r1
 800c692:	b118      	cbz	r0, 800c69c <__swsetup_r+0x14>
 800c694:	6a03      	ldr	r3, [r0, #32]
 800c696:	b90b      	cbnz	r3, 800c69c <__swsetup_r+0x14>
 800c698:	f7fd fbe8 	bl	8009e6c <__sinit>
 800c69c:	f9b4 300c 	ldrsh.w	r3, [r4, #12]
 800c6a0:	0719      	lsls	r1, r3, #28
 800c6a2:	d422      	bmi.n	800c6ea <__swsetup_r+0x62>
 800c6a4:	06da      	lsls	r2, r3, #27
 800c6a6:	d407      	bmi.n	800c6b8 <__swsetup_r+0x30>
 800c6a8:	2209      	movs	r2, #9
 800c6aa:	602a      	str	r2, [r5, #0]
 800c6ac:	f043 0340 	orr.w	r3, r3, #64	@ 0x40
 800c6b0:	81a3      	strh	r3, [r4, #12]
 800c6b2:	f04f 30ff 	mov.w	r0, #4294967295
 800c6b6:	e033      	b.n	800c720 <__swsetup_r+0x98>
 800c6b8:	0758      	lsls	r0, r3, #29
 800c6ba:	d512      	bpl.n	800c6e2 <__swsetup_r+0x5a>
 800c6bc:	6b61      	ldr	r1, [r4, #52]	@ 0x34
 800c6be:	b141      	cbz	r1, 800c6d2 <__swsetup_r+0x4a>
 800c6c0:	f104 0344 	add.w	r3, r4, #68	@ 0x44
 800c6c4:	4299      	cmp	r1, r3
 800c6c6:	d002      	beq.n	800c6ce <__swsetup_r+0x46>
 800c6c8:	4628      	mov	r0, r5
 800c6ca:	f7fe fb99 	bl	800ae00 <_free_r>
 800c6ce:	2300      	movs	r3, #0
 800c6d0:	6363      	str	r3, [r4, #52]	@ 0x34
 800c6d2:	89a3      	ldrh	r3, [r4, #12]
 800c6d4:	f023 0324 	bic.w	r3, r3, #36	@ 0x24
 800c6d8:	81a3      	strh	r3, [r4, #12]
 800c6da:	2300      	movs	r3, #0
 800c6dc:	6063      	str	r3, [r4, #4]
 800c6de:	6923      	ldr	r3, [r4, #16]
 800c6e0:	6023      	str	r3, [r4, #0]
 800c6e2:	89a3      	ldrh	r3, [r4, #12]
 800c6e4:	f043 0308 	orr.w	r3, r3, #8
 800c6e8:	81a3      	strh	r3, [r4, #12]
 800c6ea:	6923      	ldr	r3, [r4, #16]
 800c6ec:	b94b      	cbnz	r3, 800c702 <__swsetup_r+0x7a>
 800c6ee:	89a3      	ldrh	r3, [r4, #12]
 800c6f0:	f403 7320 	and.w	r3, r3, #640	@ 0x280
 800c6f4:	f5b3 7f00 	cmp.w	r3, #512	@ 0x200
 800c6f8:	d003      	beq.n	800c702 <__swsetup_r+0x7a>
 800c6fa:	4621      	mov	r1, r4
 800c6fc:	4628      	mov	r0, r5
 800c6fe:	f000 f88b 	bl	800c818 <__smakebuf_r>
 800c702:	f9b4 300c 	ldrsh.w	r3, [r4, #12]
 800c706:	f013 0201 	ands.w	r2, r3, #1
 800c70a:	d00a      	beq.n	800c722 <__swsetup_r+0x9a>
 800c70c:	2200      	movs	r2, #0
 800c70e:	60a2      	str	r2, [r4, #8]
 800c710:	6962      	ldr	r2, [r4, #20]
 800c712:	4252      	negs	r2, r2
 800c714:	61a2      	str	r2, [r4, #24]
 800c716:	6922      	ldr	r2, [r4, #16]
 800c718:	b942      	cbnz	r2, 800c72c <__swsetup_r+0xa4>
 800c71a:	f013 0080 	ands.w	r0, r3, #128	@ 0x80
 800c71e:	d1c5      	bne.n	800c6ac <__swsetup_r+0x24>
 800c720:	bd38      	pop	{r3, r4, r5, pc}
 800c722:	0799      	lsls	r1, r3, #30
 800c724:	bf58      	it	pl
 800c726:	6962      	ldrpl	r2, [r4, #20]
 800c728:	60a2      	str	r2, [r4, #8]
 800c72a:	e7f4      	b.n	800c716 <__swsetup_r+0x8e>
 800c72c:	2000      	movs	r0, #0
 800c72e:	e7f7      	b.n	800c720 <__swsetup_r+0x98>
 800c730:	2000022c 	.word	0x2000022c

0800c734 <_raise_r>:
 800c734:	291f      	cmp	r1, #31
 800c736:	b538      	push	{r3, r4, r5, lr}
 800c738:	4605      	mov	r5, r0
 800c73a:	460c      	mov	r4, r1
 800c73c:	d904      	bls.n	800c748 <_raise_r+0x14>
 800c73e:	2316      	movs	r3, #22
 800c740:	6003      	str	r3, [r0, #0]
 800c742:	f04f 30ff 	mov.w	r0, #4294967295
 800c746:	bd38      	pop	{r3, r4, r5, pc}
 800c748:	6bc2      	ldr	r2, [r0, #60]	@ 0x3c
 800c74a:	b112      	cbz	r2, 800c752 <_raise_r+0x1e>
 800c74c:	f852 3021 	ldr.w	r3, [r2, r1, lsl #2]
 800c750:	b94b      	cbnz	r3, 800c766 <_raise_r+0x32>
 800c752:	4628      	mov	r0, r5
 800c754:	f000 f830 	bl	800c7b8 <_getpid_r>
 800c758:	4622      	mov	r2, r4
 800c75a:	4601      	mov	r1, r0
 800c75c:	4628      	mov	r0, r5
 800c75e:	e8bd 4038 	ldmia.w	sp!, {r3, r4, r5, lr}
 800c762:	f000 b817 	b.w	800c794 <_kill_r>
 800c766:	2b01      	cmp	r3, #1
 800c768:	d00a      	beq.n	800c780 <_raise_r+0x4c>
 800c76a:	1c59      	adds	r1, r3, #1
 800c76c:	d103      	bne.n	800c776 <_raise_r+0x42>
 800c76e:	2316      	movs	r3, #22
 800c770:	6003      	str	r3, [r0, #0]
 800c772:	2001      	movs	r0, #1
 800c774:	e7e7      	b.n	800c746 <_raise_r+0x12>
 800c776:	2100      	movs	r1, #0
 800c778:	f842 1024 	str.w	r1, [r2, r4, lsl #2]
 800c77c:	4620      	mov	r0, r4
 800c77e:	4798      	blx	r3
 800c780:	2000      	movs	r0, #0
 800c782:	e7e0      	b.n	800c746 <_raise_r+0x12>

0800c784 <raise>:
 800c784:	4b02      	ldr	r3, [pc, #8]	@ (800c790 <raise+0xc>)
 800c786:	4601      	mov	r1, r0
 800c788:	6818      	ldr	r0, [r3, #0]
 800c78a:	f7ff bfd3 	b.w	800c734 <_raise_r>
 800c78e:	bf00      	nop
 800c790:	2000022c 	.word	0x2000022c

0800c794 <_kill_r>:
 800c794:	b538      	push	{r3, r4, r5, lr}
 800c796:	4d07      	ldr	r5, [pc, #28]	@ (800c7b4 <_kill_r+0x20>)
 800c798:	2300      	movs	r3, #0
 800c79a:	4604      	mov	r4, r0
 800c79c:	4608      	mov	r0, r1
 800c79e:	4611      	mov	r1, r2
 800c7a0:	602b      	str	r3, [r5, #0]
 800c7a2:	f7f5 ff83 	bl	80026ac <_kill>
 800c7a6:	1c43      	adds	r3, r0, #1
 800c7a8:	d102      	bne.n	800c7b0 <_kill_r+0x1c>
 800c7aa:	682b      	ldr	r3, [r5, #0]
 800c7ac:	b103      	cbz	r3, 800c7b0 <_kill_r+0x1c>
 800c7ae:	6023      	str	r3, [r4, #0]
 800c7b0:	bd38      	pop	{r3, r4, r5, pc}
 800c7b2:	bf00      	nop
 800c7b4:	2000178c 	.word	0x2000178c

0800c7b8 <_getpid_r>:
 800c7b8:	f7f5 bf76 	b.w	80026a8 <_getpid>

0800c7bc <_malloc_usable_size_r>:
 800c7bc:	f851 3c04 	ldr.w	r3, [r1, #-4]
 800c7c0:	1f18      	subs	r0, r3, #4
 800c7c2:	2b00      	cmp	r3, #0
 800c7c4:	bfbc      	itt	lt
 800c7c6:	580b      	ldrlt	r3, [r1, r0]
 800c7c8:	18c0      	addlt	r0, r0, r3
 800c7ca:	4770      	bx	lr

0800c7cc <__swhatbuf_r>:
 800c7cc:	b570      	push	{r4, r5, r6, lr}
 800c7ce:	460c      	mov	r4, r1
 800c7d0:	f9b1 100e 	ldrsh.w	r1, [r1, #14]
 800c7d4:	2900      	cmp	r1, #0
 800c7d6:	b096      	sub	sp, #88	@ 0x58
 800c7d8:	4615      	mov	r5, r2
 800c7da:	461e      	mov	r6, r3
 800c7dc:	da0d      	bge.n	800c7fa <__swhatbuf_r+0x2e>
 800c7de:	89a3      	ldrh	r3, [r4, #12]
 800c7e0:	f013 0f80 	tst.w	r3, #128	@ 0x80
 800c7e4:	f04f 0100 	mov.w	r1, #0
 800c7e8:	bf14      	ite	ne
 800c7ea:	2340      	movne	r3, #64	@ 0x40
 800c7ec:	f44f 6380 	moveq.w	r3, #1024	@ 0x400
 800c7f0:	2000      	movs	r0, #0
 800c7f2:	6031      	str	r1, [r6, #0]
 800c7f4:	602b      	str	r3, [r5, #0]
 800c7f6:	b016      	add	sp, #88	@ 0x58
 800c7f8:	bd70      	pop	{r4, r5, r6, pc}
 800c7fa:	466a      	mov	r2, sp
 800c7fc:	f000 f848 	bl	800c890 <_fstat_r>
 800c800:	2800      	cmp	r0, #0
 800c802:	dbec      	blt.n	800c7de <__swhatbuf_r+0x12>
 800c804:	9901      	ldr	r1, [sp, #4]
 800c806:	f401 4170 	and.w	r1, r1, #61440	@ 0xf000
 800c80a:	f5a1 5300 	sub.w	r3, r1, #8192	@ 0x2000
 800c80e:	4259      	negs	r1, r3
 800c810:	4159      	adcs	r1, r3
 800c812:	f44f 6380 	mov.w	r3, #1024	@ 0x400
 800c816:	e7eb      	b.n	800c7f0 <__swhatbuf_r+0x24>

0800c818 <__smakebuf_r>:
 800c818:	898b      	ldrh	r3, [r1, #12]
 800c81a:	b5f7      	push	{r0, r1, r2, r4, r5, r6, r7, lr}
 800c81c:	079d      	lsls	r5, r3, #30
 800c81e:	4606      	mov	r6, r0
 800c820:	460c      	mov	r4, r1
 800c822:	d507      	bpl.n	800c834 <__smakebuf_r+0x1c>
 800c824:	f104 0347 	add.w	r3, r4, #71	@ 0x47
 800c828:	6023      	str	r3, [r4, #0]
 800c82a:	6123      	str	r3, [r4, #16]
 800c82c:	2301      	movs	r3, #1
 800c82e:	6163      	str	r3, [r4, #20]
 800c830:	b003      	add	sp, #12
 800c832:	bdf0      	pop	{r4, r5, r6, r7, pc}
 800c834:	ab01      	add	r3, sp, #4
 800c836:	466a      	mov	r2, sp
 800c838:	f7ff ffc8 	bl	800c7cc <__swhatbuf_r>
 800c83c:	9f00      	ldr	r7, [sp, #0]
 800c83e:	4605      	mov	r5, r0
 800c840:	4639      	mov	r1, r7
 800c842:	4630      	mov	r0, r6
 800c844:	f7fb fd12 	bl	800826c <_malloc_r>
 800c848:	b948      	cbnz	r0, 800c85e <__smakebuf_r+0x46>
 800c84a:	f9b4 300c 	ldrsh.w	r3, [r4, #12]
 800c84e:	059a      	lsls	r2, r3, #22
 800c850:	d4ee      	bmi.n	800c830 <__smakebuf_r+0x18>
 800c852:	f023 0303 	bic.w	r3, r3, #3
 800c856:	f043 0302 	orr.w	r3, r3, #2
 800c85a:	81a3      	strh	r3, [r4, #12]
 800c85c:	e7e2      	b.n	800c824 <__smakebuf_r+0xc>
 800c85e:	89a3      	ldrh	r3, [r4, #12]
 800c860:	6020      	str	r0, [r4, #0]
 800c862:	f043 0380 	orr.w	r3, r3, #128	@ 0x80
 800c866:	81a3      	strh	r3, [r4, #12]
 800c868:	9b01      	ldr	r3, [sp, #4]
 800c86a:	e9c4 0704 	strd	r0, r7, [r4, #16]
 800c86e:	b15b      	cbz	r3, 800c888 <__smakebuf_r+0x70>
 800c870:	f9b4 100e 	ldrsh.w	r1, [r4, #14]
 800c874:	4630      	mov	r0, r6
 800c876:	f000 f81d 	bl	800c8b4 <_isatty_r>
 800c87a:	b128      	cbz	r0, 800c888 <__smakebuf_r+0x70>
 800c87c:	89a3      	ldrh	r3, [r4, #12]
 800c87e:	f023 0303 	bic.w	r3, r3, #3
 800c882:	f043 0301 	orr.w	r3, r3, #1
 800c886:	81a3      	strh	r3, [r4, #12]
 800c888:	89a3      	ldrh	r3, [r4, #12]
 800c88a:	431d      	orrs	r5, r3
 800c88c:	81a5      	strh	r5, [r4, #12]
 800c88e:	e7cf      	b.n	800c830 <__smakebuf_r+0x18>

0800c890 <_fstat_r>:
 800c890:	b538      	push	{r3, r4, r5, lr}
 800c892:	4d07      	ldr	r5, [pc, #28]	@ (800c8b0 <_fstat_r+0x20>)
 800c894:	2300      	movs	r3, #0
 800c896:	4604      	mov	r4, r0
 800c898:	4608      	mov	r0, r1
 800c89a:	4611      	mov	r1, r2
 800c89c:	602b      	str	r3, [r5, #0]
 800c89e:	f7f5 ff32 	bl	8002706 <_fstat>
 800c8a2:	1c43      	adds	r3, r0, #1
 800c8a4:	d102      	bne.n	800c8ac <_fstat_r+0x1c>
 800c8a6:	682b      	ldr	r3, [r5, #0]
 800c8a8:	b103      	cbz	r3, 800c8ac <_fstat_r+0x1c>
 800c8aa:	6023      	str	r3, [r4, #0]
 800c8ac:	bd38      	pop	{r3, r4, r5, pc}
 800c8ae:	bf00      	nop
 800c8b0:	2000178c 	.word	0x2000178c

0800c8b4 <_isatty_r>:
 800c8b4:	b538      	push	{r3, r4, r5, lr}
 800c8b6:	4d06      	ldr	r5, [pc, #24]	@ (800c8d0 <_isatty_r+0x1c>)
 800c8b8:	2300      	movs	r3, #0
 800c8ba:	4604      	mov	r4, r0
 800c8bc:	4608      	mov	r0, r1
 800c8be:	602b      	str	r3, [r5, #0]
 800c8c0:	f7f5 ff26 	bl	8002710 <_isatty>
 800c8c4:	1c43      	adds	r3, r0, #1
 800c8c6:	d102      	bne.n	800c8ce <_isatty_r+0x1a>
 800c8c8:	682b      	ldr	r3, [r5, #0]
 800c8ca:	b103      	cbz	r3, 800c8ce <_isatty_r+0x1a>
 800c8cc:	6023      	str	r3, [r4, #0]
 800c8ce:	bd38      	pop	{r3, r4, r5, pc}
 800c8d0:	2000178c 	.word	0x2000178c

0800c8d4 <_init>:
 800c8d4:	b5f8      	push	{r3, r4, r5, r6, r7, lr}
 800c8d6:	bf00      	nop
 800c8d8:	bcf8      	pop	{r3, r4, r5, r6, r7}
 800c8da:	bc08      	pop	{r3}
 800c8dc:	469e      	mov	lr, r3
 800c8de:	4770      	bx	lr

0800c8e0 <_fini>:
 800c8e0:	b5f8      	push	{r3, r4, r5, r6, r7, lr}
 800c8e2:	bf00      	nop
 800c8e4:	bcf8      	pop	{r3, r4, r5, r6, r7}
 800c8e6:	bc08      	pop	{r3}
 800c8e8:	469e      	mov	lr, r3
 800c8ea:	4770      	bx	lr
